
========================================================================

** ELF Header Information

    File Name: C:\Users\27731\Downloads\DAPProg-master\out\DAPProg.axf

    Machine class: ELFCLASS32 (32-bit)
    Data encoding: ELFDATA2LSB (Little endian)
    Header version: EV_CURRENT (Current version)
    Operating System ABI: none
    ABI Version: 0
    File Type: ET_EXEC (Executable) (2)
    Machine: EM_ARM (ARM)

    Image Entry point: 0x080000ed
    Flags: EF_ARM_HASENTRY + EF_ARM_ABI_FLOAT_SOFT (0x05000202)

    ARM ELF revision: 5 (ABI version 2)

    Conforms to Soft float procedure-call standard

    Built with
    Component: ARM Compiler 5.06 update 6 (build 750) Tool: armasm [4d35ec]
    Component: ARM Compiler 5.06 update 6 (build 750) Tool: armlink [4d35ed]

    Header size: 52 bytes (0x34)
    Program header entry size: 32 bytes (0x20)
    Section header entry size: 40 bytes (0x28)

    Program header entries: 1
    Section header entries: 16

    Program header offset: 410404 (0x00064324)
    Section header offset: 410436 (0x00064344)

    Section header string table index: 15

========================================================================

** Program header #0 (PT_LOAD) [PF_X + PF_W + PF_R + PF_ARM_ENTRY]
    Size : 51740 bytes (49664 bytes in file)
    Virtual address: 0x08000000 (Alignment 8)


========================================================================

** Section #1 'ER_IROM1' (SHT_PROGBITS) [SHF_ALLOC + SHF_EXECINSTR]
    Size   : 49604 bytes (alignment 4)
    Address: 0x08000000

    $d.realdata
    RESET
    __Vectors
        0x08000000:    20000858    X..     DCD    536873048
        0x08000004:    08001db1    ....    DCD    134225329
        0x08000008:    08001db9    ....    DCD    134225337
        0x0800000c:    08001dbb    ....    DCD    134225339
        0x08000010:    08001dbd    ....    DCD    134225341
        0x08000014:    08001dbf    ....    DCD    134225343
        0x08000018:    08001dc1    ....    DCD    134225345
        0x0800001c:    00000000    ....    DCD    0
        0x08000020:    00000000    ....    DCD    0
        0x08000024:    00000000    ....    DCD    0
        0x08000028:    00000000    ....    DCD    0
        0x0800002c:    08001dc3    ....    DCD    134225347
        0x08000030:    08001dc5    ....    DCD    134225349
        0x08000034:    00000000    ....    DCD    0
        0x08000038:    08001dc7    ....    DCD    134225351
        0x0800003c:    08001dc9    ....    DCD    134225353
        0x08000040:    08001dcb    ....    DCD    134225355
        0x08000044:    08001dcb    ....    DCD    134225355
        0x08000048:    08001dcb    ....    DCD    134225355
        0x0800004c:    08001dcb    ....    DCD    134225355
        0x08000050:    08001dcb    ....    DCD    134225355
        0x08000054:    08001dcb    ....    DCD    134225355
        0x08000058:    08001dcb    ....    DCD    134225355
        0x0800005c:    08001dcb    ....    DCD    134225355
        0x08000060:    08001dcb    ....    DCD    134225355
        0x08000064:    08001dcb    ....    DCD    134225355
        0x08000068:    08001dcb    ....    DCD    134225355
        0x0800006c:    08001dcb    ....    DCD    134225355
        0x08000070:    08001dcb    ....    DCD    134225355
        0x08000074:    08001dcb    ....    DCD    134225355
        0x08000078:    08001dcb    ....    DCD    134225355
        0x0800007c:    08001dcb    ....    DCD    134225355
        0x08000080:    08001dcb    ....    DCD    134225355
        0x08000084:    08001dcb    ....    DCD    134225355
        0x08000088:    08001dcb    ....    DCD    134225355
        0x0800008c:    08001dcb    ....    DCD    134225355
        0x08000090:    08001dcb    ....    DCD    134225355
        0x08000094:    08001dcb    ....    DCD    134225355
        0x08000098:    08001dcb    ....    DCD    134225355
        0x0800009c:    08001dcb    ....    DCD    134225355
        0x080000a0:    08001dcb    ....    DCD    134225355
        0x080000a4:    08001dcb    ....    DCD    134225355
        0x080000a8:    08001dcb    ....    DCD    134225355
        0x080000ac:    08001dcb    ....    DCD    134225355
        0x080000b0:    08001dcb    ....    DCD    134225355
        0x080000b4:    08001dcb    ....    DCD    134225355
        0x080000b8:    08001dcb    ....    DCD    134225355
        0x080000bc:    08001dcb    ....    DCD    134225355
        0x080000c0:    08001dcb    ....    DCD    134225355
        0x080000c4:    08001dcb    ....    DCD    134225355
        0x080000c8:    08001dcb    ....    DCD    134225355
        0x080000cc:    08001dcb    ....    DCD    134225355
        0x080000d0:    08001dcb    ....    DCD    134225355
        0x080000d4:    08001dcb    ....    DCD    134225355
        0x080000d8:    08001dcb    ....    DCD    134225355
        0x080000dc:    08001dcb    ....    DCD    134225355
        0x080000e0:    08001dcb    ....    DCD    134225355
        0x080000e4:    08001dcb    ....    DCD    134225355
        0x080000e8:    08001dcb    ....    DCD    134225355
    $t
    .ARM.Collect$$$$00000000
    .ARM.Collect$$$$00000001
    __Vectors_End
    __main
    _main_stk
        0x080000ec:    f8dfd00c    ....    LDR      sp,__lit__00000000 ; [0x80000fc] = 0x20000858
    .ARM.Collect$$$$00000004
    _main_scatterload
        0x080000f0:    f002faa4    ....    BL       __scatterload ; 0x800263c
    .ARM.Collect$$$$00000008
    .ARM.Collect$$$$0000000A
    .ARM.Collect$$$$0000000B
    __main_after_scatterload
    _main_clock
    _main_cpp_init
    _main_init
        0x080000f4:    4800        .H      LDR      r0,[pc,#0] ; [0x80000f8] = 0x8000175
        0x080000f6:    4700        .G      BX       r0
    $d
        0x080000f8:    08000175    u...    DCD    134218101
    .ARM.Collect$$$$00002712
    __lit__00000000
    .ARM.Collect$$$$0000000D
    .ARM.Collect$$$$0000000F
    __rt_final_cpp
    __rt_final_exit
        0x080000fc:    20000858    X..     DCD    536873048
    $t
    .text
    delay
        0x08000100:    f44f61fa    O..a    MOV      r1,#0x7d0
        0x08000104:    4348        HC      MULS     r0,r1,r0
        0x08000106:    e000        ..      B        0x800010a ; delay + 10
        0x08000108:    bf00        ..      NOP      
        0x0800010a:    1e40        @.      SUBS     r0,r0,#1
        0x0800010c:    d2fc        ..      BCS      0x8000108 ; delay + 8
        0x0800010e:    4770        pG      BX       lr
    SerialInit
        0x08000110:    b530        0.      PUSH     {r4,r5,lr}
        0x08000112:    b087        ..      SUB      sp,sp,#0x1c
        0x08000114:    2101        .!      MOVS     r1,#1
        0x08000116:    2004        .       MOVS     r0,#4
        0x08000118:    f002f89b    ....    BL       RCC_APB2PeriphClockCmd ; 0x8002252
        0x0800011c:    4c90        .L      LDR      r4,[pc,#576] ; [0x8000360] = 0x8002680
        0x0800011e:    4d91        .M      LDR      r5,[pc,#580] ; [0x8000364] = 0x40010800
        0x08000120:    a904        ..      ADD      r1,sp,#0x10
        0x08000122:    6820         h      LDR      r0,[r4,#0]
        0x08000124:    9004        ..      STR      r0,[sp,#0x10]
        0x08000126:    4628        (F      MOV      r0,r5
        0x08000128:    f001feab    ....    BL       GPIO_Init ; 0x8001e82
        0x0800012c:    6861        ah      LDR      r1,[r4,#4]
        0x0800012e:    9105        ..      STR      r1,[sp,#0x14]
        0x08000130:    a905        ..      ADD      r1,sp,#0x14
        0x08000132:    4628        (F      MOV      r0,r5
        0x08000134:    f001fea5    ....    BL       GPIO_Init ; 0x8001e82
        0x08000138:    2101        .!      MOVS     r1,#1
        0x0800013a:    0448        H.      LSLS     r0,r1,#17
        0x0800013c:    f002f892    ....    BL       RCC_APB1PeriphClockCmd ; 0x8002264
        0x08000140:    f44f30e1    O..0    MOV      r0,#0x1c200
        0x08000144:    9000        ..      STR      r0,[sp,#0]
        0x08000146:    2000        .       MOVS     r0,#0
        0x08000148:    f8ad0004    ....    STRH     r0,[sp,#4]
        0x0800014c:    f8ad0006    ....    STRH     r0,[sp,#6]
        0x08000150:    f8ad0008    ....    STRH     r0,[sp,#8]
        0x08000154:    f8ad000c    ....    STRH     r0,[sp,#0xc]
        0x08000158:    200c        .       MOVS     r0,#0xc
        0x0800015a:    4c83        .L      LDR      r4,[pc,#524] ; [0x8000368] = 0x40004400
        0x0800015c:    f8ad000a    ....    STRH     r0,[sp,#0xa]
        0x08000160:    4669        iF      MOV      r1,sp
        0x08000162:    4620         F      MOV      r0,r4
        0x08000164:    f002f8f4    ....    BL       USART_Init ; 0x8002350
        0x08000168:    2101        .!      MOVS     r1,#1
        0x0800016a:    4620         F      MOV      r0,r4
        0x0800016c:    f002f963    ..c.    BL       USART_Cmd ; 0x8002436
        0x08000170:    b007        ..      ADD      sp,sp,#0x1c
        0x08000172:    bd30        0.      POP      {r4,r5,pc}
    main
        0x08000174:    b508        ..      PUSH     {r3,lr}
        0x08000176:    2101        .!      MOVS     r1,#1
        0x08000178:    4608        .F      MOV      r0,r1
        0x0800017a:    f002f86a    ..j.    BL       RCC_APB2PeriphClockCmd ; 0x8002252
        0x0800017e:    2101        .!      MOVS     r1,#1
        0x08000180:    487a        zH      LDR      r0,[pc,#488] ; [0x800036c] = 0x300200
        0x08000182:    f001ff09    ....    BL       GPIO_PinRemapConfig ; 0x8001f98
        0x08000186:    2101        .!      MOVS     r1,#1
        0x08000188:    2010        .       MOVS     r0,#0x10
        0x0800018a:    f002f862    ..b.    BL       RCC_APB2PeriphClockCmd ; 0x8002252
        0x0800018e:    200c        .       MOVS     r0,#0xc
        0x08000190:    f8ad0000    ....    STRH     r0,[sp,#0]
        0x08000194:    2710        .'      MOVS     r7,#0x10
        0x08000196:    4d76        vM      LDR      r5,[pc,#472] ; [0x8000370] = 0x40011000
        0x08000198:    f88d7003    ...p    STRB     r7,[sp,#3]
        0x0800019c:    2403        .$      MOVS     r4,#3
        0x0800019e:    f88d4002    ...@    STRB     r4,[sp,#2]
        0x080001a2:    4669        iF      MOV      r1,sp
        0x080001a4:    4628        (F      MOV      r0,r5
        0x080001a6:    f001fe6c    ..l.    BL       GPIO_Init ; 0x8001e82
        0x080001aa:    2104        .!      MOVS     r1,#4
        0x080001ac:    4628        (F      MOV      r0,r5
        0x080001ae:    f001fed2    ....    BL       GPIO_SetBits ; 0x8001f56
        0x080001b2:    2108        .!      MOVS     r1,#8
        0x080001b4:    4628        (F      MOV      r0,r5
        0x080001b6:    f001fece    ....    BL       GPIO_SetBits ; 0x8001f56
        0x080001ba:    2101        .!      MOVS     r1,#1
        0x080001bc:    2008        .       MOVS     r0,#8
        0x080001be:    f002f848    ..H.    BL       RCC_APB2PeriphClockCmd ; 0x8002252
        0x080001c2:    156e        n.      ASRS     r6,r5,#21
        0x080001c4:    f8ad6000    ...`    STRH     r6,[sp,#0]
        0x080001c8:    f04f0948    O.H.    MOV      r9,#0x48
        0x080001cc:    f8df81a4    ....    LDR      r8,[pc,#420] ; [0x8000374] = 0x40010c00
        0x080001d0:    f88d9003    ....    STRB     r9,[sp,#3]
        0x080001d4:    f88d4002    ...@    STRB     r4,[sp,#2]
        0x080001d8:    4669        iF      MOV      r1,sp
        0x080001da:    4640        @F      MOV      r0,r8
        0x080001dc:    f001fe51    ..Q.    BL       GPIO_Init ; 0x8001e82
        0x080001e0:    0360        `.      LSLS     r0,r4,#13
        0x080001e2:    f8ad0000    ....    STRH     r0,[sp,#0]
        0x080001e6:    f88d9003    ....    STRB     r9,[sp,#3]
        0x080001ea:    f88d4002    ...@    STRB     r4,[sp,#2]
        0x080001ee:    4669        iF      MOV      r1,sp
        0x080001f0:    4640        @F      MOV      r0,r8
        0x080001f2:    f001fe46    ..F.    BL       GPIO_Init ; 0x8001e82
        0x080001f6:    14a8        ..      ASRS     r0,r5,#18
        0x080001f8:    f8ad0000    ....    STRH     r0,[sp,#0]
        0x080001fc:    f88d7003    ...p    STRB     r7,[sp,#3]
        0x08000200:    f88d4002    ...@    STRB     r4,[sp,#2]
        0x08000204:    4669        iF      MOV      r1,sp
        0x08000206:    4640        @F      MOV      r0,r8
        0x08000208:    f001fe3b    ..;.    BL       GPIO_Init ; 0x8001e82
        0x0800020c:    2038        8       MOVS     r0,#0x38
        0x0800020e:    f8ad0000    ....    STRH     r0,[sp,#0]
        0x08000212:    f88d7003    ...p    STRB     r7,[sp,#3]
        0x08000216:    f88d4002    ...@    STRB     r4,[sp,#2]
        0x0800021a:    4669        iF      MOV      r1,sp
        0x0800021c:    4640        @F      MOV      r0,r8
        0x0800021e:    f001fe30    ..0.    BL       GPIO_Init ; 0x8001e82
        0x08000222:    2108        .!      MOVS     r1,#8
        0x08000224:    4640        @F      MOV      r0,r8
        0x08000226:    f001fe96    ....    BL       GPIO_SetBits ; 0x8001f56
        0x0800022a:    2120         !      MOVS     r1,#0x20
        0x0800022c:    4640        @F      MOV      r0,r8
        0x0800022e:    f001fe94    ....    BL       GPIO_ResetBits ; 0x8001f5a
        0x08000232:    2110        .!      MOVS     r1,#0x10
        0x08000234:    4640        @F      MOV      r0,r8
        0x08000236:    f001fe90    ....    BL       GPIO_ResetBits ; 0x8001f5a
        0x0800023a:    20c8        .       MOVS     r0,#0xc8
        0x0800023c:    f7ffff60    ..`.    BL       delay ; 0x8000100
        0x08000240:    4644        DF      MOV      r4,r8
        0x08000242:    e002        ..      B        0x800024a ; main + 214
        0x08000244:    2014        .       MOVS     r0,#0x14
        0x08000246:    f7ffff5b    ..[.    BL       delay ; 0x8000100
        0x0800024a:    4631        1F      MOV      r1,r6
        0x0800024c:    4620         F      MOV      r0,r4
        0x0800024e:    f001fe6e    ..n.    BL       GPIO_ReadInputDataBit ; 0x8001f2e
        0x08000252:    2800        .(      CMP      r0,#0
        0x08000254:    d1f6        ..      BNE      0x8000244 ; main + 208
        0x08000256:    2104        .!      MOVS     r1,#4
        0x08000258:    4628        (F      MOV      r0,r5
        0x0800025a:    f001fe7e    ..~.    BL       GPIO_ResetBits ; 0x8001f5a
        0x0800025e:    f44f64fa    O..d    MOV      r4,#0x7d0
        0x08000262:    4620         F      MOV      r0,r4
        0x08000264:    f7ffff4c    ..L.    BL       delay ; 0x8000100
        0x08000268:    2104        .!      MOVS     r1,#4
        0x0800026a:    4628        (F      MOV      r0,r5
        0x0800026c:    f001fe73    ..s.    BL       GPIO_SetBits ; 0x8001f56
        0x08000270:    4620         F      MOV      r0,r4
        0x08000272:    f7ffff45    ..E.    BL       delay ; 0x8000100
        0x08000276:    2108        .!      MOVS     r1,#8
        0x08000278:    4628        (F      MOV      r0,r5
        0x0800027a:    f001fe6e    ..n.    BL       GPIO_ResetBits ; 0x8001f5a
        0x0800027e:    4620         F      MOV      r0,r4
        0x08000280:    f7ffff3e    ..>.    BL       delay ; 0x8000100
        0x08000284:    2108        .!      MOVS     r1,#8
        0x08000286:    4628        (F      MOV      r0,r5
        0x08000288:    f001fe65    ..e.    BL       GPIO_SetBits ; 0x8001f56
        0x0800028c:    f7ffff40    ..@.    BL       SerialInit ; 0x8000110
        0x08000290:    f000faba    ....    BL       swd_init_debug ; 0x8000808
        0x08000294:    4838        8H      LDR      r0,[pc,#224] ; [0x8000378] = 0x20000004
        0x08000296:    6800        .h      LDR      r0,[r0,#0]
        0x08000298:    f000fd58    ..X.    BL       target_flash_init ; 0x8000d4c
        0x0800029c:    2400        .$      MOVS     r4,#0
        0x0800029e:    f6491793    I...    MOV      r7,#0x9993
        0x080002a2:    f1046000    ...`    ADD      r0,r4,#0x8000000
        0x080002a6:    f000fdaa    ....    BL       target_flash_erase_sector ; 0x8000dfe
        0x080002aa:    f5046480    ...d    ADD      r4,r4,#0x400
        0x080002ae:    42bc        .B      CMP      r4,r7
        0x080002b0:    d3f7        ..      BCC      0x80002a2 ; main + 302
        0x080002b2:    2400        .$      MOVS     r4,#0
        0x080002b4:    f44f6680    O..f    MOV      r6,#0x400
        0x080002b8:    4632        2F      MOV      r2,r6
        0x080002ba:    4930        0I      LDR      r1,[pc,#192] ; [0x800037c] = 0x2000003c
        0x080002bc:    f1046000    ...`    ADD      r0,r4,#0x8000000
        0x080002c0:    f000f98c    ....    BL       swd_read_memory ; 0x80005dc
        0x080002c4:    2104        .!      MOVS     r1,#4
        0x080002c6:    4628        (F      MOV      r0,r5
        0x080002c8:    f001fe47    ..G.    BL       GPIO_ResetBits ; 0x8001f5a
        0x080002cc:    2014        .       MOVS     r0,#0x14
        0x080002ce:    f7ffff17    ....    BL       delay ; 0x8000100
        0x080002d2:    2104        .!      MOVS     r1,#4
        0x080002d4:    4628        (F      MOV      r0,r5
        0x080002d6:    f001fe3e    ..>.    BL       GPIO_SetBits ; 0x8001f56
        0x080002da:    2014        .       MOVS     r0,#0x14
        0x080002dc:    f7ffff10    ....    BL       delay ; 0x8000100
        0x080002e0:    f5046480    ...d    ADD      r4,r4,#0x400
        0x080002e4:    42bc        .B      CMP      r4,r7
        0x080002e6:    d3e7        ..      BCC      0x80002b8 ; main + 324
        0x080002e8:    f8df8074    ..t.    LDR      r8,[pc,#116] ; [0x8000360] = 0x8002680
        0x080002ec:    2400        .$      MOVS     r4,#0
        0x080002ee:    f1080808    ....    ADD      r8,r8,#8
        0x080002f2:    eb080104    ....    ADD      r1,r8,r4
        0x080002f6:    4632        2F      MOV      r2,r6
        0x080002f8:    f1046000    ...`    ADD      r0,r4,#0x8000000
        0x080002fc:    f000fd4e    ..N.    BL       target_flash_program_page ; 0x8000d9c
        0x08000300:    f5046480    ...d    ADD      r4,r4,#0x400
        0x08000304:    42bc        .B      CMP      r4,r7
        0x08000306:    d3f4        ..      BCC      0x80002f2 ; main + 382
        0x08000308:    2400        .$      MOVS     r4,#0
        0x0800030a:    4632        2F      MOV      r2,r6
        0x0800030c:    491b        .I      LDR      r1,[pc,#108] ; [0x800037c] = 0x2000003c
        0x0800030e:    f1046000    ...`    ADD      r0,r4,#0x8000000
        0x08000312:    f000f963    ..c.    BL       swd_read_memory ; 0x80005dc
        0x08000316:    2104        .!      MOVS     r1,#4
        0x08000318:    4628        (F      MOV      r0,r5
        0x0800031a:    f001fe1e    ....    BL       GPIO_ResetBits ; 0x8001f5a
        0x0800031e:    2014        .       MOVS     r0,#0x14
        0x08000320:    f7fffeee    ....    BL       delay ; 0x8000100
        0x08000324:    2104        .!      MOVS     r1,#4
        0x08000326:    4628        (F      MOV      r0,r5
        0x08000328:    f001fe15    ....    BL       GPIO_SetBits ; 0x8001f56
        0x0800032c:    2014        .       MOVS     r0,#0x14
        0x0800032e:    f7fffee7    ....    BL       delay ; 0x8000100
        0x08000332:    f5046480    ...d    ADD      r4,r4,#0x400
        0x08000336:    42bc        .B      CMP      r4,r7
        0x08000338:    d3e7        ..      BCC      0x800030a ; main + 406
        0x0800033a:    2006        .       MOVS     r0,#6
        0x0800033c:    f000fab3    ....    BL       swd_set_target_state_hw ; 0x80008a6
        0x08000340:    e7fe        ..      B        0x8000340 ; main + 460
    fputc
        0x08000342:    b570        p.      PUSH     {r4-r6,lr}
        0x08000344:    4d08        .M      LDR      r5,[pc,#32] ; [0x8000368] = 0x40004400
        0x08000346:    4604        .F      MOV      r4,r0
        0x08000348:    2180        .!      MOVS     r1,#0x80
        0x0800034a:    4628        (F      MOV      r0,r5
        0x0800034c:    f002f92a    ..*.    BL       USART_GetFlagStatus ; 0x80025a4
        0x08000350:    2800        .(      CMP      r0,#0
        0x08000352:    d0f9        ..      BEQ      0x8000348 ; fputc + 6
        0x08000354:    b2a1        ..      UXTH     r1,r4
        0x08000356:    4628        (F      MOV      r0,r5
        0x08000358:    f002f8c3    ....    BL       USART_SendData ; 0x80024e2
        0x0800035c:    4620         F      MOV      r0,r4
        0x0800035e:    bd70        p.      POP      {r4-r6,pc}
    $d
        0x08000360:    08002680    .&..    DCD    134227584
        0x08000364:    40010800    ...@    DCD    1073809408
        0x08000368:    40004400    .D.@    DCD    1073759232
        0x0800036c:    00300200    ..0.    DCD    3146240
        0x08000370:    40011000    ...@    DCD    1073811456
        0x08000374:    40010c00    ...@    DCD    1073810432
        0x08000378:    20000004    ...     DCD    536870916
        0x0800037c:    2000003c    <..     DCD    536870972
    $t
    .text
    delaymS
        0x08000380:    49fa        .I      LDR      r1,[pc,#1000] ; [0x800076c] = 0x20000014
        0x08000382:    f44f627a    O.zb    MOV      r2,#0xfa0
        0x08000386:    6809        .h      LDR      r1,[r1,#0]
        0x08000388:    fbb1f1f2    ....    UDIV     r1,r1,r2
        0x0800038c:    4341        AC      MULS     r1,r0,r1
        0x0800038e:    2000        .       MOVS     r0,#0
        0x08000390:    e001        ..      B        0x8000396 ; delaymS + 22
        0x08000392:    bf00        ..      NOP      
        0x08000394:    1c40        @.      ADDS     r0,r0,#1
        0x08000396:    4288        .B      CMP      r0,r1
        0x08000398:    d3fb        ..      BCC      0x8000392 ; delaymS + 18
        0x0800039a:    4770        pG      BX       lr
    swd_init
        0x0800039c:    b508        ..      PUSH     {r3,lr}
        0x0800039e:    f001f926    ..&.    BL       DAP_Setup ; 0x80015ee
        0x080003a2:    49f3        .I      LDR      r1,[pc,#972] ; [0x8000770] = 0x40010c10
        0x080003a4:    f44f40c0    O..@    MOV      r0,#0x6000
        0x080003a8:    6008        .`      STR      r0,[r1,#0]
        0x080003aa:    f8ad0000    ....    STRH     r0,[sp,#0]
        0x080003ae:    2010        .       MOVS     r0,#0x10
        0x080003b0:    f88d0003    ....    STRB     r0,[sp,#3]
        0x080003b4:    2003        .       MOVS     r0,#3
        0x080003b6:    f88d0002    ....    STRB     r0,[sp,#2]
        0x080003ba:    48ed        .H      LDR      r0,[pc,#948] ; [0x8000770] = 0x40010c10
        0x080003bc:    4669        iF      MOV      r1,sp
        0x080003be:    3810        .8      SUBS     r0,r0,#0x10
        0x080003c0:    f001fd5f    .._.    BL       GPIO_Init ; 0x8001e82
        0x080003c4:    2001        .       MOVS     r0,#1
        0x080003c6:    bd08        ..      POP      {r3,pc}
    swd_off
        0x080003c8:    b508        ..      PUSH     {r3,lr}
        0x080003ca:    f44f40c0    O..@    MOV      r0,#0x6000
        0x080003ce:    f8ad0000    ....    STRH     r0,[sp,#0]
        0x080003d2:    2004        .       MOVS     r0,#4
        0x080003d4:    f88d0003    ....    STRB     r0,[sp,#3]
        0x080003d8:    48e5        .H      LDR      r0,[pc,#916] ; [0x8000770] = 0x40010c10
        0x080003da:    4669        iF      MOV      r1,sp
        0x080003dc:    3810        .8      SUBS     r0,r0,#0x10
        0x080003de:    f001fd50    ..P.    BL       GPIO_Init ; 0x8001e82
        0x080003e2:    2001        .       MOVS     r0,#1
        0x080003e4:    bd08        ..      POP      {r3,pc}
    swd_read_dp
        0x080003e6:    b538        8.      PUSH     {r3-r5,lr}
        0x080003e8:    460c        .F      MOV      r4,r1
        0x080003ea:    f000000c    ....    AND      r0,r0,#0xc
        0x080003ee:    4669        iF      MOV      r1,sp
        0x080003f0:    1c80        ..      ADDS     r0,r0,#2
        0x080003f2:    f000fba5    ....    BL       swd_transfer_retry ; 0x8000b40
        0x080003f6:    2200        ."      MOVS     r2,#0
        0x080003f8:    6022        "`      STR      r2,[r4,#0]
        0x080003fa:    f89d1003    ....    LDRB     r1,[sp,#3]
        0x080003fe:    ea426101    B..a    ORR      r1,r2,r1,LSL #24
        0x08000402:    6021        !`      STR      r1,[r4,#0]
        0x08000404:    f89d2002    ...     LDRB     r2,[sp,#2]
        0x08000408:    ea414102    A..A    ORR      r1,r1,r2,LSL #16
        0x0800040c:    6021        !`      STR      r1,[r4,#0]
        0x0800040e:    f89d2001    ...     LDRB     r2,[sp,#1]
        0x08000412:    ea412102    A..!    ORR      r1,r1,r2,LSL #8
        0x08000416:    6021        !`      STR      r1,[r4,#0]
        0x08000418:    f89d2000    ...     LDRB     r2,[sp,#0]
        0x0800041c:    4311        .C      ORRS     r1,r1,r2
        0x0800041e:    6021        !`      STR      r1,[r4,#0]
        0x08000420:    2801        .(      CMP      r0,#1
        0x08000422:    d000        ..      BEQ      0x8000426 ; swd_read_dp + 64
        0x08000424:    2000        .       MOVS     r0,#0
        0x08000426:    bd38        8.      POP      {r3-r5,pc}
    swd_write_dp
        0x08000428:    b538        8.      PUSH     {r3-r5,lr}
        0x0800042a:    2808        .(      CMP      r0,#8
        0x0800042c:    d106        ..      BNE      0x800043c ; swd_write_dp + 20
        0x0800042e:    4ad1        .J      LDR      r2,[pc,#836] ; [0x8000774] = 0x20000008
        0x08000430:    6813        .h      LDR      r3,[r2,#0]
        0x08000432:    428b        .B      CMP      r3,r1
        0x08000434:    d101        ..      BNE      0x800043a ; swd_write_dp + 18
        0x08000436:    2001        .       MOVS     r0,#1
        0x08000438:    bd38        8.      POP      {r3-r5,pc}
        0x0800043a:    6011        .`      STR      r1,[r2,#0]
        0x0800043c:    f000040c    ....    AND      r4,r0,#0xc
        0x08000440:    2204        ."      MOVS     r2,#4
        0x08000442:    4668        hF      MOV      r0,sp
        0x08000444:    f000fb70    ..p.    BL       int2array ; 0x8000b28
        0x08000448:    4669        iF      MOV      r1,sp
        0x0800044a:    4620         F      MOV      r0,r4
        0x0800044c:    f000fb78    ..x.    BL       swd_transfer_retry ; 0x8000b40
        0x08000450:    2801        .(      CMP      r0,#1
        0x08000452:    d0f1        ..      BEQ      0x8000438 ; swd_write_dp + 16
        0x08000454:    2000        .       MOVS     r0,#0
        0x08000456:    bd38        8.      POP      {r3-r5,pc}
    swd_read_ap
        0x08000458:    b538        8.      PUSH     {r3-r5,lr}
        0x0800045a:    460c        .F      MOV      r4,r1
        0x0800045c:    4605        .F      MOV      r5,r0
        0x0800045e:    f000417f    ...A    AND      r1,r0,#0xff000000
        0x08000462:    f00000f0    ....    AND      r0,r0,#0xf0
        0x08000466:    4301        .C      ORRS     r1,r1,r0
        0x08000468:    2008        .       MOVS     r0,#8
        0x0800046a:    f7ffffdd    ....    BL       swd_write_dp ; 0x8000428
        0x0800046e:    2800        .(      CMP      r0,#0
        0x08000470:    d022        ".      BEQ      0x80004b8 ; swd_read_ap + 96
        0x08000472:    f005050c    ....    AND      r5,r5,#0xc
        0x08000476:    1ced        ..      ADDS     r5,r5,#3
        0x08000478:    4669        iF      MOV      r1,sp
        0x0800047a:    4628        (F      MOV      r0,r5
        0x0800047c:    f000fb60    ..`.    BL       swd_transfer_retry ; 0x8000b40
        0x08000480:    4669        iF      MOV      r1,sp
        0x08000482:    4628        (F      MOV      r0,r5
        0x08000484:    f000fb5c    ..\.    BL       swd_transfer_retry ; 0x8000b40
        0x08000488:    2200        ."      MOVS     r2,#0
        0x0800048a:    6022        "`      STR      r2,[r4,#0]
        0x0800048c:    f89d1003    ....    LDRB     r1,[sp,#3]
        0x08000490:    ea426101    B..a    ORR      r1,r2,r1,LSL #24
        0x08000494:    6021        !`      STR      r1,[r4,#0]
        0x08000496:    f89d2002    ...     LDRB     r2,[sp,#2]
        0x0800049a:    ea414102    A..A    ORR      r1,r1,r2,LSL #16
        0x0800049e:    6021        !`      STR      r1,[r4,#0]
        0x080004a0:    f89d2001    ...     LDRB     r2,[sp,#1]
        0x080004a4:    ea412102    A..!    ORR      r1,r1,r2,LSL #8
        0x080004a8:    6021        !`      STR      r1,[r4,#0]
        0x080004aa:    f89d2000    ...     LDRB     r2,[sp,#0]
        0x080004ae:    4311        .C      ORRS     r1,r1,r2
        0x080004b0:    6021        !`      STR      r1,[r4,#0]
        0x080004b2:    2801        .(      CMP      r0,#1
        0x080004b4:    d000        ..      BEQ      0x80004b8 ; swd_read_ap + 96
        0x080004b6:    2000        .       MOVS     r0,#0
        0x080004b8:    bd38        8.      POP      {r3-r5,pc}
    swd_write_ap
        0x080004ba:    b538        8.      PUSH     {r3-r5,lr}
        0x080004bc:    460d        .F      MOV      r5,r1
        0x080004be:    4604        .F      MOV      r4,r0
        0x080004c0:    f000417f    ...A    AND      r1,r0,#0xff000000
        0x080004c4:    f00000f0    ....    AND      r0,r0,#0xf0
        0x080004c8:    4301        .C      ORRS     r1,r1,r0
        0x080004ca:    2008        .       MOVS     r0,#8
        0x080004cc:    f7ffffac    ....    BL       swd_write_dp ; 0x8000428
        0x080004d0:    2800        .(      CMP      r0,#0
        0x080004d2:    d005        ..      BEQ      0x80004e0 ; swd_write_ap + 38
        0x080004d4:    b934        4.      CBNZ     r4,0x80004e4 ; swd_write_ap + 42
        0x080004d6:    48a7        .H      LDR      r0,[pc,#668] ; [0x8000774] = 0x20000008
        0x080004d8:    6841        Ah      LDR      r1,[r0,#4]
        0x080004da:    42a9        .B      CMP      r1,r5
        0x080004dc:    d101        ..      BNE      0x80004e2 ; swd_write_ap + 40
        0x080004de:    2001        .       MOVS     r0,#1
        0x080004e0:    bd38        8.      POP      {r3-r5,pc}
        0x080004e2:    6045        E`      STR      r5,[r0,#4]
        0x080004e4:    f004040c    ....    AND      r4,r4,#0xc
        0x080004e8:    2204        ."      MOVS     r2,#4
        0x080004ea:    4629        )F      MOV      r1,r5
        0x080004ec:    4668        hF      MOV      r0,sp
        0x080004ee:    1c64        d.      ADDS     r4,r4,#1
        0x080004f0:    f000fb1a    ....    BL       int2array ; 0x8000b28
        0x080004f4:    4669        iF      MOV      r1,sp
        0x080004f6:    4620         F      MOV      r0,r4
        0x080004f8:    f000fb22    ..".    BL       swd_transfer_retry ; 0x8000b40
        0x080004fc:    2801        .(      CMP      r0,#1
        0x080004fe:    d105        ..      BNE      0x800050c ; swd_write_ap + 82
        0x08000500:    200e        .       MOVS     r0,#0xe
        0x08000502:    2100        .!      MOVS     r1,#0
        0x08000504:    f000fb1c    ....    BL       swd_transfer_retry ; 0x8000b40
        0x08000508:    2801        .(      CMP      r0,#1
        0x0800050a:    d0e9        ..      BEQ      0x80004e0 ; swd_write_ap + 38
        0x0800050c:    2000        .       MOVS     r0,#0
        0x0800050e:    bd38        8.      POP      {r3-r5,pc}
    swd_read_data
        0x08000510:    b51c        ..      PUSH     {r2-r4,lr}
        0x08000512:    460c        .F      MOV      r4,r1
        0x08000514:    4601        .F      MOV      r1,r0
        0x08000516:    2204        ."      MOVS     r2,#4
        0x08000518:    a801        ..      ADD      r0,sp,#4
        0x0800051a:    f000fb05    ....    BL       int2array ; 0x8000b28
        0x0800051e:    2005        .       MOVS     r0,#5
        0x08000520:    a901        ..      ADD      r1,sp,#4
        0x08000522:    f000fb0d    ....    BL       swd_transfer_retry ; 0x8000b40
        0x08000526:    2801        .(      CMP      r0,#1
        0x08000528:    d120         .      BNE      0x800056c ; swd_read_data + 92
        0x0800052a:    200f        .       MOVS     r0,#0xf
        0x0800052c:    4669        iF      MOV      r1,sp
        0x0800052e:    f000fb07    ....    BL       swd_transfer_retry ; 0x8000b40
        0x08000532:    2801        .(      CMP      r0,#1
        0x08000534:    d11a        ..      BNE      0x800056c ; swd_read_data + 92
        0x08000536:    200e        .       MOVS     r0,#0xe
        0x08000538:    4669        iF      MOV      r1,sp
        0x0800053a:    f000fb01    ....    BL       swd_transfer_retry ; 0x8000b40
        0x0800053e:    2200        ."      MOVS     r2,#0
        0x08000540:    6022        "`      STR      r2,[r4,#0]
        0x08000542:    f89d1003    ....    LDRB     r1,[sp,#3]
        0x08000546:    ea426101    B..a    ORR      r1,r2,r1,LSL #24
        0x0800054a:    6021        !`      STR      r1,[r4,#0]
        0x0800054c:    f89d2002    ...     LDRB     r2,[sp,#2]
        0x08000550:    ea414102    A..A    ORR      r1,r1,r2,LSL #16
        0x08000554:    6021        !`      STR      r1,[r4,#0]
        0x08000556:    f89d2001    ...     LDRB     r2,[sp,#1]
        0x0800055a:    ea412102    A..!    ORR      r1,r1,r2,LSL #8
        0x0800055e:    6021        !`      STR      r1,[r4,#0]
        0x08000560:    f89d2000    ...     LDRB     r2,[sp,#0]
        0x08000564:    4311        .C      ORRS     r1,r1,r2
        0x08000566:    6021        !`      STR      r1,[r4,#0]
        0x08000568:    2801        .(      CMP      r0,#1
        0x0800056a:    d000        ..      BEQ      0x800056e ; swd_read_data + 94
        0x0800056c:    2000        .       MOVS     r0,#0
        0x0800056e:    bd1c        ..      POP      {r2-r4,pc}
    swd_write_data
        0x08000570:    b538        8.      PUSH     {r3-r5,lr}
        0x08000572:    460c        .F      MOV      r4,r1
        0x08000574:    4601        .F      MOV      r1,r0
        0x08000576:    2204        ."      MOVS     r2,#4
        0x08000578:    4668        hF      MOV      r0,sp
        0x0800057a:    f000fad5    ....    BL       int2array ; 0x8000b28
        0x0800057e:    2005        .       MOVS     r0,#5
        0x08000580:    4669        iF      MOV      r1,sp
        0x08000582:    f000fadd    ....    BL       swd_transfer_retry ; 0x8000b40
        0x08000586:    2801        .(      CMP      r0,#1
        0x08000588:    d110        ..      BNE      0x80005ac ; swd_write_data + 60
        0x0800058a:    2204        ."      MOVS     r2,#4
        0x0800058c:    4621        !F      MOV      r1,r4
        0x0800058e:    4668        hF      MOV      r0,sp
        0x08000590:    f000faca    ....    BL       int2array ; 0x8000b28
        0x08000594:    200d        .       MOVS     r0,#0xd
        0x08000596:    4669        iF      MOV      r1,sp
        0x08000598:    f000fad2    ....    BL       swd_transfer_retry ; 0x8000b40
        0x0800059c:    2801        .(      CMP      r0,#1
        0x0800059e:    d105        ..      BNE      0x80005ac ; swd_write_data + 60
        0x080005a0:    200e        .       MOVS     r0,#0xe
        0x080005a2:    2100        .!      MOVS     r1,#0
        0x080005a4:    f000facc    ....    BL       swd_transfer_retry ; 0x8000b40
        0x080005a8:    2801        .(      CMP      r0,#1
        0x080005aa:    d000        ..      BEQ      0x80005ae ; swd_write_data + 62
        0x080005ac:    2000        .       MOVS     r0,#0
        0x080005ae:    bd38        8.      POP      {r3-r5,pc}
    swd_read_byte
        0x080005b0:    b538        8.      PUSH     {r3-r5,lr}
        0x080005b2:    460d        .F      MOV      r5,r1
        0x080005b4:    4604        .F      MOV      r4,r0
        0x080005b6:    4970        pI      LDR      r1,[pc,#448] ; [0x8000778] = 0x23000050
        0x080005b8:    2000        .       MOVS     r0,#0
        0x080005ba:    f7ffff7e    ..~.    BL       swd_write_ap ; 0x80004ba
        0x080005be:    2800        .(      CMP      r0,#0
        0x080005c0:    d00b        ..      BEQ      0x80005da ; swd_read_byte + 42
        0x080005c2:    4669        iF      MOV      r1,sp
        0x080005c4:    4620         F      MOV      r0,r4
        0x080005c6:    f7ffffa3    ....    BL       swd_read_data ; 0x8000510
        0x080005ca:    2800        .(      CMP      r0,#0
        0x080005cc:    d005        ..      BEQ      0x80005da ; swd_read_byte + 42
        0x080005ce:    07a0        ..      LSLS     r0,r4,#30
        0x080005d0:    0ec1        ..      LSRS     r1,r0,#27
        0x080005d2:    9800        ..      LDR      r0,[sp,#0]
        0x080005d4:    40c8        .@      LSRS     r0,r0,r1
        0x080005d6:    7028        (p      STRB     r0,[r5,#0]
        0x080005d8:    2001        .       MOVS     r0,#1
        0x080005da:    bd38        8.      POP      {r3-r5,pc}
    swd_read_memory
        0x080005dc:    e92d41f0    -..A    PUSH     {r4-r8,lr}
        0x080005e0:    4614        .F      MOV      r4,r2
        0x080005e2:    460f        .F      MOV      r7,r1
        0x080005e4:    4605        .F      MOV      r5,r0
        0x080005e6:    e008        ..      B        0x80005fa ; swd_read_memory + 30
        0x080005e8:    4639        9F      MOV      r1,r7
        0x080005ea:    4628        (F      MOV      r0,r5
        0x080005ec:    f7ffffe0    ....    BL       swd_read_byte ; 0x80005b0
        0x080005f0:    2800        .(      CMP      r0,#0
        0x080005f2:    d029        ).      BEQ      0x8000648 ; swd_read_memory + 108
        0x080005f4:    1e64        d.      SUBS     r4,r4,#1
        0x080005f6:    1c6d        m.      ADDS     r5,r5,#1
        0x080005f8:    1c7f        ..      ADDS     r7,r7,#1
        0x080005fa:    b324        $.      CBZ      r4,0x8000646 ; swd_read_memory + 106
        0x080005fc:    07a8        ..      LSLS     r0,r5,#30
        0x080005fe:    d1f3        ..      BNE      0x80005e8 ; swd_read_memory + 12
        0x08000600:    f8df8178    ..x.    LDR      r8,[pc,#376] ; [0x800077c] = 0x20000000
        0x08000604:    2c03        .,      CMP      r4,#3
        0x08000606:    d91c        ..      BLS      0x8000642 ; swd_read_memory + 102
        0x08000608:    f8d80000    ....    LDR      r0,[r8,#0]
        0x0800060c:    1e41        A.      SUBS     r1,r0,#1
        0x0800060e:    4029        )@      ANDS     r1,r1,r5
        0x08000610:    1a46        F.      SUBS     r6,r0,r1
        0x08000612:    42b4        .B      CMP      r4,r6
        0x08000614:    d201        ..      BCS      0x800061a ; swd_read_memory + 62
        0x08000616:    f0240603    $...    BIC      r6,r4,#3
        0x0800061a:    4632        2F      MOV      r2,r6
        0x0800061c:    4639        9F      MOV      r1,r7
        0x0800061e:    4628        (F      MOV      r0,r5
        0x08000620:    f000fad6    ....    BL       swd_read_block ; 0x8000bd0
        0x08000624:    2800        .(      CMP      r0,#0
        0x08000626:    d00f        ..      BEQ      0x8000648 ; swd_read_memory + 108
        0x08000628:    4435        5D      ADD      r5,r5,r6
        0x0800062a:    4437        7D      ADD      r7,r7,r6
        0x0800062c:    1ba4        ..      SUBS     r4,r4,r6
        0x0800062e:    e7e9        ..      B        0x8000604 ; swd_read_memory + 40
        0x08000630:    4639        9F      MOV      r1,r7
        0x08000632:    4628        (F      MOV      r0,r5
        0x08000634:    f7ffffbc    ....    BL       swd_read_byte ; 0x80005b0
        0x08000638:    2800        .(      CMP      r0,#0
        0x0800063a:    d005        ..      BEQ      0x8000648 ; swd_read_memory + 108
        0x0800063c:    1e64        d.      SUBS     r4,r4,#1
        0x0800063e:    1c6d        m.      ADDS     r5,r5,#1
        0x08000640:    1c7f        ..      ADDS     r7,r7,#1
        0x08000642:    2c00        .,      CMP      r4,#0
        0x08000644:    d1f4        ..      BNE      0x8000630 ; swd_read_memory + 84
        0x08000646:    2001        .       MOVS     r0,#1
        0x08000648:    e8bd81f0    ....    POP      {r4-r8,pc}
    swd_write_memory
        0x0800064c:    e92d41f0    -..A    PUSH     {r4-r8,lr}
        0x08000650:    4614        .F      MOV      r4,r2
        0x08000652:    460e        .F      MOV      r6,r1
        0x08000654:    4605        .F      MOV      r5,r0
        0x08000656:    e008        ..      B        0x800066a ; swd_write_memory + 30
        0x08000658:    7831        1x      LDRB     r1,[r6,#0]
        0x0800065a:    4628        (F      MOV      r0,r5
        0x0800065c:    f000fb0d    ....    BL       swd_write_byte ; 0x8000c7a
        0x08000660:    2800        .(      CMP      r0,#0
        0x08000662:    d0f1        ..      BEQ      0x8000648 ; swd_read_memory + 108
        0x08000664:    1e64        d.      SUBS     r4,r4,#1
        0x08000666:    1c6d        m.      ADDS     r5,r5,#1
        0x08000668:    1c76        v.      ADDS     r6,r6,#1
        0x0800066a:    b324        $.      CBZ      r4,0x80006b6 ; swd_write_memory + 106
        0x0800066c:    07a8        ..      LSLS     r0,r5,#30
        0x0800066e:    d1f3        ..      BNE      0x8000658 ; swd_write_memory + 12
        0x08000670:    f8df8108    ....    LDR      r8,[pc,#264] ; [0x800077c] = 0x20000000
        0x08000674:    2c03        .,      CMP      r4,#3
        0x08000676:    d91c        ..      BLS      0x80006b2 ; swd_write_memory + 102
        0x08000678:    f8d80000    ....    LDR      r0,[r8,#0]
        0x0800067c:    1e41        A.      SUBS     r1,r0,#1
        0x0800067e:    4029        )@      ANDS     r1,r1,r5
        0x08000680:    1a47        G.      SUBS     r7,r0,r1
        0x08000682:    42bc        .B      CMP      r4,r7
        0x08000684:    d201        ..      BCS      0x800068a ; swd_write_memory + 62
        0x08000686:    f0240703    $...    BIC      r7,r4,#3
        0x0800068a:    463a        :F      MOV      r2,r7
        0x0800068c:    4631        1F      MOV      r1,r6
        0x0800068e:    4628        (F      MOV      r0,r5
        0x08000690:    f000fa65    ..e.    BL       swd_write_block ; 0x8000b5e
        0x08000694:    2800        .(      CMP      r0,#0
        0x08000696:    d0d7        ..      BEQ      0x8000648 ; swd_read_memory + 108
        0x08000698:    443d        =D      ADD      r5,r5,r7
        0x0800069a:    443e        >D      ADD      r6,r6,r7
        0x0800069c:    1be4        ..      SUBS     r4,r4,r7
        0x0800069e:    e7e9        ..      B        0x8000674 ; swd_write_memory + 40
        0x080006a0:    7831        1x      LDRB     r1,[r6,#0]
        0x080006a2:    4628        (F      MOV      r0,r5
        0x080006a4:    f000fae9    ....    BL       swd_write_byte ; 0x8000c7a
        0x080006a8:    2800        .(      CMP      r0,#0
        0x080006aa:    d0cd        ..      BEQ      0x8000648 ; swd_read_memory + 108
        0x080006ac:    1e64        d.      SUBS     r4,r4,#1
        0x080006ae:    1c6d        m.      ADDS     r5,r5,#1
        0x080006b0:    1c76        v.      ADDS     r6,r6,#1
        0x080006b2:    2c00        .,      CMP      r4,#0
        0x080006b4:    d1f4        ..      BNE      0x80006a0 ; swd_write_memory + 84
        0x080006b6:    2001        .       MOVS     r0,#1
        0x080006b8:    e7c6        ..      B        0x8000648 ; swd_read_memory + 108
    swd_write_core_register
        0x080006ba:    b573        s.      PUSH     {r0,r1,r4-r6,lr}
        0x080006bc:    4606        .F      MOV      r6,r0
        0x080006be:    2400        .$      MOVS     r4,#0
        0x080006c0:    2564        d%      MOVS     r5,#0x64
        0x080006c2:    482f        /H      LDR      r0,[pc,#188] ; [0x8000780] = 0xe000edf8
        0x080006c4:    9901        ..      LDR      r1,[sp,#4]
        0x080006c6:    f000fac7    ....    BL       swd_write_word ; 0x8000c58
        0x080006ca:    2800        .(      CMP      r0,#0
        0x080006cc:    d013        ..      BEQ      0x80006f6 ; swd_write_core_register + 60
        0x080006ce:    482c        ,H      LDR      r0,[pc,#176] ; [0x8000780] = 0xe000edf8
        0x080006d0:    f4463180    F..1    ORR      r1,r6,#0x10000
        0x080006d4:    1f00        ..      SUBS     r0,r0,#4
        0x080006d6:    f000fabf    ....    BL       swd_write_word ; 0x8000c58
        0x080006da:    2800        .(      CMP      r0,#0
        0x080006dc:    d00b        ..      BEQ      0x80006f6 ; swd_write_core_register + 60
        0x080006de:    4e28        (N      LDR      r6,[pc,#160] ; [0x8000780] = 0xe000edf8
        0x080006e0:    3e08        .>      SUBS     r6,r6,#8
        0x080006e2:    a901        ..      ADD      r1,sp,#4
        0x080006e4:    4630        0F      MOV      r0,r6
        0x080006e6:    f000faa6    ....    BL       swd_read_word ; 0x8000c36
        0x080006ea:    2800        .(      CMP      r0,#0
        0x080006ec:    d003        ..      BEQ      0x80006f6 ; swd_write_core_register + 60
        0x080006ee:    9801        ..      LDR      r0,[sp,#4]
        0x080006f0:    03c0        ..      LSLS     r0,r0,#15
        0x080006f2:    d501        ..      BPL      0x80006f8 ; swd_write_core_register + 62
        0x080006f4:    2001        .       MOVS     r0,#1
        0x080006f6:    bd7c        |.      POP      {r2-r6,pc}
        0x080006f8:    1c64        d.      ADDS     r4,r4,#1
        0x080006fa:    42ac        .B      CMP      r4,r5
        0x080006fc:    dbf1        ..      BLT      0x80006e2 ; swd_write_core_register + 40
        0x080006fe:    2000        .       MOVS     r0,#0
        0x08000700:    bd7c        |.      POP      {r2-r6,pc}
    swd_flash_syscall_exec
        0x08000702:    e92d43f0    -..C    PUSH     {r4-r9,lr}
        0x08000706:    b093        ..      SUB      sp,sp,#0x4c
        0x08000708:    460f        .F      MOV      r7,r1
        0x0800070a:    e9dd891a    ....    LDRD     r8,r9,[sp,#0x68]
        0x0800070e:    4604        .F      MOV      r4,r0
        0x08000710:    461e        .F      MOV      r6,r3
        0x08000712:    4615        .F      MOV      r5,r2
        0x08000714:    2144        D!      MOVS     r1,#0x44
        0x08000716:    4668        hF      MOV      r0,sp
        0x08000718:    f001ff85    ....    BL       __aeabi_memclr ; 0x8002626
        0x0800071c:    e88d0360    ..`.    STM      sp,{r5,r6,r8,r9}
        0x08000720:    6860        `h      LDR      r0,[r4,#4]
        0x08000722:    9009        ..      STR      r0,[sp,#0x24]
        0x08000724:    68a0        .h      LDR      r0,[r4,#8]
        0x08000726:    900d        ..      STR      r0,[sp,#0x34]
        0x08000728:    6820         h      LDR      r0,[r4,#0]
        0x0800072a:    e9cd070e    ....    STRD     r0,r7,[sp,#0x38]
        0x0800072e:    f04f7080    O..p    MOV      r0,#0x1000000
        0x08000732:    9010        ..      STR      r0,[sp,#0x40]
        0x08000734:    4668        hF      MOV      r0,sp
        0x08000736:    f000fab5    ....    BL       swd_write_debug_state ; 0x8000ca4
        0x0800073a:    2800        .(      CMP      r0,#0
        0x0800073c:    d03d        =.      BEQ      0x80007ba ; swd_flash_syscall_exec + 184
        0x0800073e:    4e10        .N      LDR      r6,[pc,#64] ; [0x8000780] = 0xe000edf8
        0x08000740:    4d10        .M      LDR      r5,[pc,#64] ; [0x8000784] = 0xf4240
        0x08000742:    2400        .$      MOVS     r4,#0
        0x08000744:    3e08        .>      SUBS     r6,r6,#8
        0x08000746:    a911        ..      ADD      r1,sp,#0x44
        0x08000748:    4630        0F      MOV      r0,r6
        0x0800074a:    f000fa74    ..t.    BL       swd_read_word ; 0x8000c36
        0x0800074e:    b398        ..      CBZ      r0,0x80007b8 ; swd_flash_syscall_exec + 182
        0x08000750:    9811        ..      LDR      r0,[sp,#0x44]
        0x08000752:    0380        ..      LSLS     r0,r0,#14
        0x08000754:    d518        ..      BPL      0x8000788 ; swd_flash_syscall_exec + 134
        0x08000756:    480a        .H      LDR      r0,[pc,#40] ; [0x8000780] = 0xe000edf8
        0x08000758:    2100        .!      MOVS     r1,#0
        0x0800075a:    466f        oF      MOV      r7,sp
        0x0800075c:    460c        .F      MOV      r4,r1
        0x0800075e:    2564        d%      MOVS     r5,#0x64
        0x08000760:    1f00        ..      SUBS     r0,r0,#4
        0x08000762:    f000fa79    ..y.    BL       swd_write_word ; 0x8000c58
        0x08000766:    b338        8.      CBZ      r0,0x80007b8 ; swd_flash_syscall_exec + 182
        0x08000768:    e012        ..      B        0x8000790 ; swd_flash_syscall_exec + 142
    $d
        0x0800076a:    0000        ..      DCW    0
        0x0800076c:    20000014    ...     DCD    536870932
        0x08000770:    40010c10    ...@    DCD    1073810448
        0x08000774:    20000008    ...     DCD    536870920
        0x08000778:    23000050    P..#    DCD    587202640
        0x0800077c:    20000000    ...     DCD    536870912
        0x08000780:    e000edf8    ....    DCD    3758157304
        0x08000784:    000f4240    @B..    DCD    1000000
    $t
        0x08000788:    1c64        d.      ADDS     r4,r4,#1
        0x0800078a:    42ac        .B      CMP      r4,r5
        0x0800078c:    d3db        ..      BCC      0x8000746 ; swd_flash_syscall_exec + 68
        0x0800078e:    e013        ..      B        0x80007b8 ; swd_flash_syscall_exec + 182
        0x08000790:    4639        9F      MOV      r1,r7
        0x08000792:    4630        0F      MOV      r0,r6
        0x08000794:    f000fa4f    ..O.    BL       swd_read_word ; 0x8000c36
        0x08000798:    b170        p.      CBZ      r0,0x80007b8 ; swd_flash_syscall_exec + 182
        0x0800079a:    6838        8h      LDR      r0,[r7,#0]
        0x0800079c:    03c0        ..      LSLS     r0,r0,#15
        0x0800079e:    d402        ..      BMI      0x80007a6 ; swd_flash_syscall_exec + 164
        0x080007a0:    1c64        d.      ADDS     r4,r4,#1
        0x080007a2:    42ac        .B      CMP      r4,r5
        0x080007a4:    dbf4        ..      BLT      0x8000790 ; swd_flash_syscall_exec + 142
        0x080007a6:    42ac        .B      CMP      r4,r5
        0x080007a8:    d006        ..      BEQ      0x80007b8 ; swd_flash_syscall_exec + 182
        0x080007aa:    4639        9F      MOV      r1,r7
        0x080007ac:    48f9        .H      LDR      r0,[pc,#996] ; [0x8000b94] = 0xe000edf8
        0x080007ae:    f000fa42    ..B.    BL       swd_read_word ; 0x8000c36
        0x080007b2:    b108        ..      CBZ      r0,0x80007b8 ; swd_flash_syscall_exec + 182
        0x080007b4:    9800        ..      LDR      r0,[sp,#0]
        0x080007b6:    b118        ..      CBZ      r0,0x80007c0 ; swd_flash_syscall_exec + 190
        0x080007b8:    2000        .       MOVS     r0,#0
        0x080007ba:    b013        ..      ADD      sp,sp,#0x4c
        0x080007bc:    e8bd83f0    ....    POP      {r4-r9,pc}
        0x080007c0:    2001        .       MOVS     r0,#1
        0x080007c2:    e7fa        ..      B        0x80007ba ; swd_flash_syscall_exec + 184
    JTAG2SWD
        0x080007c4:    b51c        ..      PUSH     {r2-r4,lr}
        0x080007c6:    f000faab    ....    BL       swd_reset ; 0x8000d20
        0x080007ca:    2800        .(      CMP      r0,#0
        0x080007cc:    d01b        ..      BEQ      0x8000806 ; JTAG2SWD + 66
        0x080007ce:    209e        .       MOVS     r0,#0x9e
        0x080007d0:    f88d0000    ....    STRB     r0,[sp,#0]
        0x080007d4:    20e7        .       MOVS     r0,#0xe7
        0x080007d6:    f88d0001    ....    STRB     r0,[sp,#1]
        0x080007da:    4669        iF      MOV      r1,sp
        0x080007dc:    2010        .       MOVS     r0,#0x10
        0x080007de:    f000ff3b    ..;.    BL       SWJ_Sequence ; 0x8001658
        0x080007e2:    f000fa9d    ....    BL       swd_reset ; 0x8000d20
        0x080007e6:    2800        .(      CMP      r0,#0
        0x080007e8:    d00d        ..      BEQ      0x8000806 ; JTAG2SWD + 66
        0x080007ea:    2000        .       MOVS     r0,#0
        0x080007ec:    f88d0000    ....    STRB     r0,[sp,#0]
        0x080007f0:    4669        iF      MOV      r1,sp
        0x080007f2:    2008        .       MOVS     r0,#8
        0x080007f4:    f000ff30    ..0.    BL       SWJ_Sequence ; 0x8001658
        0x080007f8:    a901        ..      ADD      r1,sp,#4
        0x080007fa:    2000        .       MOVS     r0,#0
        0x080007fc:    f7fffdf3    ....    BL       swd_read_dp ; 0x80003e6
        0x08000800:    2801        .(      CMP      r0,#1
        0x08000802:    d000        ..      BEQ      0x8000806 ; JTAG2SWD + 66
        0x08000804:    2000        .       MOVS     r0,#0
        0x08000806:    bd1c        ..      POP      {r2-r4,pc}
    swd_init_debug
        0x08000808:    b5f8        ..      PUSH     {r3-r7,lr}
        0x0800080a:    2000        .       MOVS     r0,#0
        0x0800080c:    49e2        .I      LDR      r1,[pc,#904] ; [0x8000b98] = 0x20000008
        0x0800080e:    4604        .F      MOV      r4,r0
        0x08000810:    9000        ..      STR      r0,[sp,#0]
        0x08000812:    1e40        @.      SUBS     r0,r0,#1
        0x08000814:    6008        .`      STR      r0,[r1,#0]
        0x08000816:    2564        d%      MOVS     r5,#0x64
        0x08000818:    6048        H`      STR      r0,[r1,#4]
        0x0800081a:    f7fffdbf    ....    BL       swd_init ; 0x800039c
        0x0800081e:    f7ffffd1    ....    BL       JTAG2SWD ; 0x80007c4
        0x08000822:    2800        .(      CMP      r0,#0
        0x08000824:    d024        $.      BEQ      0x8000870 ; swd_init_debug + 104
        0x08000826:    211e        .!      MOVS     r1,#0x1e
        0x08000828:    2000        .       MOVS     r0,#0
        0x0800082a:    f7fffdfd    ....    BL       swd_write_dp ; 0x8000428
        0x0800082e:    2800        .(      CMP      r0,#0
        0x08000830:    d01e        ..      BEQ      0x8000870 ; swd_init_debug + 104
        0x08000832:    2100        .!      MOVS     r1,#0
        0x08000834:    2008        .       MOVS     r0,#8
        0x08000836:    f7fffdf7    ....    BL       swd_write_dp ; 0x8000428
        0x0800083a:    2800        .(      CMP      r0,#0
        0x0800083c:    d018        ..      BEQ      0x8000870 ; swd_init_debug + 104
        0x0800083e:    f04f41a0    O..A    MOV      r1,#0x50000000
        0x08000842:    2004        .       MOVS     r0,#4
        0x08000844:    f7fffdf0    ....    BL       swd_write_dp ; 0x8000428
        0x08000848:    2800        .(      CMP      r0,#0
        0x0800084a:    d011        ..      BEQ      0x8000870 ; swd_init_debug + 104
        0x0800084c:    f04f4620    O. F    MOV      r6,#0xa0000000
        0x08000850:    4669        iF      MOV      r1,sp
        0x08000852:    2004        .       MOVS     r0,#4
        0x08000854:    f7fffdc7    ....    BL       swd_read_dp ; 0x80003e6
        0x08000858:    2800        .(      CMP      r0,#0
        0x0800085a:    d009        ..      BEQ      0x8000870 ; swd_init_debug + 104
        0x0800085c:    9800        ..      LDR      r0,[sp,#0]
        0x0800085e:    ea360000    6...    BICS     r0,r6,r0
        0x08000862:    d002        ..      BEQ      0x800086a ; swd_init_debug + 98
        0x08000864:    1c64        d.      ADDS     r4,r4,#1
        0x08000866:    42ac        .B      CMP      r4,r5
        0x08000868:    dbf2        ..      BLT      0x8000850 ; swd_init_debug + 72
        0x0800086a:    42ac        .B      CMP      r4,r5
        0x0800086c:    d101        ..      BNE      0x8000872 ; swd_init_debug + 106
        0x0800086e:    2000        .       MOVS     r0,#0
        0x08000870:    bdf8        ..      POP      {r3-r7,pc}
        0x08000872:    49ca        .I      LDR      r1,[pc,#808] ; [0x8000b9c] = 0x50000f00
        0x08000874:    2004        .       MOVS     r0,#4
        0x08000876:    f7fffdd7    ....    BL       swd_write_dp ; 0x8000428
        0x0800087a:    2800        .(      CMP      r0,#0
        0x0800087c:    d0f8        ..      BEQ      0x8000870 ; swd_init_debug + 104
        0x0800087e:    2100        .!      MOVS     r1,#0
        0x08000880:    2008        .       MOVS     r0,#8
        0x08000882:    f7fffdd1    ....    BL       swd_write_dp ; 0x8000428
        0x08000886:    2800        .(      CMP      r0,#0
        0x08000888:    d0f2        ..      BEQ      0x8000870 ; swd_init_debug + 104
        0x0800088a:    2001        .       MOVS     r0,#1
        0x0800088c:    bdf8        ..      POP      {r3-r7,pc}
    swd_set_target_reset
        0x0800088e:    2800        .(      CMP      r0,#0
        0x08000890:    d108        ..      BNE      0x80008a4 ; swd_set_target_reset + 22
        0x08000892:    48c0        .H      LDR      r0,[pc,#768] ; [0x8000b94] = 0xe000edf8
        0x08000894:    38ec        .8      SUBS     r0,r0,#0xec
        0x08000896:    6801        .h      LDR      r1,[r0,#0]
        0x08000898:    4ac1        .J      LDR      r2,[pc,#772] ; [0x8000ba0] = 0x5fa0004
        0x0800089a:    f40161e0    ...a    AND      r1,r1,#0x700
        0x0800089e:    4311        .C      ORRS     r1,r1,r2
        0x080008a0:    f000b9da    ....    B.W      swd_write_word ; 0x8000c58
        0x080008a4:    4770        pG      BX       lr
    swd_set_target_state_hw
        0x080008a6:    b5f8        ..      PUSH     {r3-r7,lr}
        0x080008a8:    2402        .$      MOVS     r4,#2
        0x080008aa:    4605        .F      MOV      r5,r0
        0x080008ac:    2806        .(      CMP      r0,#6
        0x080008ae:    d001        ..      BEQ      0x80008b4 ; swd_set_target_state_hw + 14
        0x080008b0:    f7fffd74    ..t.    BL       swd_init ; 0x800039c
        0x080008b4:    462a        *F      MOV      r2,r5
        0x080008b6:    49bb        .I      LDR      r1,[pc,#748] ; [0x8000ba4] = 0xa05f0000
        0x080008b8:    4db6        .M      LDR      r5,[pc,#728] ; [0x8000b94] = 0xe000edf8
        0x080008ba:    1c4e        N.      ADDS     r6,r1,#1
        0x080008bc:    3d08        .=      SUBS     r5,r5,#8
        0x080008be:    2a07        .*      CMP      r2,#7
        0x080008c0:    d272        r.      BCS      0x80009a8 ; swd_set_target_state_hw + 258
        0x080008c2:    e8dff002    ....    TBB      [pc,r2]
    $d
        0x080008c6:    1704        ..      DCW    5892
        0x080008c8:    72585608    .VXr    DCD    1918391816
        0x080008cc:    0088        ..      DCW    136
    $t
        0x080008ce:    2001        .       MOVS     r0,#1
        0x080008d0:    f7ffffdd    ....    BL       swd_set_target_reset ; 0x800088e
        0x080008d4:    e07d        }.      B        0x80009d2 ; swd_set_target_state_hw + 300
        0x080008d6:    2001        .       MOVS     r0,#1
        0x080008d8:    f7ffffd9    ....    BL       swd_set_target_reset ; 0x800088e
        0x080008dc:    2014        .       MOVS     r0,#0x14
        0x080008de:    f7fffd4f    ..O.    BL       delaymS ; 0x8000380
        0x080008e2:    2000        .       MOVS     r0,#0
        0x080008e4:    f7ffffd3    ....    BL       swd_set_target_reset ; 0x800088e
        0x080008e8:    2014        .       MOVS     r0,#0x14
        0x080008ea:    f7fffd49    ..I.    BL       delaymS ; 0x8000380
        0x080008ee:    f7fffd6b    ..k.    BL       swd_off ; 0x80003c8
        0x080008f2:    e06e        n.      B        0x80009d2 ; swd_set_target_state_hw + 300
        0x080008f4:    f7ffff88    ....    BL       swd_init_debug ; 0x8000808
        0x080008f8:    2800        .(      CMP      r0,#0
        0x080008fa:    d06b        k.      BEQ      0x80009d4 ; swd_set_target_state_hw + 302
        0x080008fc:    e00f        ..      B        0x800091e ; swd_set_target_state_hw + 120
        0x080008fe:    1e64        d.      SUBS     r4,r4,#1
        0x08000900:    b264        d.      SXTB     r4,r4
        0x08000902:    2c00        .,      CMP      r4,#0
        0x08000904:    dd6e        n.      BLE      0x80009e4 ; swd_set_target_state_hw + 318
        0x08000906:    2001        .       MOVS     r0,#1
        0x08000908:    f7ffffc1    ....    BL       swd_set_target_reset ; 0x800088e
        0x0800090c:    2014        .       MOVS     r0,#0x14
        0x0800090e:    f7fffd37    ..7.    BL       delaymS ; 0x8000380
        0x08000912:    2000        .       MOVS     r0,#0
        0x08000914:    f7ffffbb    ....    BL       swd_set_target_reset ; 0x800088e
        0x08000918:    2014        .       MOVS     r0,#0x14
        0x0800091a:    f7fffd31    ..1.    BL       delaymS ; 0x8000380
        0x0800091e:    4631        1F      MOV      r1,r6
        0x08000920:    4628        (F      MOV      r0,r5
        0x08000922:    f000f999    ....    BL       swd_write_word ; 0x8000c58
        0x08000926:    2800        .(      CMP      r0,#0
        0x08000928:    d0e9        ..      BEQ      0x80008fe ; swd_set_target_state_hw + 88
        0x0800092a:    4c9a        .L      LDR      r4,[pc,#616] ; [0x8000b94] = 0xe000edf8
        0x0800092c:    2101        .!      MOVS     r1,#1
        0x0800092e:    1d24        $.      ADDS     r4,r4,#4
        0x08000930:    4620         F      MOV      r0,r4
        0x08000932:    f000f991    ....    BL       swd_write_word ; 0x8000c58
        0x08000936:    2800        .(      CMP      r0,#0
        0x08000938:    d04c        L.      BEQ      0x80009d4 ; swd_set_target_state_hw + 302
        0x0800093a:    2001        .       MOVS     r0,#1
        0x0800093c:    f7ffffa7    ....    BL       swd_set_target_reset ; 0x800088e
        0x08000940:    2014        .       MOVS     r0,#0x14
        0x08000942:    f7fffd1d    ....    BL       delaymS ; 0x8000380
        0x08000946:    2000        .       MOVS     r0,#0
        0x08000948:    f7ffffa1    ....    BL       swd_set_target_reset ; 0x800088e
        0x0800094c:    2014        .       MOVS     r0,#0x14
        0x0800094e:    f7fffd17    ....    BL       delaymS ; 0x8000380
        0x08000952:    4669        iF      MOV      r1,sp
        0x08000954:    4628        (F      MOV      r0,r5
        0x08000956:    f000f96e    ..n.    BL       swd_read_word ; 0x8000c36
        0x0800095a:    2800        .(      CMP      r0,#0
        0x0800095c:    d03a        :.      BEQ      0x80009d4 ; swd_set_target_state_hw + 302
        0x0800095e:    9800        ..      LDR      r0,[sp,#0]
        0x08000960:    0380        ..      LSLS     r0,r0,#14
        0x08000962:    d5f6        ..      BPL      0x8000952 ; swd_set_target_state_hw + 172
        0x08000964:    2100        .!      MOVS     r1,#0
        0x08000966:    4620         F      MOV      r0,r4
        0x08000968:    f000f976    ..v.    BL       swd_write_word ; 0x8000c58
        0x0800096c:    2800        .(      CMP      r0,#0
        0x0800096e:    d031        1.      BEQ      0x80009d4 ; swd_set_target_state_hw + 302
        0x08000970:    e02f        /.      B        0x80009d2 ; swd_set_target_state_hw + 300
        0x08000972:    4628        (F      MOV      r0,r5
        0x08000974:    e7f8        ..      B        0x8000968 ; swd_set_target_state_hw + 194
        0x08000976:    f7ffff25    ..%.    BL       JTAG2SWD ; 0x80007c4
        0x0800097a:    2800        .(      CMP      r0,#0
        0x0800097c:    d02a        *.      BEQ      0x80009d4 ; swd_set_target_state_hw + 302
        0x0800097e:    211e        .!      MOVS     r1,#0x1e
        0x08000980:    2000        .       MOVS     r0,#0
        0x08000982:    f7fffd51    ..Q.    BL       swd_write_dp ; 0x8000428
        0x08000986:    2800        .(      CMP      r0,#0
        0x08000988:    d024        $.      BEQ      0x80009d4 ; swd_set_target_state_hw + 302
        0x0800098a:    2100        .!      MOVS     r1,#0
        0x0800098c:    2008        .       MOVS     r0,#8
        0x0800098e:    f7fffd4b    ..K.    BL       swd_write_dp ; 0x8000428
        0x08000992:    2800        .(      CMP      r0,#0
        0x08000994:    d01e        ..      BEQ      0x80009d4 ; swd_set_target_state_hw + 302
        0x08000996:    f04f41a0    O..A    MOV      r1,#0x50000000
        0x0800099a:    2004        .       MOVS     r0,#4
        0x0800099c:    f7fffd44    ..D.    BL       swd_write_dp ; 0x8000428
        0x080009a0:    2800        .(      CMP      r0,#0
        0x080009a2:    d017        ..      BEQ      0x80009d4 ; swd_set_target_state_hw + 302
        0x080009a4:    4631        1F      MOV      r1,r6
        0x080009a6:    e7e4        ..      B        0x8000972 ; swd_set_target_state_hw + 204
        0x080009a8:    e01c        ..      B        0x80009e4 ; swd_set_target_state_hw + 318
        0x080009aa:    f7ffff2d    ..-.    BL       swd_init_debug ; 0x8000808
        0x080009ae:    2800        .(      CMP      r0,#0
        0x080009b0:    d010        ..      BEQ      0x80009d4 ; swd_set_target_state_hw + 302
        0x080009b2:    497c        |I      LDR      r1,[pc,#496] ; [0x8000ba4] = 0xa05f0000
        0x080009b4:    4628        (F      MOV      r0,r5
        0x080009b6:    1cc9        ..      ADDS     r1,r1,#3
        0x080009b8:    f000f94e    ..N.    BL       swd_write_word ; 0x8000c58
        0x080009bc:    2800        .(      CMP      r0,#0
        0x080009be:    d009        ..      BEQ      0x80009d4 ; swd_set_target_state_hw + 302
        0x080009c0:    4669        iF      MOV      r1,sp
        0x080009c2:    4628        (F      MOV      r0,r5
        0x080009c4:    f000f937    ..7.    BL       swd_read_word ; 0x8000c36
        0x080009c8:    2800        .(      CMP      r0,#0
        0x080009ca:    d003        ..      BEQ      0x80009d4 ; swd_set_target_state_hw + 302
        0x080009cc:    9800        ..      LDR      r0,[sp,#0]
        0x080009ce:    0380        ..      LSLS     r0,r0,#14
        0x080009d0:    d5f6        ..      BPL      0x80009c0 ; swd_set_target_state_hw + 282
        0x080009d2:    2001        .       MOVS     r0,#1
        0x080009d4:    bdf8        ..      POP      {r3-r7,pc}
        0x080009d6:    4628        (F      MOV      r0,r5
        0x080009d8:    f000f93e    ..>.    BL       swd_write_word ; 0x8000c58
        0x080009dc:    2800        .(      CMP      r0,#0
        0x080009de:    d0f9        ..      BEQ      0x80009d4 ; swd_set_target_state_hw + 302
        0x080009e0:    f7fffcf2    ....    BL       swd_off ; 0x80003c8
        0x080009e4:    2000        .       MOVS     r0,#0
        0x080009e6:    bdf8        ..      POP      {r3-r7,pc}
    swd_set_target_state_sw
        0x080009e8:    b5f8        ..      PUSH     {r3-r7,lr}
        0x080009ea:    4604        .F      MOV      r4,r0
        0x080009ec:    2806        .(      CMP      r0,#6
        0x080009ee:    d001        ..      BEQ      0x80009f4 ; swd_set_target_state_sw + 12
        0x080009f0:    f7fffcd4    ....    BL       swd_init ; 0x800039c
        0x080009f4:    4e6b        kN      LDR      r6,[pc,#428] ; [0x8000ba4] = 0xa05f0000
        0x080009f6:    4d67        gM      LDR      r5,[pc,#412] ; [0x8000b94] = 0xe000edf8
        0x080009f8:    1cf6        ..      ADDS     r6,r6,#3
        0x080009fa:    1ef1        ..      SUBS     r1,r6,#3
        0x080009fc:    3d08        .=      SUBS     r5,r5,#8
        0x080009fe:    2c07        .,      CMP      r4,#7
        0x08000a00:    d273        s.      BCS      0x8000aea ; swd_set_target_state_sw + 258
        0x08000a02:    e8dff004    ....    TBB      [pc,r4]
    $d
        0x08000a06:    1704        ..      DCW    5892
        0x08000a08:    73585208    .RXs    DCD    1935168008
        0x08000a0c:    0088        ..      DCW    136
    $t
        0x08000a0e:    2001        .       MOVS     r0,#1
        0x08000a10:    f7ffff3d    ..=.    BL       swd_set_target_reset ; 0x800088e
        0x08000a14:    e07d        }.      B        0x8000b12 ; swd_set_target_state_sw + 298
        0x08000a16:    2001        .       MOVS     r0,#1
        0x08000a18:    f7ffff39    ..9.    BL       swd_set_target_reset ; 0x800088e
        0x08000a1c:    2014        .       MOVS     r0,#0x14
        0x08000a1e:    f7fffcaf    ....    BL       delaymS ; 0x8000380
        0x08000a22:    2000        .       MOVS     r0,#0
        0x08000a24:    f7ffff33    ..3.    BL       swd_set_target_reset ; 0x800088e
        0x08000a28:    2014        .       MOVS     r0,#0x14
        0x08000a2a:    f7fffca9    ....    BL       delaymS ; 0x8000380
        0x08000a2e:    f7fffccb    ....    BL       swd_off ; 0x80003c8
        0x08000a32:    e06e        n.      B        0x8000b12 ; swd_set_target_state_sw + 298
        0x08000a34:    f7fffee8    ....    BL       swd_init_debug ; 0x8000808
        0x08000a38:    2800        .(      CMP      r0,#0
        0x08000a3a:    d06b        k.      BEQ      0x8000b14 ; swd_set_target_state_sw + 300
        0x08000a3c:    4631        1F      MOV      r1,r6
        0x08000a3e:    462c        ,F      MOV      r4,r5
        0x08000a40:    4628        (F      MOV      r0,r5
        0x08000a42:    f000f909    ....    BL       swd_write_word ; 0x8000c58
        0x08000a46:    2800        .(      CMP      r0,#0
        0x08000a48:    d064        d.      BEQ      0x8000b14 ; swd_set_target_state_sw + 300
        0x08000a4a:    4669        iF      MOV      r1,sp
        0x08000a4c:    4620         F      MOV      r0,r4
        0x08000a4e:    f000f8f2    ....    BL       swd_read_word ; 0x8000c36
        0x08000a52:    2800        .(      CMP      r0,#0
        0x08000a54:    d05e        ^.      BEQ      0x8000b14 ; swd_set_target_state_sw + 300
        0x08000a56:    9800        ..      LDR      r0,[sp,#0]
        0x08000a58:    0380        ..      LSLS     r0,r0,#14
        0x08000a5a:    d5f6        ..      BPL      0x8000a4a ; swd_set_target_state_sw + 98
        0x08000a5c:    4d4d        MM      LDR      r5,[pc,#308] ; [0x8000b94] = 0xe000edf8
        0x08000a5e:    2101        .!      MOVS     r1,#1
        0x08000a60:    1d2d        -.      ADDS     r5,r5,#4
        0x08000a62:    4628        (F      MOV      r0,r5
        0x08000a64:    f000f8f8    ....    BL       swd_write_word ; 0x8000c58
        0x08000a68:    2800        .(      CMP      r0,#0
        0x08000a6a:    d053        S.      BEQ      0x8000b14 ; swd_set_target_state_sw + 300
        0x08000a6c:    4e49        IN      LDR      r6,[pc,#292] ; [0x8000b94] = 0xe000edf8
        0x08000a6e:    4669        iF      MOV      r1,sp
        0x08000a70:    3eec        .>      SUBS     r6,r6,#0xec
        0x08000a72:    4630        0F      MOV      r0,r6
        0x08000a74:    f000f8df    ....    BL       swd_read_word ; 0x8000c36
        0x08000a78:    2800        .(      CMP      r0,#0
        0x08000a7a:    d04b        K.      BEQ      0x8000b14 ; swd_set_target_state_sw + 300
        0x08000a7c:    9800        ..      LDR      r0,[sp,#0]
        0x08000a7e:    f40061e0    ...a    AND      r1,r0,#0x700
        0x08000a82:    4847        GH      LDR      r0,[pc,#284] ; [0x8000ba0] = 0x5fa0004
        0x08000a84:    4301        .C      ORRS     r1,r1,r0
        0x08000a86:    4630        0F      MOV      r0,r6
        0x08000a88:    f000f8e6    ....    BL       swd_write_word ; 0x8000c58
        0x08000a8c:    2800        .(      CMP      r0,#0
        0x08000a8e:    d041        A.      BEQ      0x8000b14 ; swd_set_target_state_sw + 300
        0x08000a90:    2014        .       MOVS     r0,#0x14
        0x08000a92:    f7fffc75    ..u.    BL       delaymS ; 0x8000380
        0x08000a96:    4669        iF      MOV      r1,sp
        0x08000a98:    4620         F      MOV      r0,r4
        0x08000a9a:    f000f8cc    ....    BL       swd_read_word ; 0x8000c36
        0x08000a9e:    2800        .(      CMP      r0,#0
        0x08000aa0:    d038        8.      BEQ      0x8000b14 ; swd_set_target_state_sw + 300
        0x08000aa2:    9800        ..      LDR      r0,[sp,#0]
        0x08000aa4:    0380        ..      LSLS     r0,r0,#14
        0x08000aa6:    d5f6        ..      BPL      0x8000a96 ; swd_set_target_state_sw + 174
        0x08000aa8:    2100        .!      MOVS     r1,#0
        0x08000aaa:    4628        (F      MOV      r0,r5
        0x08000aac:    f000f8d4    ....    BL       swd_write_word ; 0x8000c58
        0x08000ab0:    2800        .(      CMP      r0,#0
        0x08000ab2:    d02f        /.      BEQ      0x8000b14 ; swd_set_target_state_sw + 300
        0x08000ab4:    e02d        -.      B        0x8000b12 ; swd_set_target_state_sw + 298
        0x08000ab6:    f7fffe85    ....    BL       JTAG2SWD ; 0x80007c4
        0x08000aba:    2800        .(      CMP      r0,#0
        0x08000abc:    d02a        *.      BEQ      0x8000b14 ; swd_set_target_state_sw + 300
        0x08000abe:    211e        .!      MOVS     r1,#0x1e
        0x08000ac0:    2000        .       MOVS     r0,#0
        0x08000ac2:    f7fffcb1    ....    BL       swd_write_dp ; 0x8000428
        0x08000ac6:    2800        .(      CMP      r0,#0
        0x08000ac8:    d024        $.      BEQ      0x8000b14 ; swd_set_target_state_sw + 300
        0x08000aca:    2100        .!      MOVS     r1,#0
        0x08000acc:    2008        .       MOVS     r0,#8
        0x08000ace:    f7fffcab    ....    BL       swd_write_dp ; 0x8000428
        0x08000ad2:    2800        .(      CMP      r0,#0
        0x08000ad4:    d01e        ..      BEQ      0x8000b14 ; swd_set_target_state_sw + 300
        0x08000ad6:    f04f41a0    O..A    MOV      r1,#0x50000000
        0x08000ada:    2004        .       MOVS     r0,#4
        0x08000adc:    f7fffca4    ....    BL       swd_write_dp ; 0x8000428
        0x08000ae0:    2800        .(      CMP      r0,#0
        0x08000ae2:    d017        ..      BEQ      0x8000b14 ; swd_set_target_state_sw + 300
        0x08000ae4:    492f        /I      LDR      r1,[pc,#188] ; [0x8000ba4] = 0xa05f0000
        0x08000ae6:    1c49        I.      ADDS     r1,r1,#1
        0x08000ae8:    e7df        ..      B        0x8000aaa ; swd_set_target_state_sw + 194
        0x08000aea:    e01b        ..      B        0x8000b24 ; swd_set_target_state_sw + 316
        0x08000aec:    f7fffe8c    ....    BL       swd_init_debug ; 0x8000808
        0x08000af0:    2800        .(      CMP      r0,#0
        0x08000af2:    d00f        ..      BEQ      0x8000b14 ; swd_set_target_state_sw + 300
        0x08000af4:    4631        1F      MOV      r1,r6
        0x08000af6:    4628        (F      MOV      r0,r5
        0x08000af8:    f000f8ae    ....    BL       swd_write_word ; 0x8000c58
        0x08000afc:    2800        .(      CMP      r0,#0
        0x08000afe:    d009        ..      BEQ      0x8000b14 ; swd_set_target_state_sw + 300
        0x08000b00:    4669        iF      MOV      r1,sp
        0x08000b02:    4628        (F      MOV      r0,r5
        0x08000b04:    f000f897    ....    BL       swd_read_word ; 0x8000c36
        0x08000b08:    2800        .(      CMP      r0,#0
        0x08000b0a:    d003        ..      BEQ      0x8000b14 ; swd_set_target_state_sw + 300
        0x08000b0c:    9800        ..      LDR      r0,[sp,#0]
        0x08000b0e:    0380        ..      LSLS     r0,r0,#14
        0x08000b10:    d5f6        ..      BPL      0x8000b00 ; swd_set_target_state_sw + 280
        0x08000b12:    2001        .       MOVS     r0,#1
        0x08000b14:    bdf8        ..      POP      {r3-r7,pc}
        0x08000b16:    4628        (F      MOV      r0,r5
        0x08000b18:    f000f89e    ....    BL       swd_write_word ; 0x8000c58
        0x08000b1c:    2800        .(      CMP      r0,#0
        0x08000b1e:    d0f9        ..      BEQ      0x8000b14 ; swd_set_target_state_sw + 300
        0x08000b20:    f7fffc52    ..R.    BL       swd_off ; 0x80003c8
        0x08000b24:    2000        .       MOVS     r0,#0
        0x08000b26:    bdf8        ..      POP      {r3-r7,pc}
    int2array
        0x08000b28:    b510        ..      PUSH     {r4,lr}
        0x08000b2a:    2300        .#      MOVS     r3,#0
        0x08000b2c:    e005        ..      B        0x8000b3a ; int2array + 18
        0x08000b2e:    00dc        ..      LSLS     r4,r3,#3
        0x08000b30:    fa21f404    !...    LSR      r4,r1,r4
        0x08000b34:    54c4        .T      STRB     r4,[r0,r3]
        0x08000b36:    1c5b        [.      ADDS     r3,r3,#1
        0x08000b38:    b2db        ..      UXTB     r3,r3
        0x08000b3a:    4293        .B      CMP      r3,r2
        0x08000b3c:    d3f7        ..      BCC      0x8000b2e ; int2array + 6
        0x08000b3e:    bd10        ..      POP      {r4,pc}
    swd_transfer_retry
        0x08000b40:    b570        p.      PUSH     {r4-r6,lr}
        0x08000b42:    460d        .F      MOV      r5,r1
        0x08000b44:    4606        .F      MOV      r6,r0
        0x08000b46:    2400        .$      MOVS     r4,#0
        0x08000b48:    4629        )F      MOV      r1,r5
        0x08000b4a:    4630        0F      MOV      r0,r6
        0x08000b4c:    f001f86b    ..k.    BL       SWD_Transfer ; 0x8001c26
        0x08000b50:    2802        .(      CMP      r0,#2
        0x08000b52:    d103        ..      BNE      0x8000b5c ; swd_transfer_retry + 28
        0x08000b54:    1c64        d.      ADDS     r4,r4,#1
        0x08000b56:    b2e4        ..      UXTB     r4,r4
        0x08000b58:    2c0a        .,      CMP      r4,#0xa
        0x08000b5a:    d3f5        ..      BCC      0x8000b48 ; swd_transfer_retry + 8
        0x08000b5c:    bd70        p.      POP      {r4-r6,pc}
    swd_write_block
        0x08000b5e:    b5f8        ..      PUSH     {r3-r7,lr}
        0x08000b60:    460d        .F      MOV      r5,r1
        0x08000b62:    4604        .F      MOV      r4,r0
        0x08000b64:    b1aa        ..      CBZ      r2,0x8000b92 ; swd_write_block + 52
        0x08000b66:    0896        ..      LSRS     r6,r2,#2
        0x08000b68:    490f        .I      LDR      r1,[pc,#60] ; [0x8000ba8] = 0x23000052
        0x08000b6a:    2000        .       MOVS     r0,#0
        0x08000b6c:    f7fffca5    ....    BL       swd_write_ap ; 0x80004ba
        0x08000b70:    2800        .(      CMP      r0,#0
        0x08000b72:    d02c        ,.      BEQ      0x8000bce ; swd_write_block + 112
        0x08000b74:    2705        .'      MOVS     r7,#5
        0x08000b76:    2204        ."      MOVS     r2,#4
        0x08000b78:    4621        !F      MOV      r1,r4
        0x08000b7a:    4668        hF      MOV      r0,sp
        0x08000b7c:    f7ffffd4    ....    BL       int2array ; 0x8000b28
        0x08000b80:    4669        iF      MOV      r1,sp
        0x08000b82:    4638        8F      MOV      r0,r7
        0x08000b84:    f7ffffdc    ....    BL       swd_transfer_retry ; 0x8000b40
        0x08000b88:    2801        .(      CMP      r0,#1
        0x08000b8a:    d11f        ..      BNE      0x8000bcc ; swd_write_block + 110
        0x08000b8c:    270d        .'      MOVS     r7,#0xd
        0x08000b8e:    2400        .$      MOVS     r4,#0
        0x08000b90:    e014        ..      B        0x8000bbc ; swd_write_block + 94
        0x08000b92:    e01b        ..      B        0x8000bcc ; swd_write_block + 110
    $d
        0x08000b94:    e000edf8    ....    DCD    3758157304
        0x08000b98:    20000008    ...     DCD    536870920
        0x08000b9c:    50000f00    ...P    DCD    1342181120
        0x08000ba0:    05fa0004    ....    DCD    100270084
        0x08000ba4:    a05f0000    .._.    DCD    2690580480
        0x08000ba8:    23000052    R..#    DCD    587202642
    $t
        0x08000bac:    4629        )F      MOV      r1,r5
        0x08000bae:    4638        8F      MOV      r0,r7
        0x08000bb0:    f7ffffc6    ....    BL       swd_transfer_retry ; 0x8000b40
        0x08000bb4:    2801        .(      CMP      r0,#1
        0x08000bb6:    d109        ..      BNE      0x8000bcc ; swd_write_block + 110
        0x08000bb8:    1c64        d.      ADDS     r4,r4,#1
        0x08000bba:    1d2d        -.      ADDS     r5,r5,#4
        0x08000bbc:    42b4        .B      CMP      r4,r6
        0x08000bbe:    d3f5        ..      BCC      0x8000bac ; swd_write_block + 78
        0x08000bc0:    200e        .       MOVS     r0,#0xe
        0x08000bc2:    2100        .!      MOVS     r1,#0
        0x08000bc4:    f7ffffbc    ....    BL       swd_transfer_retry ; 0x8000b40
        0x08000bc8:    2801        .(      CMP      r0,#1
        0x08000bca:    d000        ..      BEQ      0x8000bce ; swd_write_block + 112
        0x08000bcc:    2000        .       MOVS     r0,#0
        0x08000bce:    bdf8        ..      POP      {r3-r7,pc}
    swd_read_block
        0x08000bd0:    b5f8        ..      PUSH     {r3-r7,lr}
        0x08000bd2:    460d        .F      MOV      r5,r1
        0x08000bd4:    4604        .F      MOV      r4,r0
        0x08000bd6:    b362        b.      CBZ      r2,0x8000c32 ; swd_read_block + 98
        0x08000bd8:    0896        ..      LSRS     r6,r2,#2
        0x08000bda:    4959        YI      LDR      r1,[pc,#356] ; [0x8000d40] = 0x23000052
        0x08000bdc:    2000        .       MOVS     r0,#0
        0x08000bde:    f7fffc6c    ..l.    BL       swd_write_ap ; 0x80004ba
        0x08000be2:    2800        .(      CMP      r0,#0
        0x08000be4:    d026        &.      BEQ      0x8000c34 ; swd_read_block + 100
        0x08000be6:    2705        .'      MOVS     r7,#5
        0x08000be8:    2204        ."      MOVS     r2,#4
        0x08000bea:    4621        !F      MOV      r1,r4
        0x08000bec:    4668        hF      MOV      r0,sp
        0x08000bee:    f7ffff9b    ....    BL       int2array ; 0x8000b28
        0x08000bf2:    4669        iF      MOV      r1,sp
        0x08000bf4:    4638        8F      MOV      r0,r7
        0x08000bf6:    f7ffffa3    ....    BL       swd_transfer_retry ; 0x8000b40
        0x08000bfa:    2801        .(      CMP      r0,#1
        0x08000bfc:    d119        ..      BNE      0x8000c32 ; swd_read_block + 98
        0x08000bfe:    270f        .'      MOVS     r7,#0xf
        0x08000c00:    2100        .!      MOVS     r1,#0
        0x08000c02:    4638        8F      MOV      r0,r7
        0x08000c04:    f7ffff9c    ....    BL       swd_transfer_retry ; 0x8000b40
        0x08000c08:    2801        .(      CMP      r0,#1
        0x08000c0a:    d112        ..      BNE      0x8000c32 ; swd_read_block + 98
        0x08000c0c:    2400        .$      MOVS     r4,#0
        0x08000c0e:    1e76        v.      SUBS     r6,r6,#1
        0x08000c10:    e007        ..      B        0x8000c22 ; swd_read_block + 82
        0x08000c12:    4629        )F      MOV      r1,r5
        0x08000c14:    4638        8F      MOV      r0,r7
        0x08000c16:    f7ffff93    ....    BL       swd_transfer_retry ; 0x8000b40
        0x08000c1a:    2801        .(      CMP      r0,#1
        0x08000c1c:    d109        ..      BNE      0x8000c32 ; swd_read_block + 98
        0x08000c1e:    1c64        d.      ADDS     r4,r4,#1
        0x08000c20:    1d2d        -.      ADDS     r5,r5,#4
        0x08000c22:    42b4        .B      CMP      r4,r6
        0x08000c24:    d3f5        ..      BCC      0x8000c12 ; swd_read_block + 66
        0x08000c26:    200e        .       MOVS     r0,#0xe
        0x08000c28:    4629        )F      MOV      r1,r5
        0x08000c2a:    f7ffff89    ....    BL       swd_transfer_retry ; 0x8000b40
        0x08000c2e:    2801        .(      CMP      r0,#1
        0x08000c30:    d000        ..      BEQ      0x8000c34 ; swd_read_block + 100
        0x08000c32:    2000        .       MOVS     r0,#0
        0x08000c34:    bdf8        ..      POP      {r3-r7,pc}
    swd_read_word
        0x08000c36:    b570        p.      PUSH     {r4-r6,lr}
        0x08000c38:    460c        .F      MOV      r4,r1
        0x08000c3a:    4605        .F      MOV      r5,r0
        0x08000c3c:    4940        @I      LDR      r1,[pc,#256] ; [0x8000d40] = 0x23000052
        0x08000c3e:    2000        .       MOVS     r0,#0
        0x08000c40:    f7fffc3b    ..;.    BL       swd_write_ap ; 0x80004ba
        0x08000c44:    2800        .(      CMP      r0,#0
        0x08000c46:    d006        ..      BEQ      0x8000c56 ; swd_read_word + 32
        0x08000c48:    4621        !F      MOV      r1,r4
        0x08000c4a:    4628        (F      MOV      r0,r5
        0x08000c4c:    f7fffc60    ..`.    BL       swd_read_data ; 0x8000510
        0x08000c50:    2800        .(      CMP      r0,#0
        0x08000c52:    d000        ..      BEQ      0x8000c56 ; swd_read_word + 32
        0x08000c54:    2001        .       MOVS     r0,#1
        0x08000c56:    bd70        p.      POP      {r4-r6,pc}
    swd_write_word
        0x08000c58:    b570        p.      PUSH     {r4-r6,lr}
        0x08000c5a:    460c        .F      MOV      r4,r1
        0x08000c5c:    4605        .F      MOV      r5,r0
        0x08000c5e:    4938        8I      LDR      r1,[pc,#224] ; [0x8000d40] = 0x23000052
        0x08000c60:    2000        .       MOVS     r0,#0
        0x08000c62:    f7fffc2a    ..*.    BL       swd_write_ap ; 0x80004ba
        0x08000c66:    2800        .(      CMP      r0,#0
        0x08000c68:    d006        ..      BEQ      0x8000c78 ; swd_write_word + 32
        0x08000c6a:    4621        !F      MOV      r1,r4
        0x08000c6c:    4628        (F      MOV      r0,r5
        0x08000c6e:    f7fffc7f    ....    BL       swd_write_data ; 0x8000570
        0x08000c72:    2800        .(      CMP      r0,#0
        0x08000c74:    d000        ..      BEQ      0x8000c78 ; swd_write_word + 32
        0x08000c76:    2001        .       MOVS     r0,#1
        0x08000c78:    bd70        p.      POP      {r4-r6,pc}
    swd_write_byte
        0x08000c7a:    b570        p.      PUSH     {r4-r6,lr}
        0x08000c7c:    460c        .F      MOV      r4,r1
        0x08000c7e:    4930        0I      LDR      r1,[pc,#192] ; [0x8000d40] = 0x23000052
        0x08000c80:    4605        .F      MOV      r5,r0
        0x08000c82:    1e89        ..      SUBS     r1,r1,#2
        0x08000c84:    2000        .       MOVS     r0,#0
        0x08000c86:    f7fffc18    ....    BL       swd_write_ap ; 0x80004ba
        0x08000c8a:    2800        .(      CMP      r0,#0
        0x08000c8c:    d009        ..      BEQ      0x8000ca2 ; swd_write_byte + 40
        0x08000c8e:    07a8        ..      LSLS     r0,r5,#30
        0x08000c90:    0ec0        ..      LSRS     r0,r0,#27
        0x08000c92:    fa04f100    ....    LSL      r1,r4,r0
        0x08000c96:    4628        (F      MOV      r0,r5
        0x08000c98:    f7fffc6a    ..j.    BL       swd_write_data ; 0x8000570
        0x08000c9c:    2800        .(      CMP      r0,#0
        0x08000c9e:    d000        ..      BEQ      0x8000ca2 ; swd_write_byte + 40
        0x08000ca0:    2001        .       MOVS     r0,#1
        0x08000ca2:    bd70        p.      POP      {r4-r6,pc}
    swd_write_debug_state
        0x08000ca4:    b538        8.      PUSH     {r3-r5,lr}
        0x08000ca6:    4605        .F      MOV      r5,r0
        0x08000ca8:    2100        .!      MOVS     r1,#0
        0x08000caa:    2008        .       MOVS     r0,#8
        0x08000cac:    f7fffbbc    ....    BL       swd_write_dp ; 0x8000428
        0x08000cb0:    2800        .(      CMP      r0,#0
        0x08000cb2:    d032        2.      BEQ      0x8000d1a ; swd_write_debug_state + 118
        0x08000cb4:    2400        .$      MOVS     r4,#0
        0x08000cb6:    4620         F      MOV      r0,r4
        0x08000cb8:    f8551024    U.$.    LDR      r1,[r5,r4,LSL #2]
        0x08000cbc:    f7fffcfd    ....    BL       swd_write_core_register ; 0x80006ba
        0x08000cc0:    2800        .(      CMP      r0,#0
        0x08000cc2:    d02a        *.      BEQ      0x8000d1a ; swd_write_debug_state + 118
        0x08000cc4:    1c64        d.      ADDS     r4,r4,#1
        0x08000cc6:    2c04        .,      CMP      r4,#4
        0x08000cc8:    d3f5        ..      BCC      0x8000cb6 ; swd_write_debug_state + 18
        0x08000cca:    2009        .       MOVS     r0,#9
        0x08000ccc:    6a69        ij      LDR      r1,[r5,#0x24]
        0x08000cce:    f7fffcf4    ....    BL       swd_write_core_register ; 0x80006ba
        0x08000cd2:    2800        .(      CMP      r0,#0
        0x08000cd4:    d021        !.      BEQ      0x8000d1a ; swd_write_debug_state + 118
        0x08000cd6:    240d        .$      MOVS     r4,#0xd
        0x08000cd8:    4620         F      MOV      r0,r4
        0x08000cda:    f8551024    U.$.    LDR      r1,[r5,r4,LSL #2]
        0x08000cde:    f7fffcec    ....    BL       swd_write_core_register ; 0x80006ba
        0x08000ce2:    2800        .(      CMP      r0,#0
        0x08000ce4:    d019        ..      BEQ      0x8000d1a ; swd_write_debug_state + 118
        0x08000ce6:    1c64        d.      ADDS     r4,r4,#1
        0x08000ce8:    2c10        .,      CMP      r4,#0x10
        0x08000cea:    d3f5        ..      BCC      0x8000cd8 ; swd_write_debug_state + 52
        0x08000cec:    2010        .       MOVS     r0,#0x10
        0x08000cee:    6c29        )l      LDR      r1,[r5,#0x40]
        0x08000cf0:    f7fffce3    ....    BL       swd_write_core_register ; 0x80006ba
        0x08000cf4:    2800        .(      CMP      r0,#0
        0x08000cf6:    d010        ..      BEQ      0x8000d1a ; swd_write_debug_state + 118
        0x08000cf8:    4912        .I      LDR      r1,[pc,#72] ; [0x8000d44] = 0xa05f0001
        0x08000cfa:    4813        .H      LDR      r0,[pc,#76] ; [0x8000d48] = 0xe000edf0
        0x08000cfc:    f7ffffac    ....    BL       swd_write_word ; 0x8000c58
        0x08000d00:    2800        .(      CMP      r0,#0
        0x08000d02:    d00a        ..      BEQ      0x8000d1a ; swd_write_debug_state + 118
        0x08000d04:    4669        iF      MOV      r1,sp
        0x08000d06:    2004        .       MOVS     r0,#4
        0x08000d08:    f7fffb6d    ..m.    BL       swd_read_dp ; 0x80003e6
        0x08000d0c:    2800        .(      CMP      r0,#0
        0x08000d0e:    d004        ..      BEQ      0x8000d1a ; swd_write_debug_state + 118
        0x08000d10:    9800        ..      LDR      r0,[sp,#0]
        0x08000d12:    f0100fa0    ....    TST      r0,#0xa0
        0x08000d16:    d001        ..      BEQ      0x8000d1c ; swd_write_debug_state + 120
        0x08000d18:    2000        .       MOVS     r0,#0
        0x08000d1a:    bd38        8.      POP      {r3-r5,pc}
        0x08000d1c:    2001        .       MOVS     r0,#1
        0x08000d1e:    bd38        8.      POP      {r3-r5,pc}
    swd_reset
        0x08000d20:    b51c        ..      PUSH     {r2-r4,lr}
        0x08000d22:    2000        .       MOVS     r0,#0
        0x08000d24:    466a        jF      MOV      r2,sp
        0x08000d26:    21ff        .!      MOVS     r1,#0xff
        0x08000d28:    5411        .T      STRB     r1,[r2,r0]
        0x08000d2a:    1c40        @.      ADDS     r0,r0,#1
        0x08000d2c:    b2c0        ..      UXTB     r0,r0
        0x08000d2e:    2808        .(      CMP      r0,#8
        0x08000d30:    d3fa        ..      BCC      0x8000d28 ; swd_reset + 8
        0x08000d32:    4611        .F      MOV      r1,r2
        0x08000d34:    2033        3       MOVS     r0,#0x33
        0x08000d36:    f000fc8f    ....    BL       SWJ_Sequence ; 0x8001658
        0x08000d3a:    2001        .       MOVS     r0,#1
        0x08000d3c:    bd1c        ..      POP      {r2-r4,pc}
    $d
        0x08000d3e:    0000        ..      DCW    0
        0x08000d40:    23000052    R..#    DCD    587202642
        0x08000d44:    a05f0001    .._.    DCD    2690580481
        0x08000d48:    e000edf0    ....    DCD    3758157296
    $t
    .text
    target_flash_init
        0x08000d4c:    b57c        |.      PUSH     {r2-r6,lr}
        0x08000d4e:    4605        .F      MOV      r5,r0
        0x08000d50:    2001        .       MOVS     r0,#1
        0x08000d52:    f7fffda8    ....    BL       swd_set_target_state_hw ; 0x80008a6
        0x08000d56:    b198        ..      CBZ      r0,0x8000d80 ; target_flash_init + 52
        0x08000d58:    4c39        9L      LDR      r4,[pc,#228] ; [0x8000e40] = 0x800c168
        0x08000d5a:    e9d40209    ....    LDRD     r0,r2,[r4,#0x24]
        0x08000d5e:    6ae1        .j      LDR      r1,[r4,#0x2c]
        0x08000d60:    f7fffc74    ..t.    BL       swd_write_memory ; 0x800064c
        0x08000d64:    b170        p.      CBZ      r0,0x8000d84 ; target_flash_init + 56
        0x08000d66:    2000        .       MOVS     r0,#0
        0x08000d68:    9000        ..      STR      r0,[sp,#0]
        0x08000d6a:    9001        ..      STR      r0,[sp,#4]
        0x08000d6c:    4603        .F      MOV      r3,r0
        0x08000d6e:    462a        *F      MOV      r2,r5
        0x08000d70:    f1040014    ....    ADD      r0,r4,#0x14
        0x08000d74:    6821        !h      LDR      r1,[r4,#0]
        0x08000d76:    f7fffcc4    ....    BL       swd_flash_syscall_exec ; 0x8000702
        0x08000d7a:    b128        (.      CBZ      r0,0x8000d88 ; target_flash_init + 60
        0x08000d7c:    2000        .       MOVS     r0,#0
        0x08000d7e:    bd7c        |.      POP      {r2-r6,pc}
        0x08000d80:    2003        .       MOVS     r0,#3
        0x08000d82:    bd7c        |.      POP      {r2-r6,pc}
        0x08000d84:    2004        .       MOVS     r0,#4
        0x08000d86:    bd7c        |.      POP      {r2-r6,pc}
        0x08000d88:    2006        .       MOVS     r0,#6
        0x08000d8a:    bd7c        |.      POP      {r2-r6,pc}
    target_flash_uninit
        0x08000d8c:    b510        ..      PUSH     {r4,lr}
        0x08000d8e:    2002        .       MOVS     r0,#2
        0x08000d90:    f7fffd89    ....    BL       swd_set_target_state_hw ; 0x80008a6
        0x08000d94:    f7fffb18    ....    BL       swd_off ; 0x80003c8
        0x08000d98:    2000        .       MOVS     r0,#0
        0x08000d9a:    bd10        ..      POP      {r4,pc}
    target_flash_program_page
        0x08000d9c:    e92d41fc    -..A    PUSH     {r2-r8,lr}
        0x08000da0:    4614        .F      MOV      r4,r2
        0x08000da2:    460f        .F      MOV      r7,r1
        0x08000da4:    4606        .F      MOV      r6,r0
        0x08000da6:    f8df8098    ....    LDR      r8,[pc,#152] ; [0x8000e40] = 0x800c168
        0x08000daa:    e01f        ..      B        0x8000dec ; target_flash_program_page + 80
        0x08000dac:    f8d81030    ..0.    LDR      r1,[r8,#0x30]
        0x08000db0:    42a1        .B      CMP      r1,r4
        0x08000db2:    d201        ..      BCS      0x8000db8 ; target_flash_program_page + 28
        0x08000db4:    460d        .F      MOV      r5,r1
        0x08000db6:    e000        ..      B        0x8000dba ; target_flash_program_page + 30
        0x08000db8:    4625        %F      MOV      r5,r4
        0x08000dba:    462a        *F      MOV      r2,r5
        0x08000dbc:    4639        9F      MOV      r1,r7
        0x08000dbe:    f8d80020    .. .    LDR      r0,[r8,#0x20]
        0x08000dc2:    f7fffc43    ..C.    BL       swd_write_memory ; 0x800064c
        0x08000dc6:    b1b0        ..      CBZ      r0,0x8000df6 ; target_flash_program_page + 90
        0x08000dc8:    2200        ."      MOVS     r2,#0
        0x08000dca:    f8d81020    .. .    LDR      r1,[r8,#0x20]
        0x08000dce:    e9cd1200    ....    STRD     r1,r2,[sp,#0]
        0x08000dd2:    481b        .H      LDR      r0,[pc,#108] ; [0x8000e40] = 0x800c168
        0x08000dd4:    4632        2F      MOV      r2,r6
        0x08000dd6:    3014        .0      ADDS     r0,r0,#0x14
        0x08000dd8:    f8d83030    ..00    LDR      r3,[r8,#0x30]
        0x08000ddc:    f8d81010    ....    LDR      r1,[r8,#0x10]
        0x08000de0:    f7fffc8f    ....    BL       swd_flash_syscall_exec ; 0x8000702
        0x08000de4:    b148        H.      CBZ      r0,0x8000dfa ; target_flash_program_page + 94
        0x08000de6:    442e        .D      ADD      r6,r6,r5
        0x08000de8:    442f        /D      ADD      r7,r7,r5
        0x08000dea:    1b64        d.      SUBS     r4,r4,r5
        0x08000dec:    2c00        .,      CMP      r4,#0
        0x08000dee:    d1dd        ..      BNE      0x8000dac ; target_flash_program_page + 16
        0x08000df0:    2000        .       MOVS     r0,#0
        0x08000df2:    e8bd81fc    ....    POP      {r2-r8,pc}
        0x08000df6:    2005        .       MOVS     r0,#5
        0x08000df8:    e7fb        ..      B        0x8000df2 ; target_flash_program_page + 86
        0x08000dfa:    200b        .       MOVS     r0,#0xb
        0x08000dfc:    e7f9        ..      B        0x8000df2 ; target_flash_program_page + 86
    target_flash_erase_sector
        0x08000dfe:    b51c        ..      PUSH     {r2-r4,lr}
        0x08000e00:    2100        .!      MOVS     r1,#0
        0x08000e02:    9100        ..      STR      r1,[sp,#0]
        0x08000e04:    9101        ..      STR      r1,[sp,#4]
        0x08000e06:    490e        .I      LDR      r1,[pc,#56] ; [0x8000e40] = 0x800c168
        0x08000e08:    4602        .F      MOV      r2,r0
        0x08000e0a:    480d        .H      LDR      r0,[pc,#52] ; [0x8000e40] = 0x800c168
        0x08000e0c:    68c9        .h      LDR      r1,[r1,#0xc]
        0x08000e0e:    2300        .#      MOVS     r3,#0
        0x08000e10:    3014        .0      ADDS     r0,r0,#0x14
        0x08000e12:    f7fffc76    ..v.    BL       swd_flash_syscall_exec ; 0x8000702
        0x08000e16:    b108        ..      CBZ      r0,0x8000e1c ; target_flash_erase_sector + 30
        0x08000e18:    2000        .       MOVS     r0,#0
        0x08000e1a:    bd1c        ..      POP      {r2-r4,pc}
        0x08000e1c:    2009        .       MOVS     r0,#9
        0x08000e1e:    bd1c        ..      POP      {r2-r4,pc}
    target_flash_erase_chip
        0x08000e20:    b51c        ..      PUSH     {r2-r4,lr}
        0x08000e22:    2400        .$      MOVS     r4,#0
        0x08000e24:    4806        .H      LDR      r0,[pc,#24] ; [0x8000e40] = 0x800c168
        0x08000e26:    9400        ..      STR      r4,[sp,#0]
        0x08000e28:    9401        ..      STR      r4,[sp,#4]
        0x08000e2a:    6881        .h      LDR      r1,[r0,#8]
        0x08000e2c:    4623        #F      MOV      r3,r4
        0x08000e2e:    4622        "F      MOV      r2,r4
        0x08000e30:    3014        .0      ADDS     r0,r0,#0x14
        0x08000e32:    f7fffc66    ..f.    BL       swd_flash_syscall_exec ; 0x8000702
        0x08000e36:    b108        ..      CBZ      r0,0x8000e3c ; target_flash_erase_chip + 28
        0x08000e38:    4620         F      MOV      r0,r4
        0x08000e3a:    bd1c        ..      POP      {r2-r4,pc}
        0x08000e3c:    200a        .       MOVS     r0,#0xa
        0x08000e3e:    bd1c        ..      POP      {r2-r4,pc}
    $d
        0x08000e40:    0800c168    h...    DCD    134267240
    $t
    .text
    Delayms
        0x08000e44:    f64551c0    E..Q    MOV      r1,#0x5dc0
        0x08000e48:    4348        HC      MULS     r0,r1,r0
        0x08000e4a:    1e40        @.      SUBS     r0,r0,#1
        0x08000e4c:    d1fd        ..      BNE      0x8000e4a ; Delayms + 6
        0x08000e4e:    4770        pG      BX       lr
    DAP_SWJ_Pins
        0x08000e50:    b5f0        ..      PUSH     {r4-r7,lr}
        0x08000e52:    7803        .x      LDRB     r3,[r0,#0]
        0x08000e54:    7842        Bx      LDRB     r2,[r0,#1]
        0x08000e56:    7944        Dy      LDRB     r4,[r0,#5]
        0x08000e58:    f8d00002    ....    LDR      r0,[r0,#2]
        0x08000e5c:    4dfc        .M      LDR      r5,[pc,#1008] ; [0x8001250] = 0x40010c10
        0x08000e5e:    f364601f    d..`    BFI      r0,r4,#24,#8
        0x08000e62:    07d4        ..      LSLS     r4,r2,#31
        0x08000e64:    f1050604    ....    ADD      r6,r5,#4
        0x08000e68:    d006        ..      BEQ      0x8000e78 ; DAP_SWJ_Pins + 40
        0x08000e6a:    07df        ..      LSLS     r7,r3,#31
        0x08000e6c:    f44f5400    O..T    MOV      r4,#0x2000
        0x08000e70:    d001        ..      BEQ      0x8000e76 ; DAP_SWJ_Pins + 38
        0x08000e72:    602c        ,`      STR      r4,[r5,#0]
        0x08000e74:    e000        ..      B        0x8000e78 ; DAP_SWJ_Pins + 40
        0x08000e76:    6034        4`      STR      r4,[r6,#0]
        0x08000e78:    0794        ..      LSLS     r4,r2,#30
        0x08000e7a:    d506        ..      BPL      0x8000e8a ; DAP_SWJ_Pins + 58
        0x08000e7c:    079f        ..      LSLS     r7,r3,#30
        0x08000e7e:    f44f4480    O..D    MOV      r4,#0x4000
        0x08000e82:    d501        ..      BPL      0x8000e88 ; DAP_SWJ_Pins + 56
        0x08000e84:    602c        ,`      STR      r4,[r5,#0]
        0x08000e86:    e000        ..      B        0x8000e8a ; DAP_SWJ_Pins + 58
        0x08000e88:    6034        4`      STR      r4,[r6,#0]
        0x08000e8a:    4ef1        .N      LDR      r6,[pc,#964] ; [0x8001250] = 0x40010c10
        0x08000e8c:    1f36        6.      SUBS     r6,r6,#4
        0x08000e8e:    1f37        7.      SUBS     r7,r6,#4
        0x08000e90:    2400        .$      MOVS     r4,#0
        0x08000e92:    b380        ..      CBZ      r0,0x8000ef6 ; DAP_SWJ_Pins + 166
        0x08000e94:    4def        .M      LDR      r5,[pc,#956] ; [0x8001254] = 0x2dc6c0
        0x08000e96:    42a8        .B      CMP      r0,r5
        0x08000e98:    d900        ..      BLS      0x8000e9c ; DAP_SWJ_Pins + 76
        0x08000e9a:    4628        (F      MOV      r0,r5
        0x08000e9c:    f04f25e0    O..%    MOV      r5,#0xe000e000
        0x08000ea0:    61ac        .a      STR      r4,[r5,#0x18]
        0x08000ea2:    eb0000c0    ....    ADD      r0,r0,r0,LSL #3
        0x08000ea6:    00c0        ..      LSLS     r0,r0,#3
        0x08000ea8:    6168        ha      STR      r0,[r5,#0x14]
        0x08000eaa:    2005        .       MOVS     r0,#5
        0x08000eac:    6128        (a      STR      r0,[r5,#0x10]
        0x08000eae:    07d0        ..      LSLS     r0,r2,#31
        0x08000eb0:    d004        ..      BEQ      0x8000ebc ; DAP_SWJ_Pins + 108
        0x08000eb2:    6830        0h      LDR      r0,[r6,#0]
        0x08000eb4:    f3c03040    ..@0    UBFX     r0,r0,#13,#1
        0x08000eb8:    4298        .B      CMP      r0,r3
        0x08000eba:    d116        ..      BNE      0x8000eea ; DAP_SWJ_Pins + 154
        0x08000ebc:    0790        ..      LSLS     r0,r2,#30
        0x08000ebe:    d505        ..      BPL      0x8000ecc ; DAP_SWJ_Pins + 124
        0x08000ec0:    6838        8h      LDR      r0,[r7,#0]
        0x08000ec2:    f3c03080    ...0    UBFX     r0,r0,#14,#1
        0x08000ec6:    ebb00f53    ..S.    CMP      r0,r3,LSR #1
        0x08000eca:    d10e        ..      BNE      0x8000eea ; DAP_SWJ_Pins + 154
        0x08000ecc:    0750        P.      LSLS     r0,r2,#29
        0x08000ece:    d502        ..      BPL      0x8000ed6 ; DAP_SWJ_Pins + 134
        0x08000ed0:    ebb40f93    ....    CMP      r4,r3,LSR #2
        0x08000ed4:    d109        ..      BNE      0x8000eea ; DAP_SWJ_Pins + 154
        0x08000ed6:    0690        ..      LSLS     r0,r2,#26
        0x08000ed8:    d502        ..      BPL      0x8000ee0 ; DAP_SWJ_Pins + 144
        0x08000eda:    ebb41f53    ..S.    CMP      r4,r3,LSR #5
        0x08000ede:    d104        ..      BNE      0x8000eea ; DAP_SWJ_Pins + 154
        0x08000ee0:    0610        ..      LSLS     r0,r2,#24
        0x08000ee2:    d507        ..      BPL      0x8000ef4 ; DAP_SWJ_Pins + 164
        0x08000ee4:    ebb41fd3    ....    CMP      r4,r3,LSR #7
        0x08000ee8:    d004        ..      BEQ      0x8000ef4 ; DAP_SWJ_Pins + 164
        0x08000eea:    6928        (i      LDR      r0,[r5,#0x10]
        0x08000eec:    f3c04000    ...@    UBFX     r0,r0,#16,#1
        0x08000ef0:    2800        .(      CMP      r0,#0
        0x08000ef2:    d0dc        ..      BEQ      0x8000eae ; DAP_SWJ_Pins + 94
        0x08000ef4:    612c        ,a      STR      r4,[r5,#0x10]
        0x08000ef6:    6830        0h      LDR      r0,[r6,#0]
        0x08000ef8:    683a        :h      LDR      r2,[r7,#0]
        0x08000efa:    f3c03040    ..@0    UBFX     r0,r0,#13,#1
        0x08000efe:    f3c23280    ...2    UBFX     r2,r2,#14,#1
        0x08000f02:    ea400042    @.B.    ORR      r0,r0,r2,LSL #1
        0x08000f06:    7008        .p      STRB     r0,[r1,#0]
        0x08000f08:    48d3        .H      LDR      r0,[pc,#844] ; [0x8001258] = 0x60001
        0x08000f0a:    bdf0        ..      POP      {r4-r7,pc}
    DAP_SWD_Transfer
        0x08000f0c:    e92d4ff0    -..O    PUSH     {r4-r11,lr}
        0x08000f10:    b087        ..      SUB      sp,sp,#0x1c
        0x08000f12:    4604        .F      MOV      r4,r0
        0x08000f14:    9005        ..      STR      r0,[sp,#0x14]
        0x08000f16:    2000        .       MOVS     r0,#0
        0x08000f18:    f8dfa340    ..@.    LDR      r10,[pc,#832] ; [0x800125c] = 0x20000010
        0x08000f1c:    e9cd0101    ....    STRD     r0,r1,[sp,#4]
        0x08000f20:    1c8d        ..      ADDS     r5,r1,#2
        0x08000f22:    f88a0000    ....    STRB     r0,[r10,#0]
        0x08000f26:    9003        ..      STR      r0,[sp,#0xc]
        0x08000f28:    7866        fx      LDRB     r6,[r4,#1]
        0x08000f2a:    1ca4        ..      ADDS     r4,r4,#2
        0x08000f2c:    4607        .F      MOV      r7,r0
        0x08000f2e:    2e00        ..      CMP      r6,#0
        0x08000f30:    d071        q.      BEQ      0x8001016 ; DAP_SWD_Transfer + 266
        0x08000f32:    f8148b01    ....    LDRB     r8,[r4],#1
        0x08000f36:    ea5f7188    _..q    LSLS     r1,r8,#30
        0x08000f3a:    d56d        m.      BPL      0x8001018 ; DAP_SWD_Transfer + 268
        0x08000f3c:    b3a7        ..      CBZ      r7,0x8000fa8 ; DAP_SWD_Transfer + 156
        0x08000f3e:    48c8        .H      LDR      r0,[pc,#800] ; [0x8001260] = 0x2000043c
        0x08000f40:    f8b0900a    ....    LDRH     r9,[r0,#0xa]
        0x08000f44:    f0080011    ....    AND      r0,r8,#0x11
        0x08000f48:    2801        .(      CMP      r0,#1
        0x08000f4a:    d007        ..      BEQ      0x8000f5c ; DAP_SWD_Transfer + 80
        0x08000f4c:    4657        WF      MOV      r7,r10
        0x08000f4e:    4669        iF      MOV      r1,sp
        0x08000f50:    200e        .       MOVS     r0,#0xe
        0x08000f52:    f000fe68    ..h.    BL       SWD_Transfer ; 0x8001c26
        0x08000f56:    2802        .(      CMP      r0,#2
        0x08000f58:    d00e        ..      BEQ      0x8000f78 ; DAP_SWD_Transfer + 108
        0x08000f5a:    e013        ..      B        0x8000f84 ; DAP_SWD_Transfer + 120
        0x08000f5c:    4669        iF      MOV      r1,sp
        0x08000f5e:    4640        @F      MOV      r0,r8
        0x08000f60:    f000fe61    ..a.    BL       SWD_Transfer ; 0x8001c26
        0x08000f64:    2802        .(      CMP      r0,#2
        0x08000f66:    d10e        ..      BNE      0x8000f86 ; DAP_SWD_Transfer + 122
        0x08000f68:    f1b90901    ....    SUBS     r9,r9,#1
        0x08000f6c:    d303        ..      BCC      0x8000f76 ; DAP_SWD_Transfer + 106
        0x08000f6e:    f89a1000    ....    LDRB     r1,[r10,#0]
        0x08000f72:    2900        .)      CMP      r1,#0
        0x08000f74:    d0f2        ..      BEQ      0x8000f5c ; DAP_SWD_Transfer + 80
        0x08000f76:    e0f8        ..      B        0x800116a ; DAP_SWD_Transfer + 606
        0x08000f78:    f1b90901    ....    SUBS     r9,r9,#1
        0x08000f7c:    d302        ..      BCC      0x8000f84 ; DAP_SWD_Transfer + 120
        0x08000f7e:    7839        9x      LDRB     r1,[r7,#0]
        0x08000f80:    2900        .)      CMP      r1,#0
        0x08000f82:    d0e4        ..      BEQ      0x8000f4e ; DAP_SWD_Transfer + 66
        0x08000f84:    2700        .'      MOVS     r7,#0
        0x08000f86:    2801        .(      CMP      r0,#1
        0x08000f88:    d1f5        ..      BNE      0x8000f76 ; DAP_SWD_Transfer + 106
        0x08000f8a:    9900        ..      LDR      r1,[sp,#0]
        0x08000f8c:    f8051b01    ....    STRB     r1,[r5],#1
        0x08000f90:    9900        ..      LDR      r1,[sp,#0]
        0x08000f92:    0a09        ..      LSRS     r1,r1,#8
        0x08000f94:    f8051b01    ....    STRB     r1,[r5],#1
        0x08000f98:    9900        ..      LDR      r1,[sp,#0]
        0x08000f9a:    0c09        ..      LSRS     r1,r1,#16
        0x08000f9c:    f8051b02    ....    STRB     r1,[r5],#2
        0x08000fa0:    9900        ..      LDR      r1,[sp,#0]
        0x08000fa2:    0e09        ..      LSRS     r1,r1,#24
        0x08000fa4:    f8051c01    ....    STRB     r1,[r5,#-1]
        0x08000fa8:    ea5f61c8    _..a    LSLS     r1,r8,#27
        0x08000fac:    d54f        O.      BPL      0x800104e ; DAP_SWD_Transfer + 322
        0x08000fae:    78e1        .x      LDRB     r1,[r4,#3]
        0x08000fb0:    f8540b04    T...    LDR      r0,[r4],#4
        0x08000fb4:    f361601f    a..`    BFI      r0,r1,#24,#8
        0x08000fb8:    9004        ..      STR      r0,[sp,#0x10]
        0x08000fba:    48a9        .H      LDR      r0,[pc,#676] ; [0x8001260] = 0x2000043c
        0x08000fbc:    f8b0b00c    ....    LDRH     r11,[r0,#0xc]
        0x08000fc0:    ea5f70c8    _..p    LSLS     r0,r8,#31
        0x08000fc4:    d013        ..      BEQ      0x8000fee ; DAP_SWD_Transfer + 226
        0x08000fc6:    48a6        .H      LDR      r0,[pc,#664] ; [0x8001260] = 0x2000043c
        0x08000fc8:    f8b0900a    ....    LDRH     r9,[r0,#0xa]
        0x08000fcc:    2100        .!      MOVS     r1,#0
        0x08000fce:    4640        @F      MOV      r0,r8
        0x08000fd0:    f000fe29    ..).    BL       SWD_Transfer ; 0x8001c26
        0x08000fd4:    2802        .(      CMP      r0,#2
        0x08000fd6:    d002        ..      BEQ      0x8000fde ; DAP_SWD_Transfer + 210
        0x08000fd8:    2801        .(      CMP      r0,#1
        0x08000fda:    d107        ..      BNE      0x8000fec ; DAP_SWD_Transfer + 224
        0x08000fdc:    e007        ..      B        0x8000fee ; DAP_SWD_Transfer + 226
        0x08000fde:    f1b90901    ....    SUBS     r9,r9,#1
        0x08000fe2:    d303        ..      BCC      0x8000fec ; DAP_SWD_Transfer + 224
        0x08000fe4:    f89a1000    ....    LDRB     r1,[r10,#0]
        0x08000fe8:    2900        .)      CMP      r1,#0
        0x08000fea:    d0ef        ..      BEQ      0x8000fcc ; DAP_SWD_Transfer + 192
        0x08000fec:    e0bd        ..      B        0x800116a ; DAP_SWD_Transfer + 606
        0x08000fee:    489c        .H      LDR      r0,[pc,#624] ; [0x8001260] = 0x2000043c
        0x08000ff0:    f8b0900a    ....    LDRH     r9,[r0,#0xa]
        0x08000ff4:    4669        iF      MOV      r1,sp
        0x08000ff6:    4640        @F      MOV      r0,r8
        0x08000ff8:    f000fe15    ....    BL       SWD_Transfer ; 0x8001c26
        0x08000ffc:    2802        .(      CMP      r0,#2
        0x08000ffe:    d002        ..      BEQ      0x8001006 ; DAP_SWD_Transfer + 250
        0x08001000:    2801        .(      CMP      r0,#1
        0x08001002:    d118        ..      BNE      0x8001036 ; DAP_SWD_Transfer + 298
        0x08001004:    e009        ..      B        0x800101a ; DAP_SWD_Transfer + 270
        0x08001006:    f1b90901    ....    SUBS     r9,r9,#1
        0x0800100a:    d314        ..      BCC      0x8001036 ; DAP_SWD_Transfer + 298
        0x0800100c:    f89a1000    ....    LDRB     r1,[r10,#0]
        0x08001010:    2900        .)      CMP      r1,#0
        0x08001012:    d0ef        ..      BEQ      0x8000ff4 ; DAP_SWD_Transfer + 232
        0x08001014:    e00f        ..      B        0x8001036 ; DAP_SWD_Transfer + 298
        0x08001016:    e0c6        ..      B        0x80011a6 ; DAP_SWD_Transfer + 666
        0x08001018:    e055        U.      B        0x80010c6 ; DAP_SWD_Transfer + 442
        0x0800101a:    4991        .I      LDR      r1,[pc,#580] ; [0x8001260] = 0x2000043c
        0x0800101c:    9a00        ..      LDR      r2,[sp,#0]
        0x0800101e:    6909        .i      LDR      r1,[r1,#0x10]
        0x08001020:    4011        .@      ANDS     r1,r1,r2
        0x08001022:    9a04        ..      LDR      r2,[sp,#0x10]
        0x08001024:    4291        .B      CMP      r1,r2
        0x08001026:    d006        ..      BEQ      0x8001036 ; DAP_SWD_Transfer + 298
        0x08001028:    f1bb0b01    ....    SUBS     r11,r11,#1
        0x0800102c:    d303        ..      BCC      0x8001036 ; DAP_SWD_Transfer + 298
        0x0800102e:    f89a1000    ....    LDRB     r1,[r10,#0]
        0x08001032:    2900        .)      CMP      r1,#0
        0x08001034:    d0db        ..      BEQ      0x8000fee ; DAP_SWD_Transfer + 226
        0x08001036:    498a        .I      LDR      r1,[pc,#552] ; [0x8001260] = 0x2000043c
        0x08001038:    9a00        ..      LDR      r2,[sp,#0]
        0x0800103a:    6909        .i      LDR      r1,[r1,#0x10]
        0x0800103c:    4011        .@      ANDS     r1,r1,r2
        0x0800103e:    9a04        ..      LDR      r2,[sp,#0x10]
        0x08001040:    4291        .B      CMP      r1,r2
        0x08001042:    d001        ..      BEQ      0x8001048 ; DAP_SWD_Transfer + 316
        0x08001044:    f0400010    @...    ORR      r0,r0,#0x10
        0x08001048:    2801        .(      CMP      r0,#1
        0x0800104a:    d117        ..      BNE      0x800107c ; DAP_SWD_Transfer + 368
        0x0800104c:    e039        9.      B        0x80010c2 ; DAP_SWD_Transfer + 438
        0x0800104e:    4984        .I      LDR      r1,[pc,#528] ; [0x8001260] = 0x2000043c
        0x08001050:    f8b1900a    ....    LDRH     r9,[r1,#0xa]
        0x08001054:    ea5f71c8    _..q    LSLS     r1,r8,#31
        0x08001058:    d013        ..      BEQ      0x8001082 ; DAP_SWD_Transfer + 374
        0x0800105a:    bb97        ..      CBNZ     r7,0x80010c2 ; DAP_SWD_Transfer + 438
        0x0800105c:    2100        .!      MOVS     r1,#0
        0x0800105e:    4640        @F      MOV      r0,r8
        0x08001060:    f000fde1    ....    BL       SWD_Transfer ; 0x8001c26
        0x08001064:    2802        .(      CMP      r0,#2
        0x08001066:    d002        ..      BEQ      0x800106e ; DAP_SWD_Transfer + 354
        0x08001068:    2801        .(      CMP      r0,#1
        0x0800106a:    d17e        ~.      BNE      0x800116a ; DAP_SWD_Transfer + 606
        0x0800106c:    e007        ..      B        0x800107e ; DAP_SWD_Transfer + 370
        0x0800106e:    f1b90901    ....    SUBS     r9,r9,#1
        0x08001072:    d37a        z.      BCC      0x800116a ; DAP_SWD_Transfer + 606
        0x08001074:    f89a1000    ....    LDRB     r1,[r10,#0]
        0x08001078:    2900        .)      CMP      r1,#0
        0x0800107a:    d0ef        ..      BEQ      0x800105c ; DAP_SWD_Transfer + 336
        0x0800107c:    e075        u.      B        0x800116a ; DAP_SWD_Transfer + 606
        0x0800107e:    2701        .'      MOVS     r7,#1
        0x08001080:    e01f        ..      B        0x80010c2 ; DAP_SWD_Transfer + 438
        0x08001082:    4669        iF      MOV      r1,sp
        0x08001084:    4640        @F      MOV      r0,r8
        0x08001086:    f000fdce    ....    BL       SWD_Transfer ; 0x8001c26
        0x0800108a:    2802        .(      CMP      r0,#2
        0x0800108c:    d002        ..      BEQ      0x8001094 ; DAP_SWD_Transfer + 392
        0x0800108e:    2801        .(      CMP      r0,#1
        0x08001090:    d16b        k.      BNE      0x800116a ; DAP_SWD_Transfer + 606
        0x08001092:    e007        ..      B        0x80010a4 ; DAP_SWD_Transfer + 408
        0x08001094:    f1b90901    ....    SUBS     r9,r9,#1
        0x08001098:    d367        g.      BCC      0x800116a ; DAP_SWD_Transfer + 606
        0x0800109a:    f89a1000    ....    LDRB     r1,[r10,#0]
        0x0800109e:    2900        .)      CMP      r1,#0
        0x080010a0:    d0ef        ..      BEQ      0x8001082 ; DAP_SWD_Transfer + 374
        0x080010a2:    e062        b.      B        0x800116a ; DAP_SWD_Transfer + 606
        0x080010a4:    9900        ..      LDR      r1,[sp,#0]
        0x080010a6:    f8051b01    ....    STRB     r1,[r5],#1
        0x080010aa:    9900        ..      LDR      r1,[sp,#0]
        0x080010ac:    0a09        ..      LSRS     r1,r1,#8
        0x080010ae:    f8051b01    ....    STRB     r1,[r5],#1
        0x080010b2:    9900        ..      LDR      r1,[sp,#0]
        0x080010b4:    0c09        ..      LSRS     r1,r1,#16
        0x080010b6:    f8051b02    ....    STRB     r1,[r5],#2
        0x080010ba:    9900        ..      LDR      r1,[sp,#0]
        0x080010bc:    0e09        ..      LSRS     r1,r1,#24
        0x080010be:    f8051c01    ....    STRB     r1,[r5,#-1]
        0x080010c2:    2100        .!      MOVS     r1,#0
        0x080010c4:    e046        F.      B        0x8001154 ; DAP_SWD_Transfer + 584
        0x080010c6:    b31f        ..      CBZ      r7,0x8001110 ; DAP_SWD_Transfer + 516
        0x080010c8:    4865        eH      LDR      r0,[pc,#404] ; [0x8001260] = 0x2000043c
        0x080010ca:    f8b0900a    ....    LDRH     r9,[r0,#0xa]
        0x080010ce:    4669        iF      MOV      r1,sp
        0x080010d0:    200e        .       MOVS     r0,#0xe
        0x080010d2:    f000fda8    ....    BL       SWD_Transfer ; 0x8001c26
        0x080010d6:    2802        .(      CMP      r0,#2
        0x080010d8:    d002        ..      BEQ      0x80010e0 ; DAP_SWD_Transfer + 468
        0x080010da:    2801        .(      CMP      r0,#1
        0x080010dc:    d145        E.      BNE      0x800116a ; DAP_SWD_Transfer + 606
        0x080010de:    e007        ..      B        0x80010f0 ; DAP_SWD_Transfer + 484
        0x080010e0:    f1b90901    ....    SUBS     r9,r9,#1
        0x080010e4:    d341        A.      BCC      0x800116a ; DAP_SWD_Transfer + 606
        0x080010e6:    f89a1000    ....    LDRB     r1,[r10,#0]
        0x080010ea:    2900        .)      CMP      r1,#0
        0x080010ec:    d0ef        ..      BEQ      0x80010ce ; DAP_SWD_Transfer + 450
        0x080010ee:    e03c        <.      B        0x800116a ; DAP_SWD_Transfer + 606
        0x080010f0:    9800        ..      LDR      r0,[sp,#0]
        0x080010f2:    f8050b01    ....    STRB     r0,[r5],#1
        0x080010f6:    9800        ..      LDR      r0,[sp,#0]
        0x080010f8:    0a00        ..      LSRS     r0,r0,#8
        0x080010fa:    f8050b01    ....    STRB     r0,[r5],#1
        0x080010fe:    9800        ..      LDR      r0,[sp,#0]
        0x08001100:    0c00        ..      LSRS     r0,r0,#16
        0x08001102:    f8050b02    ....    STRB     r0,[r5],#2
        0x08001106:    9800        ..      LDR      r0,[sp,#0]
        0x08001108:    0e00        ..      LSRS     r0,r0,#24
        0x0800110a:    f8050c01    ....    STRB     r0,[r5,#-1]
        0x0800110e:    2700        .'      MOVS     r7,#0
        0x08001110:    78e1        .x      LDRB     r1,[r4,#3]
        0x08001112:    f8540b04    T...    LDR      r0,[r4],#4
        0x08001116:    f361601f    a..`    BFI      r0,r1,#24,#8
        0x0800111a:    9000        ..      STR      r0,[sp,#0]
        0x0800111c:    ea5f6188    _..a    LSLS     r1,r8,#26
        0x08001120:    d503        ..      BPL      0x800112a ; DAP_SWD_Transfer + 542
        0x08001122:    494f        OI      LDR      r1,[pc,#316] ; [0x8001260] = 0x2000043c
        0x08001124:    6108        .a      STR      r0,[r1,#0x10]
        0x08001126:    2001        .       MOVS     r0,#1
        0x08001128:    e015        ..      B        0x8001156 ; DAP_SWD_Transfer + 586
        0x0800112a:    484d        MH      LDR      r0,[pc,#308] ; [0x8001260] = 0x2000043c
        0x0800112c:    f8b0900a    ....    LDRH     r9,[r0,#0xa]
        0x08001130:    4669        iF      MOV      r1,sp
        0x08001132:    4640        @F      MOV      r0,r8
        0x08001134:    f000fd77    ..w.    BL       SWD_Transfer ; 0x8001c26
        0x08001138:    2802        .(      CMP      r0,#2
        0x0800113a:    d002        ..      BEQ      0x8001142 ; DAP_SWD_Transfer + 566
        0x0800113c:    2801        .(      CMP      r0,#1
        0x0800113e:    d114        ..      BNE      0x800116a ; DAP_SWD_Transfer + 606
        0x08001140:    e007        ..      B        0x8001152 ; DAP_SWD_Transfer + 582
        0x08001142:    f1b90901    ....    SUBS     r9,r9,#1
        0x08001146:    d310        ..      BCC      0x800116a ; DAP_SWD_Transfer + 606
        0x08001148:    f89a1000    ....    LDRB     r1,[r10,#0]
        0x0800114c:    2900        .)      CMP      r1,#0
        0x0800114e:    d0ef        ..      BEQ      0x8001130 ; DAP_SWD_Transfer + 548
        0x08001150:    e00b        ..      B        0x800116a ; DAP_SWD_Transfer + 606
        0x08001152:    2101        .!      MOVS     r1,#1
        0x08001154:    9103        ..      STR      r1,[sp,#0xc]
        0x08001156:    9901        ..      LDR      r1,[sp,#4]
        0x08001158:    1c49        I.      ADDS     r1,r1,#1
        0x0800115a:    9101        ..      STR      r1,[sp,#4]
        0x0800115c:    f89a1000    ....    LDRB     r1,[r10,#0]
        0x08001160:    b919        ..      CBNZ     r1,0x800116a ; DAP_SWD_Transfer + 606
        0x08001162:    1e76        v.      SUBS     r6,r6,#1
        0x08001164:    f47faee5    ....    BNE      0x8000f32 ; DAP_SWD_Transfer + 38
        0x08001168:    e009        ..      B        0x800117e ; DAP_SWD_Transfer + 626
        0x0800116a:    b146        F.      CBZ      r6,0x800117e ; DAP_SWD_Transfer + 626
        0x0800116c:    f8141b01    ....    LDRB     r1,[r4],#1
        0x08001170:    078a        ..      LSLS     r2,r1,#30
        0x08001172:    d501        ..      BPL      0x8001178 ; DAP_SWD_Transfer + 620
        0x08001174:    06c9        ..      LSLS     r1,r1,#27
        0x08001176:    d500        ..      BPL      0x800117a ; DAP_SWD_Transfer + 622
        0x08001178:    1d24        $.      ADDS     r4,r4,#4
        0x0800117a:    1e76        v.      SUBS     r6,r6,#1
        0x0800117c:    e7f5        ..      B        0x800116a ; DAP_SWD_Transfer + 606
        0x0800117e:    2801        .(      CMP      r0,#1
        0x08001180:    d132        2.      BNE      0x80011e8 ; DAP_SWD_Transfer + 732
        0x08001182:    b30f        ..      CBZ      r7,0x80011c8 ; DAP_SWD_Transfer + 700
        0x08001184:    4836        6H      LDR      r0,[pc,#216] ; [0x8001260] = 0x2000043c
        0x08001186:    4657        WF      MOV      r7,r10
        0x08001188:    8946        F.      LDRH     r6,[r0,#0xa]
        0x0800118a:    4669        iF      MOV      r1,sp
        0x0800118c:    200e        .       MOVS     r0,#0xe
        0x0800118e:    f000fd4a    ..J.    BL       SWD_Transfer ; 0x8001c26
        0x08001192:    2802        .(      CMP      r0,#2
        0x08001194:    d002        ..      BEQ      0x800119c ; DAP_SWD_Transfer + 656
        0x08001196:    2801        .(      CMP      r0,#1
        0x08001198:    d126        &.      BNE      0x80011e8 ; DAP_SWD_Transfer + 732
        0x0800119a:    e005        ..      B        0x80011a8 ; DAP_SWD_Transfer + 668
        0x0800119c:    1e76        v.      SUBS     r6,r6,#1
        0x0800119e:    d323        #.      BCC      0x80011e8 ; DAP_SWD_Transfer + 732
        0x080011a0:    7839        9x      LDRB     r1,[r7,#0]
        0x080011a2:    2900        .)      CMP      r1,#0
        0x080011a4:    d0f1        ..      BEQ      0x800118a ; DAP_SWD_Transfer + 638
        0x080011a6:    e01f        ..      B        0x80011e8 ; DAP_SWD_Transfer + 732
        0x080011a8:    9900        ..      LDR      r1,[sp,#0]
        0x080011aa:    f8051b01    ....    STRB     r1,[r5],#1
        0x080011ae:    9900        ..      LDR      r1,[sp,#0]
        0x080011b0:    0a09        ..      LSRS     r1,r1,#8
        0x080011b2:    f8051b01    ....    STRB     r1,[r5],#1
        0x080011b6:    9900        ..      LDR      r1,[sp,#0]
        0x080011b8:    0c09        ..      LSRS     r1,r1,#16
        0x080011ba:    f8051b02    ....    STRB     r1,[r5],#2
        0x080011be:    9900        ..      LDR      r1,[sp,#0]
        0x080011c0:    0e09        ..      LSRS     r1,r1,#24
        0x080011c2:    f8051c01    ....    STRB     r1,[r5,#-1]
        0x080011c6:    e00f        ..      B        0x80011e8 ; DAP_SWD_Transfer + 732
        0x080011c8:    9903        ..      LDR      r1,[sp,#0xc]
        0x080011ca:    b169        i.      CBZ      r1,0x80011e8 ; DAP_SWD_Transfer + 732
        0x080011cc:    4824        $H      LDR      r0,[pc,#144] ; [0x8001260] = 0x2000043c
        0x080011ce:    4657        WF      MOV      r7,r10
        0x080011d0:    8946        F.      LDRH     r6,[r0,#0xa]
        0x080011d2:    2100        .!      MOVS     r1,#0
        0x080011d4:    200e        .       MOVS     r0,#0xe
        0x080011d6:    f000fd26    ..&.    BL       SWD_Transfer ; 0x8001c26
        0x080011da:    2802        .(      CMP      r0,#2
        0x080011dc:    d104        ..      BNE      0x80011e8 ; DAP_SWD_Transfer + 732
        0x080011de:    1e76        v.      SUBS     r6,r6,#1
        0x080011e0:    d302        ..      BCC      0x80011e8 ; DAP_SWD_Transfer + 732
        0x080011e2:    7839        9x      LDRB     r1,[r7,#0]
        0x080011e4:    2900        .)      CMP      r1,#0
        0x080011e6:    d0f4        ..      BEQ      0x80011d2 ; DAP_SWD_Transfer + 710
        0x080011e8:    e9dd1201    ....    LDRD     r1,r2,[sp,#4]
        0x080011ec:    7011        .p      STRB     r1,[r2,#0]
        0x080011ee:    9902        ..      LDR      r1,[sp,#8]
        0x080011f0:    7048        Hp      STRB     r0,[r1,#1]
        0x080011f2:    9802        ..      LDR      r0,[sp,#8]
        0x080011f4:    1a29        ).      SUBS     r1,r5,r0
        0x080011f6:    9805        ..      LDR      r0,[sp,#0x14]
        0x080011f8:    b007        ..      ADD      sp,sp,#0x1c
        0x080011fa:    1a20         .      SUBS     r0,r4,r0
        0x080011fc:    ea414000    A..@    ORR      r0,r1,r0,LSL #16
        0x08001200:    e8bd8ff0    ....    POP      {r4-r11,pc}
    DAP_SWD_TransferBlock
        0x08001204:    e92d4ff8    -..O    PUSH     {r3-r11,lr}
        0x08001208:    2500        .%      MOVS     r5,#0
        0x0800120a:    f8df8050    ..P.    LDR      r8,[pc,#80] ; [0x800125c] = 0x20000010
        0x0800120e:    4606        .F      MOV      r6,r0
        0x08001210:    4628        (F      MOV      r0,r5
        0x08001212:    468a        .F      MOV      r10,r1
        0x08001214:    1ccf        ..      ADDS     r7,r1,#3
        0x08001216:    f8885000    ...P    STRB     r5,[r8,#0]
        0x0800121a:    f8b64001    ...@    LDRH     r4,[r6,#1]
        0x0800121e:    1cf6        ..      ADDS     r6,r6,#3
        0x08001220:    2c00        .,      CMP      r4,#0
        0x08001222:    d07e        ~.      BEQ      0x8001322 ; DAP_SWD_TransferBlock + 286
        0x08001224:    f8169b01    ....    LDRB     r9,[r6],#1
        0x08001228:    f8dfb034    ..4.    LDR      r11,[pc,#52] ; [0x8001260] = 0x2000043c
        0x0800122c:    ea5f7189    _..q    LSLS     r1,r9,#30
        0x08001230:    d566        f.      BPL      0x8001300 ; DAP_SWD_TransferBlock + 252
        0x08001232:    ea5f71c9    _..q    LSLS     r1,r9,#31
        0x08001236:    d044        D.      BEQ      0x80012c2 ; DAP_SWD_TransferBlock + 190
        0x08001238:    f8bb600a    ...`    LDRH     r6,[r11,#0xa]
        0x0800123c:    2100        .!      MOVS     r1,#0
        0x0800123e:    4648        HF      MOV      r0,r9
        0x08001240:    f000fcf1    ....    BL       SWD_Transfer ; 0x8001c26
        0x08001244:    2802        .(      CMP      r0,#2
        0x08001246:    d00d        ..      BEQ      0x8001264 ; DAP_SWD_TransferBlock + 96
        0x08001248:    2801        .(      CMP      r0,#1
        0x0800124a:    d16a        j.      BNE      0x8001322 ; DAP_SWD_TransferBlock + 286
        0x0800124c:    e039        9.      B        0x80012c2 ; DAP_SWD_TransferBlock + 190
    $d
        0x0800124e:    0000        ..      DCW    0
        0x08001250:    40010c10    ...@    DCD    1073810448
        0x08001254:    002dc6c0    ..-.    DCD    3000000
        0x08001258:    00060001    ....    DCD    393217
        0x0800125c:    20000010    ...     DCD    536870928
        0x08001260:    2000043c    <..     DCD    536871996
    $t
        0x08001264:    1e76        v.      SUBS     r6,r6,#1
        0x08001266:    d35c        \.      BCC      0x8001322 ; DAP_SWD_TransferBlock + 286
        0x08001268:    f8981000    ....    LDRB     r1,[r8,#0]
        0x0800126c:    2900        .)      CMP      r1,#0
        0x0800126e:    d0e5        ..      BEQ      0x800123c ; DAP_SWD_TransferBlock + 56
        0x08001270:    e057        W.      B        0x8001322 ; DAP_SWD_TransferBlock + 286
        0x08001272:    b924        $.      CBNZ     r4,0x800127e ; DAP_SWD_TransferBlock + 122
        0x08001274:    ea5f70c9    _..p    LSLS     r0,r9,#31
        0x08001278:    d001        ..      BEQ      0x800127e ; DAP_SWD_TransferBlock + 122
        0x0800127a:    f04f090e    O...    MOV      r9,#0xe
        0x0800127e:    f8bb600a    ...`    LDRH     r6,[r11,#0xa]
        0x08001282:    4669        iF      MOV      r1,sp
        0x08001284:    4648        HF      MOV      r0,r9
        0x08001286:    f000fcce    ....    BL       SWD_Transfer ; 0x8001c26
        0x0800128a:    2802        .(      CMP      r0,#2
        0x0800128c:    d002        ..      BEQ      0x8001294 ; DAP_SWD_TransferBlock + 144
        0x0800128e:    2801        .(      CMP      r0,#1
        0x08001290:    d147        G.      BNE      0x8001322 ; DAP_SWD_TransferBlock + 286
        0x08001292:    e006        ..      B        0x80012a2 ; DAP_SWD_TransferBlock + 158
        0x08001294:    1e76        v.      SUBS     r6,r6,#1
        0x08001296:    d344        D.      BCC      0x8001322 ; DAP_SWD_TransferBlock + 286
        0x08001298:    f8981000    ....    LDRB     r1,[r8,#0]
        0x0800129c:    2900        .)      CMP      r1,#0
        0x0800129e:    d0f0        ..      BEQ      0x8001282 ; DAP_SWD_TransferBlock + 126
        0x080012a0:    e03f        ?.      B        0x8001322 ; DAP_SWD_TransferBlock + 286
        0x080012a2:    9900        ..      LDR      r1,[sp,#0]
        0x080012a4:    f8071b01    ....    STRB     r1,[r7],#1
        0x080012a8:    9900        ..      LDR      r1,[sp,#0]
        0x080012aa:    0a09        ..      LSRS     r1,r1,#8
        0x080012ac:    f8071b01    ....    STRB     r1,[r7],#1
        0x080012b0:    9900        ..      LDR      r1,[sp,#0]
        0x080012b2:    0c09        ..      LSRS     r1,r1,#16
        0x080012b4:    f8071b02    ....    STRB     r1,[r7],#2
        0x080012b8:    9900        ..      LDR      r1,[sp,#0]
        0x080012ba:    0e09        ..      LSRS     r1,r1,#24
        0x080012bc:    f8071c01    ....    STRB     r1,[r7,#-1]
        0x080012c0:    1c6d        m.      ADDS     r5,r5,#1
        0x080012c2:    1e64        d.      SUBS     r4,r4,#1
        0x080012c4:    d2d5        ..      BCS      0x8001272 ; DAP_SWD_TransferBlock + 110
        0x080012c6:    e02c        ,.      B        0x8001322 ; DAP_SWD_TransferBlock + 286
        0x080012c8:    78f1        .x      LDRB     r1,[r6,#3]
        0x080012ca:    f8560b04    V...    LDR      r0,[r6],#4
        0x080012ce:    f361601f    a..`    BFI      r0,r1,#24,#8
        0x080012d2:    9000        ..      STR      r0,[sp,#0]
        0x080012d4:    48d8        .H      LDR      r0,[pc,#864] ; [0x8001638] = 0x2000043c
        0x080012d6:    f8b0800a    ....    LDRH     r8,[r0,#0xa]
        0x080012da:    4669        iF      MOV      r1,sp
        0x080012dc:    4648        HF      MOV      r0,r9
        0x080012de:    f000fca2    ....    BL       SWD_Transfer ; 0x8001c26
        0x080012e2:    2802        .(      CMP      r0,#2
        0x080012e4:    d002        ..      BEQ      0x80012ec ; DAP_SWD_TransferBlock + 232
        0x080012e6:    2801        .(      CMP      r0,#1
        0x080012e8:    d11b        ..      BNE      0x8001322 ; DAP_SWD_TransferBlock + 286
        0x080012ea:    e007        ..      B        0x80012fc ; DAP_SWD_TransferBlock + 248
        0x080012ec:    f1b80801    ....    SUBS     r8,r8,#1
        0x080012f0:    d317        ..      BCC      0x8001322 ; DAP_SWD_TransferBlock + 286
        0x080012f2:    f89b1000    ....    LDRB     r1,[r11,#0]
        0x080012f6:    2900        .)      CMP      r1,#0
        0x080012f8:    d0ef        ..      BEQ      0x80012da ; DAP_SWD_TransferBlock + 214
        0x080012fa:    e012        ..      B        0x8001322 ; DAP_SWD_TransferBlock + 286
        0x080012fc:    1c6d        m.      ADDS     r5,r5,#1
        0x080012fe:    e000        ..      B        0x8001302 ; DAP_SWD_TransferBlock + 254
        0x08001300:    46c3        .F      MOV      r11,r8
        0x08001302:    1e64        d.      SUBS     r4,r4,#1
        0x08001304:    d2e0        ..      BCS      0x80012c8 ; DAP_SWD_TransferBlock + 196
        0x08001306:    48cc        .H      LDR      r0,[pc,#816] ; [0x8001638] = 0x2000043c
        0x08001308:    465e        ^F      MOV      r6,r11
        0x0800130a:    8944        D.      LDRH     r4,[r0,#0xa]
        0x0800130c:    2100        .!      MOVS     r1,#0
        0x0800130e:    200e        .       MOVS     r0,#0xe
        0x08001310:    f000fc89    ....    BL       SWD_Transfer ; 0x8001c26
        0x08001314:    2802        .(      CMP      r0,#2
        0x08001316:    d104        ..      BNE      0x8001322 ; DAP_SWD_TransferBlock + 286
        0x08001318:    1e64        d.      SUBS     r4,r4,#1
        0x0800131a:    d302        ..      BCC      0x8001322 ; DAP_SWD_TransferBlock + 286
        0x0800131c:    7831        1x      LDRB     r1,[r6,#0]
        0x0800131e:    2900        .)      CMP      r1,#0
        0x08001320:    d0f4        ..      BEQ      0x800130c ; DAP_SWD_TransferBlock + 264
        0x08001322:    f88a5000    ...P    STRB     r5,[r10,#0]
        0x08001326:    0a2a        *.      LSRS     r2,r5,#8
        0x08001328:    f88a2001    ...     STRB     r2,[r10,#1]
        0x0800132c:    f88a0002    ....    STRB     r0,[r10,#2]
        0x08001330:    eba7000a    ....    SUB      r0,r7,r10
        0x08001334:    e8bd8ff8    ....    POP      {r3-r11,pc}
    DAP_ProcessVendorCommand
        0x08001338:    20ff        .       MOVS     r0,#0xff
        0x0800133a:    7008        .p      STRB     r0,[r1,#0]
        0x0800133c:    f04f1001    O...    MOV      r0,#0x10001
        0x08001340:    4770        pG      BX       lr
    DAP_ProcessCommand
        0x08001342:    e92d4ff8    -..O    PUSH     {r3-r11,lr}
        0x08001346:    7802        .x      LDRB     r2,[r0,#0]
        0x08001348:    f1a20380    ....    SUB      r3,r2,#0x80
        0x0800134c:    2b1f        .+      CMP      r3,#0x1f
        0x0800134e:    d802        ..      BHI      0x8001356 ; DAP_ProcessCommand + 20
        0x08001350:    f7fffff2    ....    BL       DAP_ProcessVendorCommand ; 0x8001338
        0x08001354:    e7ee        ..      B        0x8001334 ; DAP_SWD_TransferBlock + 304
        0x08001356:    f8012b01    ...+    STRB     r2,[r1],#1
        0x0800135a:    460c        .F      MOV      r4,r1
        0x0800135c:    f810cb01    ....    LDRB     r12,[r0],#1
        0x08001360:    2601        .&      MOVS     r6,#1
        0x08001362:    21ff        .!      MOVS     r1,#0xff
        0x08001364:    4bb5        .K      LDR      r3,[pc,#724] ; [0x800163c] = 0x20001
        0x08001366:    f8df92d8    ....    LDR      r9,[pc,#728] ; [0x8001640] = 0x50001
        0x0800136a:    2500        .%      MOVS     r5,#0
        0x0800136c:    4ab2        .J      LDR      r2,[pc,#712] ; [0x8001638] = 0x2000043c
        0x0800136e:    f04f0a03    O...    MOV      r10,#3
        0x08001372:    f04f1701    O...    MOV      r7,#0x10001
        0x08001376:    f1bc0f17    ....    CMP      r12,#0x17
        0x0800137a:    d26e        n.      BCS      0x800145a ; DAP_ProcessCommand + 280
        0x0800137c:    e8dff00c    ....    TBB      [pc,r12]
    $d
        0x08001380:    593e370c    .7>Y    DCD    1497249548
        0x08001384:    6de3c7be    ...m    DCD    1843644350
        0x08001388:    6d655eff    .^em    DCD    1835359999
        0x0800138c:    6d6d6d6d    mmmm    DCD    1835887981
        0x08001390:    9a8a6e69    in..    DCD    2592763497
        0x08001394:    00bcb9a3    ....    DCD    12368291
    $t
        0x08001398:    7801        .x      LDRB     r1,[r0,#0]
        0x0800139a:    1c62        b.      ADDS     r2,r4,#1
        0x0800139c:    2000        .       MOVS     r0,#0
        0x0800139e:    2906        .)      CMP      r1,#6
        0x080013a0:    d021        !.      BEQ      0x80013e6 ; DAP_ProcessCommand + 164
        0x080013a2:    dc06        ..      BGT      0x80013b2 ; DAP_ProcessCommand + 112
        0x080013a4:    2905        .)      CMP      r1,#5
        0x080013a6:    d21e        ..      BCS      0x80013e6 ; DAP_ProcessCommand + 164
        0x080013a8:    e8dff001    ....    TBB      [pc,r1]
    $d
        0x080013ac:    1d1d1d1d    ....    DCD    488447261
        0x080013b0:    000c        ..      DCW    12
    $t
        0x080013b2:    29f0        .)      CMP      r1,#0xf0
        0x080013b4:    d00d        ..      BEQ      0x80013d2 ; DAP_ProcessCommand + 144
        0x080013b6:    29fd        .)      CMP      r1,#0xfd
        0x080013b8:    d015        ..      BEQ      0x80013e6 ; DAP_ProcessCommand + 164
        0x080013ba:    29fe        .)      CMP      r1,#0xfe
        0x080013bc:    d011        ..      BEQ      0x80013e2 ; DAP_ProcessCommand + 160
        0x080013be:    29ff        .)      CMP      r1,#0xff
        0x080013c0:    d111        ..      BNE      0x80013e6 ; DAP_ProcessCommand + 164
        0x080013c2:    e009        ..      B        0x80013d8 ; DAP_ProcessCommand + 150
        0x080013c4:    489f        .H      LDR      r0,[pc,#636] ; [0x8001644] = 0x800c19c
        0x080013c6:    6801        .h      LDR      r1,[r0,#0]
        0x080013c8:    6011        .`      STR      r1,[r2,#0]
        0x080013ca:    7900        .y      LDRB     r0,[r0,#4]
        0x080013cc:    7110        .q      STRB     r0,[r2,#4]
        0x080013ce:    2005        .       MOVS     r0,#5
        0x080013d0:    e009        ..      B        0x80013e6 ; DAP_ProcessCommand + 164
        0x080013d2:    2011        .       MOVS     r0,#0x11
        0x080013d4:    7010        .p      STRB     r0,[r2,#0]
        0x080013d6:    e005        ..      B        0x80013e4 ; DAP_ProcessCommand + 162
        0x080013d8:    2040        @       MOVS     r0,#0x40
        0x080013da:    7010        .p      STRB     r0,[r2,#0]
        0x080013dc:    7055        Up      STRB     r5,[r2,#1]
        0x080013de:    2002        .       MOVS     r0,#2
        0x080013e0:    e001        ..      B        0x80013e6 ; DAP_ProcessCommand + 164
        0x080013e2:    7016        .p      STRB     r6,[r2,#0]
        0x080013e4:    2001        .       MOVS     r0,#1
        0x080013e6:    7020         p      STRB     r0,[r4,#0]
        0x080013e8:    f1001002    ....    ADD      r0,r0,#0x20002
        0x080013ec:    e7a2        ..      B        0x8001334 ; DAP_SWD_TransferBlock + 304
        0x080013ee:    7800        .x      LDRB     r0,[r0,#0]
        0x080013f0:    b350        P.      CBZ      r0,0x8001448 ; DAP_ProcessCommand + 262
        0x080013f2:    2801        .(      CMP      r0,#1
        0x080013f4:    d13e        >.      BNE      0x8001474 ; DAP_ProcessCommand + 306
        0x080013f6:    e04b        K.      B        0x8001490 ; DAP_ProcessCommand + 334
        0x080013f8:    461e        .F      MOV      r6,r3
        0x080013fa:    e0c5        ..      B        0x8001588 ; DAP_ProcessCommand + 582
        0x080013fc:    7805        .x      LDRB     r5,[r0,#0]
        0x080013fe:    b12d        -.      CBZ      r5,0x800140c ; DAP_ProcessCommand + 202
        0x08001400:    2d01        .-      CMP      r5,#1
        0x08001402:    d004        ..      BEQ      0x800140e ; DAP_ProcessCommand + 204
        0x08001404:    2500        .%      MOVS     r5,#0
        0x08001406:    7025        %p      STRB     r5,[r4,#0]
        0x08001408:    463e        >F      MOV      r6,r7
        0x0800140a:    e0bd        ..      B        0x8001588 ; DAP_ProcessCommand + 582
        0x0800140c:    2501        .%      MOVS     r5,#1
        0x0800140e:    498e        .I      LDR      r1,[pc,#568] ; [0x8001648] = 0x40010c10
        0x08001410:    7016        .p      STRB     r6,[r2,#0]
        0x08001412:    f44f40c0    O..@    MOV      r0,#0x6000
        0x08001416:    6008        .`      STR      r0,[r1,#0]
        0x08001418:    f8ad0000    ....    STRH     r0,[sp,#0]
        0x0800141c:    2010        .       MOVS     r0,#0x10
        0x0800141e:    f88d0003    ....    STRB     r0,[sp,#3]
        0x08001422:    4889        .H      LDR      r0,[pc,#548] ; [0x8001648] = 0x40010c10
        0x08001424:    f88da002    ....    STRB     r10,[sp,#2]
        0x08001428:    4669        iF      MOV      r1,sp
        0x0800142a:    3810        .8      SUBS     r0,r0,#0x10
        0x0800142c:    f000fd29    ..).    BL       GPIO_Init ; 0x8001e82
        0x08001430:    e7e9        ..      B        0x8001406 ; DAP_ProcessCommand + 196
        0x08001432:    7015        .p      STRB     r5,[r2,#0]
        0x08001434:    f000f8f2    ....    BL       PORT_OFF ; 0x800161c
        0x08001438:    7025        %p      STRB     r5,[r4,#0]
        0x0800143a:    e0a5        ..      B        0x8001588 ; DAP_ProcessCommand + 582
        0x0800143c:    8800        ..      LDRH     r0,[r0,#0]
        0x0800143e:    eb000040    ..@.    ADD      r0,r0,r0,LSL #1
        0x08001442:    00c0        ..      LSLS     r0,r0,#3
        0x08001444:    1e40        @.      SUBS     r0,r0,#1
        0x08001446:    d1fd        ..      BNE      0x8001444 ; DAP_ProcessCommand + 258
        0x08001448:    e022        ".      B        0x8001490 ; DAP_ProcessCommand + 334
        0x0800144a:    7065        ep      STRB     r5,[r4,#1]
        0x0800144c:    7025        %p      STRB     r5,[r4,#0]
        0x0800144e:    2602        .&      MOVS     r6,#2
        0x08001450:    e09a        ..      B        0x8001588 ; DAP_ProcessCommand + 582
        0x08001452:    4621        !F      MOV      r1,r4
        0x08001454:    f7fffcfc    ....    BL       DAP_SWJ_Pins ; 0x8000e50
        0x08001458:    e070        p.      B        0x800153c ; DAP_ProcessCommand + 506
        0x0800145a:    e0a4        ..      B        0x80015a6 ; DAP_ProcessCommand + 612
        0x0800145c:    78c3        .x      LDRB     r3,[r0,#3]
        0x0800145e:    6800        .h      LDR      r0,[r0,#0]
        0x08001460:    f363601f    c..`    BFI      r0,r3,#24,#8
        0x08001464:    4b79        yK      LDR      r3,[pc,#484] ; [0x800164c] = 0x40001
        0x08001466:    b128        (.      CBZ      r0,0x8001474 ; DAP_ProcessCommand + 306
        0x08001468:    4979        yI      LDR      r1,[pc,#484] ; [0x8001650] = 0x112a880
        0x0800146a:    4288        .B      CMP      r0,r1
        0x0800146c:    d304        ..      BCC      0x8001478 ; DAP_ProcessCommand + 310
        0x0800146e:    7056        Vp      STRB     r6,[r2,#1]
        0x08001470:    6056        V`      STR      r6,[r2,#4]
        0x08001472:    e00d        ..      B        0x8001490 ; DAP_ProcessCommand + 334
        0x08001474:    7021        !p      STRB     r1,[r4,#0]
        0x08001476:    e7bf        ..      B        0x80013f8 ; DAP_ProcessCommand + 182
        0x08001478:    4976        vI      LDR      r1,[pc,#472] ; [0x8001654] = 0x22550ff
        0x0800147a:    7055        Up      STRB     r5,[r2,#1]
        0x0800147c:    4401        .D      ADD      r1,r1,r0
        0x0800147e:    fbb1f0f0    ....    UDIV     r0,r1,r0
        0x08001482:    2802        .(      CMP      r0,#2
        0x08001484:    d902        ..      BLS      0x800148c ; DAP_ProcessCommand + 330
        0x08001486:    fbb0f0fa    ....    UDIV     r0,r0,r10
        0x0800148a:    e000        ..      B        0x800148e ; DAP_ProcessCommand + 332
        0x0800148c:    2001        .       MOVS     r0,#1
        0x0800148e:    6050        P`      STR      r0,[r2,#4]
        0x08001490:    7025        %p      STRB     r5,[r4,#0]
        0x08001492:    e7b1        ..      B        0x80013f8 ; DAP_ProcessCommand + 182
        0x08001494:    f8106b01    ...k    LDRB     r6,[r0],#1
        0x08001498:    b90e        ..      CBNZ     r6,0x800149e ; DAP_ProcessCommand + 348
        0x0800149a:    f44f7680    O..v    MOV      r6,#0x100
        0x0800149e:    4601        .F      MOV      r1,r0
        0x080014a0:    4630        0F      MOV      r0,r6
        0x080014a2:    f000f8d9    ....    BL       SWJ_Sequence ; 0x8001658
        0x080014a6:    1df6        ..      ADDS     r6,r6,#7
        0x080014a8:    7025        %p      STRB     r5,[r4,#0]
        0x080014aa:    08f0        ..      LSRS     r0,r6,#3
        0x080014ac:    0406        ..      LSLS     r6,r0,#16
        0x080014ae:    f1061601    ....    ADD      r6,r6,#0x10001
        0x080014b2:    e069        i.      B        0x8001588 ; DAP_ProcessCommand + 582
        0x080014b4:    7800        .x      LDRB     r0,[r0,#0]
        0x080014b6:    f0000103    ....    AND      r1,r0,#3
        0x080014ba:    1c49        I.      ADDS     r1,r1,#1
        0x080014bc:    7511        .u      STRB     r1,[r2,#0x14]
        0x080014be:    f3c00080    ....    UBFX     r0,r0,#2,#1
        0x080014c2:    7550        Pu      STRB     r0,[r2,#0x15]
        0x080014c4:    e79f        ..      B        0x8001406 ; DAP_ProcessCommand + 196
        0x080014c6:    7021        !p      STRB     r1,[r4,#0]
        0x080014c8:    2201        ."      MOVS     r2,#1
        0x080014ca:    4616        .F      MOV      r6,r2
        0x080014cc:    f8103b01    ...;    LDRB     r3,[r0],#1
        0x080014d0:    e00a        ..      B        0x80014e8 ; DAP_ProcessCommand + 422
        0x080014d2:    f8101b01    ....    LDRB     r1,[r0],#1
        0x080014d6:    f011013f    ..?.    ANDS     r1,r1,#0x3f
        0x080014da:    d100        ..      BNE      0x80014de ; DAP_ProcessCommand + 412
        0x080014dc:    2140        @!      MOVS     r1,#0x40
        0x080014de:    1dc9        ..      ADDS     r1,r1,#7
        0x080014e0:    08c9        ..      LSRS     r1,r1,#3
        0x080014e2:    440a        .D      ADD      r2,r2,r1
        0x080014e4:    4408        .D      ADD      r0,r0,r1
        0x080014e6:    1c52        R.      ADDS     r2,r2,#1
        0x080014e8:    1e5b        [.      SUBS     r3,r3,#1
        0x080014ea:    d2f2        ..      BCS      0x80014d2 ; DAP_ProcessCommand + 400
        0x080014ec:    f362461f    b..F    BFI      r6,r2,#16,#16
        0x080014f0:    e04a        J.      B        0x8001588 ; DAP_ProcessCommand + 582
        0x080014f2:    7800        .x      LDRB     r0,[r0,#0]
        0x080014f4:    7021        !p      STRB     r1,[r4,#0]
        0x080014f6:    e7d9        ..      B        0x80014ac ; DAP_ProcessCommand + 362
        0x080014f8:    7021        !p      STRB     r1,[r4,#0]
        0x080014fa:    e785        ..      B        0x8001408 ; DAP_ProcessCommand + 198
        0x080014fc:    7801        .x      LDRB     r1,[r0,#0]
        0x080014fe:    7211        .r      STRB     r1,[r2,#8]
        0x08001500:    f8b01001    ....    LDRH     r1,[r0,#1]
        0x08001504:    8151        Q.      STRH     r1,[r2,#0xa]
        0x08001506:    f8b00003    ....    LDRH     r0,[r0,#3]
        0x0800150a:    8190        ..      STRH     r0,[r2,#0xc]
        0x0800150c:    e049        I.      B        0x80015a2 ; DAP_ProcessCommand + 608
        0x0800150e:    7812        .x      LDRB     r2,[r2,#0]
        0x08001510:    4621        !F      MOV      r1,r4
        0x08001512:    2a01        .*      CMP      r2,#1
        0x08001514:    d014        ..      BEQ      0x8001540 ; DAP_ProcessCommand + 510
        0x08001516:    4606        .F      MOV      r6,r0
        0x08001518:    1c40        @.      ADDS     r0,r0,#1
        0x0800151a:    f8102b01    ...+    LDRB     r2,[r0],#1
        0x0800151e:    b142        B.      CBZ      r2,0x8001532 ; DAP_ProcessCommand + 496
        0x08001520:    f8103b01    ...;    LDRB     r3,[r0],#1
        0x08001524:    079c        ..      LSLS     r4,r3,#30
        0x08001526:    d501        ..      BPL      0x800152c ; DAP_ProcessCommand + 490
        0x08001528:    06db        ..      LSLS     r3,r3,#27
        0x0800152a:    d500        ..      BPL      0x800152e ; DAP_ProcessCommand + 492
        0x0800152c:    1d00        ..      ADDS     r0,r0,#4
        0x0800152e:    1e52        R.      SUBS     r2,r2,#1
        0x08001530:    d1f6        ..      BNE      0x8001520 ; DAP_ProcessCommand + 478
        0x08001532:    1b80        ..      SUBS     r0,r0,r6
        0x08001534:    700d        .p      STRB     r5,[r1,#0]
        0x08001536:    0400        ..      LSLS     r0,r0,#16
        0x08001538:    704d        Mp      STRB     r5,[r1,#1]
        0x0800153a:    1c80        ..      ADDS     r0,r0,#2
        0x0800153c:    4606        .F      MOV      r6,r0
        0x0800153e:    e023        #.      B        0x8001588 ; DAP_ProcessCommand + 582
        0x08001540:    f7fffce4    ....    BL       DAP_SWD_Transfer ; 0x8000f0c
        0x08001544:    e7fa        ..      B        0x800153c ; DAP_ProcessCommand + 506
        0x08001546:    4606        .F      MOV      r6,r0
        0x08001548:    7810        .x      LDRB     r0,[r2,#0]
        0x0800154a:    4621        !F      MOV      r1,r4
        0x0800154c:    2801        .(      CMP      r0,#1
        0x0800154e:    d00a        ..      BEQ      0x8001566 ; DAP_ProcessCommand + 548
        0x08001550:    700d        .p      STRB     r5,[r1,#0]
        0x08001552:    704d        Mp      STRB     r5,[r1,#1]
        0x08001554:    70a5        .p      STRB     r5,[r4,#2]
        0x08001556:    2003        .       MOVS     r0,#3
        0x08001558:    78f1        .x      LDRB     r1,[r6,#3]
        0x0800155a:    0789        ..      LSLS     r1,r1,#30
        0x0800155c:    d507        ..      BPL      0x800156e ; DAP_ProcessCommand + 556
        0x0800155e:    f4402680    @..&    ORR      r6,r0,#0x40000
        0x08001562:    e011        ..      B        0x8001588 ; DAP_ProcessCommand + 582
        0x08001564:    e00b        ..      B        0x800157e ; DAP_ProcessCommand + 572
        0x08001566:    4630        0F      MOV      r0,r6
        0x08001568:    f7fffe4c    ..L.    BL       DAP_SWD_TransferBlock ; 0x8001204
        0x0800156c:    e7f4        ..      B        0x8001558 ; DAP_ProcessCommand + 534
        0x0800156e:    f8b61001    ....    LDRH     r1,[r6,#1]
        0x08001572:    f44f2280    O.."    MOV      r2,#0x40000
        0x08001576:    eb024681    ...F    ADD      r6,r2,r1,LSL #18
        0x0800157a:    4306        .C      ORRS     r6,r6,r0
        0x0800157c:    e004        ..      B        0x8001588 ; DAP_ProcessCommand + 582
        0x0800157e:    7812        .x      LDRB     r2,[r2,#0]
        0x08001580:    2a01        .*      CMP      r2,#1
        0x08001582:    d004        ..      BEQ      0x800158e ; DAP_ProcessCommand + 588
        0x08001584:    7021        !p      STRB     r1,[r4,#0]
        0x08001586:    464e        NF      MOV      r6,r9
        0x08001588:    f1061001    ....    ADD      r0,r6,#0x10001
        0x0800158c:    e6d2        ..      B        0x8001334 ; DAP_SWD_TransferBlock + 304
        0x0800158e:    7901        .y      LDRB     r1,[r0,#4]
        0x08001590:    f8d00001    ....    LDR      r0,[r0,#1]
        0x08001594:    f361601f    a..`    BFI      r0,r1,#24,#8
        0x08001598:    9000        ..      STR      r0,[sp,#0]
        0x0800159a:    4669        iF      MOV      r1,sp
        0x0800159c:    2000        .       MOVS     r0,#0
        0x0800159e:    f000fb42    ..B.    BL       SWD_Transfer ; 0x8001c26
        0x080015a2:    7025        %p      STRB     r5,[r4,#0]
        0x080015a4:    e7ef        ..      B        0x8001586 ; DAP_ProcessCommand + 580
        0x080015a6:    f8041c01    ....    STRB     r1,[r4,#-1]
        0x080015aa:    4638        8F      MOV      r0,r7
        0x080015ac:    e6c2        ..      B        0x8001334 ; DAP_SWD_TransferBlock + 304
    DAP_ExecuteCommand
        0x080015ae:    e92d41f0    -..A    PUSH     {r4-r8,lr}
        0x080015b2:    7802        .x      LDRB     r2,[r0,#0]
        0x080015b4:    2a7f        .*      CMP      r2,#0x7f
        0x080015b6:    d002        ..      BEQ      0x80015be ; DAP_ExecuteCommand + 16
        0x080015b8:    e8bd41f0    ...A    POP      {r4-r8,lr}
        0x080015bc:    e6c1        ..      B        DAP_ProcessCommand ; 0x8001342
        0x080015be:    f8012b01    ...+    STRB     r2,[r1],#1
        0x080015c2:    7844        Dx      LDRB     r4,[r0,#1]
        0x080015c4:    f8014b01    ...K    STRB     r4,[r1],#1
        0x080015c8:    1c86        ..      ADDS     r6,r0,#2
        0x080015ca:    460d        .F      MOV      r5,r1
        0x080015cc:    f04f1702    O...    MOV      r7,#0x20002
        0x080015d0:    e008        ..      B        0x80015e4 ; DAP_ExecuteCommand + 54
        0x080015d2:    4629        )F      MOV      r1,r5
        0x080015d4:    4630        0F      MOV      r0,r6
        0x080015d6:    f7fffeb4    ....    BL       DAP_ProcessCommand ; 0x8001342
        0x080015da:    4407        .D      ADD      r7,r7,r0
        0x080015dc:    eb064610    ...F    ADD      r6,r6,r0,LSR #16
        0x080015e0:    b280        ..      UXTH     r0,r0
        0x080015e2:    4405        .D      ADD      r5,r5,r0
        0x080015e4:    1e64        d.      SUBS     r4,r4,#1
        0x080015e6:    d2f4        ..      BCS      0x80015d2 ; DAP_ExecuteCommand + 36
        0x080015e8:    4638        8F      MOV      r0,r7
        0x080015ea:    e8bd81f0    ....    POP      {r4-r8,pc}
    DAP_Setup
        0x080015ee:    4812        .H      LDR      r0,[pc,#72] ; [0x8001638] = 0x2000043c
        0x080015f0:    b510        ..      PUSH     {r4,lr}
        0x080015f2:    2100        .!      MOVS     r1,#0
        0x080015f4:    7001        .p      STRB     r1,[r0,#0]
        0x080015f6:    7041        Ap      STRB     r1,[r0,#1]
        0x080015f8:    2207        ."      MOVS     r2,#7
        0x080015fa:    6042        B`      STR      r2,[r0,#4]
        0x080015fc:    7201        .r      STRB     r1,[r0,#8]
        0x080015fe:    2264        d"      MOVS     r2,#0x64
        0x08001600:    8142        B.      STRH     r2,[r0,#0xa]
        0x08001602:    8181        ..      STRH     r1,[r0,#0xc]
        0x08001604:    2201        ."      MOVS     r2,#1
        0x08001606:    6101        .a      STR      r1,[r0,#0x10]
        0x08001608:    7502        .u      STRB     r2,[r0,#0x14]
        0x0800160a:    7541        Au      STRB     r1,[r0,#0x15]
        0x0800160c:    4611        .F      MOV      r1,r2
        0x0800160e:    2008        .       MOVS     r0,#8
        0x08001610:    f000fe1f    ....    BL       RCC_APB2PeriphClockCmd ; 0x8002252
        0x08001614:    e8bd4010    ...@    POP      {r4,lr}
        0x08001618:    f3af8000    ....    NOP.W    
    PORT_OFF
        0x0800161c:    b508        ..      PUSH     {r3,lr}
        0x0800161e:    f44f40c0    O..@    MOV      r0,#0x6000
        0x08001622:    f8ad0000    ....    STRH     r0,[sp,#0]
        0x08001626:    2004        .       MOVS     r0,#4
        0x08001628:    f88d0003    ....    STRB     r0,[sp,#3]
        0x0800162c:    4806        .H      LDR      r0,[pc,#24] ; [0x8001648] = 0x40010c10
        0x0800162e:    4669        iF      MOV      r1,sp
        0x08001630:    3810        .8      SUBS     r0,r0,#0x10
        0x08001632:    f000fc26    ..&.    BL       GPIO_Init ; 0x8001e82
        0x08001636:    bd08        ..      POP      {r3,pc}
    $d
        0x08001638:    2000043c    <..     DCD    536871996
        0x0800163c:    00020001    ....    DCD    131073
        0x08001640:    00050001    ....    DCD    327681
        0x08001644:    0800c19c    ....    DCD    134267292
        0x08001648:    40010c10    ...@    DCD    1073810448
        0x0800164c:    00040001    ....    DCD    262145
        0x08001650:    0112a880    ....    DCD    18000000
        0x08001654:    022550ff    .P%.    DCD    35999999
    $t
    .text
    SWJ_Sequence
        0x08001658:    b5f0        ..      PUSH     {r4-r7,lr}
        0x0800165a:    2300        .#      MOVS     r3,#0
        0x0800165c:    f8dfc404    ....    LDR      r12,[pc,#1028] ; [0x8001a64] = 0x40010c14
        0x08001660:    f44f4780    O..G    MOV      r7,#0x4000
        0x08001664:    461a        .F      MOV      r2,r3
        0x08001666:    f1ac0e04    ....    SUB      lr,r12,#4
        0x0800166a:    107e        ~.      ASRS     r6,r7,#1
        0x0800166c:    4cfe        .L      LDR      r4,[pc,#1016] ; [0x8001a68] = 0x2000043c
        0x0800166e:    6865        eh      LDR      r5,[r4,#4]
        0x08001670:    e016        ..      B        0x80016a0 ; SWJ_Sequence + 72
        0x08001672:    b912        ..      CBNZ     r2,0x800167a ; SWJ_Sequence + 34
        0x08001674:    f8113b01    ...;    LDRB     r3,[r1],#1
        0x08001678:    2208        ."      MOVS     r2,#8
        0x0800167a:    07dc        ..      LSLS     r4,r3,#31
        0x0800167c:    d002        ..      BEQ      0x8001684 ; SWJ_Sequence + 44
        0x0800167e:    f8ce7000    ...p    STR      r7,[lr,#0]
        0x08001682:    e001        ..      B        0x8001688 ; SWJ_Sequence + 48
        0x08001684:    f8cc7000    ...p    STR      r7,[r12,#0]
        0x08001688:    f8cc6000    ...`    STR      r6,[r12,#0]
        0x0800168c:    462c        ,F      MOV      r4,r5
        0x0800168e:    1e64        d.      SUBS     r4,r4,#1
        0x08001690:    d1fd        ..      BNE      0x800168e ; SWJ_Sequence + 54
        0x08001692:    f8ce6000    ...`    STR      r6,[lr,#0]
        0x08001696:    462c        ,F      MOV      r4,r5
        0x08001698:    1e64        d.      SUBS     r4,r4,#1
        0x0800169a:    d1fd        ..      BNE      0x8001698 ; SWJ_Sequence + 64
        0x0800169c:    085b        [.      LSRS     r3,r3,#1
        0x0800169e:    1e52        R.      SUBS     r2,r2,#1
        0x080016a0:    1e40        @.      SUBS     r0,r0,#1
        0x080016a2:    d2e6        ..      BCS      0x8001672 ; SWJ_Sequence + 26
        0x080016a4:    bdf0        ..      POP      {r4-r7,pc}
    SWD_TransferFast
        0x080016a6:    e92d5ff3    -.._    PUSH     {r0,r1,r4-r12,lr}
        0x080016aa:    4605        .F      MOV      r5,r0
        0x080016ac:    2001        .       MOVS     r0,#1
        0x080016ae:    f000fac4    ....    BL       PIN_SWDIO_OUT ; 0x8001c3a
        0x080016b2:    4eec        .N      LDR      r6,[pc,#944] ; [0x8001a64] = 0x40010c14
        0x080016b4:    f44f5400    O..T    MOV      r4,#0x2000
        0x080016b8:    6034        4`      STR      r4,[r6,#0]
        0x080016ba:    1f37        7.      SUBS     r7,r6,#4
        0x080016bc:    603c        <`      STR      r4,[r7,#0]
        0x080016be:    4628        (F      MOV      r0,r5
        0x080016c0:    f000fabb    ....    BL       PIN_SWDIO_OUT ; 0x8001c3a
        0x080016c4:    6034        4`      STR      r4,[r6,#0]
        0x080016c6:    603c        <`      STR      r4,[r7,#0]
        0x080016c8:    0868        h.      LSRS     r0,r5,#1
        0x080016ca:    4680        .F      MOV      r8,r0
        0x080016cc:    f000fab5    ....    BL       PIN_SWDIO_OUT ; 0x8001c3a
        0x080016d0:    6034        4`      STR      r4,[r6,#0]
        0x080016d2:    603c        <`      STR      r4,[r7,#0]
        0x080016d4:    eb050908    ....    ADD      r9,r5,r8
        0x080016d8:    08a8        ..      LSRS     r0,r5,#2
        0x080016da:    4680        .F      MOV      r8,r0
        0x080016dc:    f000faad    ....    BL       PIN_SWDIO_OUT ; 0x8001c3a
        0x080016e0:    6034        4`      STR      r4,[r6,#0]
        0x080016e2:    603c        <`      STR      r4,[r7,#0]
        0x080016e4:    08e9        ..      LSRS     r1,r5,#3
        0x080016e6:    44c1        .D      ADD      r9,r9,r8
        0x080016e8:    4688        .F      MOV      r8,r1
        0x080016ea:    4608        .F      MOV      r0,r1
        0x080016ec:    f000faa5    ....    BL       PIN_SWDIO_OUT ; 0x8001c3a
        0x080016f0:    6034        4`      STR      r4,[r6,#0]
        0x080016f2:    603c        <`      STR      r4,[r7,#0]
        0x080016f4:    eb090008    ....    ADD      r0,r9,r8
        0x080016f8:    f000fa9f    ....    BL       PIN_SWDIO_OUT ; 0x8001c3a
        0x080016fc:    6034        4`      STR      r4,[r6,#0]
        0x080016fe:    603c        <`      STR      r4,[r7,#0]
        0x08001700:    2000        .       MOVS     r0,#0
        0x08001702:    f000fa9a    ....    BL       PIN_SWDIO_OUT ; 0x8001c3a
        0x08001706:    6034        4`      STR      r4,[r6,#0]
        0x08001708:    603c        <`      STR      r4,[r7,#0]
        0x0800170a:    2001        .       MOVS     r0,#1
        0x0800170c:    f000fa95    ....    BL       PIN_SWDIO_OUT ; 0x8001c3a
        0x08001710:    6034        4`      STR      r4,[r6,#0]
        0x08001712:    603c        <`      STR      r4,[r7,#0]
        0x08001714:    1060        `.      ASRS     r0,r4,#1
        0x08001716:    6030        0`      STR      r0,[r6,#0]
        0x08001718:    48d3        .H      LDR      r0,[pc,#844] ; [0x8001a68] = 0x2000043c
        0x0800171a:    7d00        .}      LDRB     r0,[r0,#0x14]
        0x0800171c:    b118        ..      CBZ      r0,0x8001726 ; SWD_TransferFast + 128
        0x0800171e:    6034        4`      STR      r4,[r6,#0]
        0x08001720:    603c        <`      STR      r4,[r7,#0]
        0x08001722:    1e40        @.      SUBS     r0,r0,#1
        0x08001724:    d1fb        ..      BNE      0x800171e ; SWD_TransferFast + 120
        0x08001726:    46a2        .F      MOV      r10,r4
        0x08001728:    46b3        .F      MOV      r11,r6
        0x0800172a:    6034        4`      STR      r4,[r6,#0]
        0x0800172c:    f000fa80    ....    BL       PIN_SWDIO_IN ; 0x8001c30
        0x08001730:    46b9        .F      MOV      r9,r7
        0x08001732:    603c        <`      STR      r4,[r7,#0]
        0x08001734:    4680        .F      MOV      r8,r0
        0x08001736:    6034        4`      STR      r4,[r6,#0]
        0x08001738:    f000fa7a    ..z.    BL       PIN_SWDIO_IN ; 0x8001c30
        0x0800173c:    f8c94000    ...@    STR      r4,[r9,#0]
        0x08001740:    ea480740    H.@.    ORR      r7,r8,r0,LSL #1
        0x08001744:    6034        4`      STR      r4,[r6,#0]
        0x08001746:    f000fa73    ..s.    BL       PIN_SWDIO_IN ; 0x8001c30
        0x0800174a:    f8c94000    ...@    STR      r4,[r9,#0]
        0x0800174e:    ea470480    G...    ORR      r4,r7,r0,LSL #2
        0x08001752:    2c01        .,      CMP      r4,#1
        0x08001754:    d013        ..      BEQ      0x800177e ; SWD_TransferFast + 216
        0x08001756:    2c02        .,      CMP      r4,#2
        0x08001758:    d072        r.      BEQ      0x8001840 ; SWD_TransferFast + 410
        0x0800175a:    2c04        .,      CMP      r4,#4
        0x0800175c:    d070        p.      BEQ      0x8001840 ; SWD_TransferFast + 410
        0x0800175e:    48c2        .H      LDR      r0,[pc,#776] ; [0x8001a68] = 0x2000043c
        0x08001760:    7d00        .}      LDRB     r0,[r0,#0x14]
        0x08001762:    3021        !0      ADDS     r0,r0,#0x21
        0x08001764:    d006        ..      BEQ      0x8001774 ; SWD_TransferFast + 206
        0x08001766:    4651        QF      MOV      r1,r10
        0x08001768:    465b        [F      MOV      r3,r11
        0x0800176a:    464a        JF      MOV      r2,r9
        0x0800176c:    6019        .`      STR      r1,[r3,#0]
        0x0800176e:    6011        .`      STR      r1,[r2,#0]
        0x08001770:    1e40        @.      SUBS     r0,r0,#1
        0x08001772:    d1fb        ..      BNE      0x800176c ; SWD_TransferFast + 198
        0x08001774:    f44f5080    O..P    MOV      r0,#0x1000
        0x08001778:    f8c90000    ....    STR      r0,[r9,#0]
        0x0800177c:    e088        ..      B        0x8001890 ; SWD_TransferFast + 490
        0x0800177e:    07a8        ..      LSLS     r0,r5,#30
        0x08001780:    d529        ).      BPL      0x80017d6 ; SWD_TransferFast + 304
        0x08001782:    2700        .'      MOVS     r7,#0
        0x08001784:    463d        =F      MOV      r5,r7
        0x08001786:    2620         &      MOVS     r6,#0x20
        0x08001788:    46d0        .F      MOV      r8,r10
        0x0800178a:    f8cb8000    ....    STR      r8,[r11,#0]
        0x0800178e:    f000fa4f    ..O.    BL       PIN_SWDIO_IN ; 0x8001c30
        0x08001792:    f8c98000    ....    STR      r8,[r9,#0]
        0x08001796:    0879        y.      LSRS     r1,r7,#1
        0x08001798:    4405        .D      ADD      r5,r5,r0
        0x0800179a:    ea4177c0    A..w    ORR      r7,r1,r0,LSL #31
        0x0800179e:    1e76        v.      SUBS     r6,r6,#1
        0x080017a0:    d1f3        ..      BNE      0x800178a ; SWD_TransferFast + 228
        0x080017a2:    4646        FF      MOV      r6,r8
        0x080017a4:    f8cb8000    ....    STR      r8,[r11,#0]
        0x080017a8:    f000fa42    ..B.    BL       PIN_SWDIO_IN ; 0x8001c30
        0x080017ac:    4649        IF      MOV      r1,r9
        0x080017ae:    f8c96000    ...`    STR      r6,[r9,#0]
        0x080017b2:    4045        E@      EORS     r5,r5,r0
        0x080017b4:    07e8        ..      LSLS     r0,r5,#31
        0x080017b6:    d000        ..      BEQ      0x80017ba ; SWD_TransferFast + 276
        0x080017b8:    2408        .$      MOVS     r4,#8
        0x080017ba:    9801        ..      LDR      r0,[sp,#4]
        0x080017bc:    b100        ..      CBZ      r0,0x80017c0 ; SWD_TransferFast + 282
        0x080017be:    6007        .`      STR      r7,[r0,#0]
        0x080017c0:    48a9        .H      LDR      r0,[pc,#676] ; [0x8001a68] = 0x2000043c
        0x080017c2:    7d00        .}      LDRB     r0,[r0,#0x14]
        0x080017c4:    b120         .      CBZ      r0,0x80017d0 ; SWD_TransferFast + 298
        0x080017c6:    465a        ZF      MOV      r2,r11
        0x080017c8:    6016        .`      STR      r6,[r2,#0]
        0x080017ca:    600e        .`      STR      r6,[r1,#0]
        0x080017cc:    1e40        @.      SUBS     r0,r0,#1
        0x080017ce:    d1fb        ..      BNE      0x80017c8 ; SWD_TransferFast + 290
        0x080017d0:    f44f5080    O..P    MOV      r0,#0x1000
        0x080017d4:    e024        $.      B        0x8001820 ; SWD_TransferFast + 378
        0x080017d6:    48a4        .H      LDR      r0,[pc,#656] ; [0x8001a68] = 0x2000043c
        0x080017d8:    7d00        .}      LDRB     r0,[r0,#0x14]
        0x080017da:    b130        0.      CBZ      r0,0x80017ea ; SWD_TransferFast + 324
        0x080017dc:    4651        QF      MOV      r1,r10
        0x080017de:    465b        [F      MOV      r3,r11
        0x080017e0:    464a        JF      MOV      r2,r9
        0x080017e2:    6019        .`      STR      r1,[r3,#0]
        0x080017e4:    6011        .`      STR      r1,[r2,#0]
        0x080017e6:    1e40        @.      SUBS     r0,r0,#1
        0x080017e8:    d1fb        ..      BNE      0x80017e2 ; SWD_TransferFast + 316
        0x080017ea:    f44f5180    O..Q    MOV      r1,#0x1000
        0x080017ee:    f8c91000    ....    STR      r1,[r9,#0]
        0x080017f2:    9901        ..      LDR      r1,[sp,#4]
        0x080017f4:    2700        .'      MOVS     r7,#0
        0x080017f6:    2620         &      MOVS     r6,#0x20
        0x080017f8:    680d        .h      LDR      r5,[r1,#0]
        0x080017fa:    46c8        .F      MOV      r8,r9
        0x080017fc:    4628        (F      MOV      r0,r5
        0x080017fe:    f000fa1c    ....    BL       PIN_SWDIO_OUT ; 0x8001c3a
        0x08001802:    f8cba000    ....    STR      r10,[r11,#0]
        0x08001806:    f8c8a000    ....    STR      r10,[r8,#0]
        0x0800180a:    442f        /D      ADD      r7,r7,r5
        0x0800180c:    086d        m.      LSRS     r5,r5,#1
        0x0800180e:    1e76        v.      SUBS     r6,r6,#1
        0x08001810:    d1f4        ..      BNE      0x80017fc ; SWD_TransferFast + 342
        0x08001812:    4638        8F      MOV      r0,r7
        0x08001814:    f000fa11    ....    BL       PIN_SWDIO_OUT ; 0x8001c3a
        0x08001818:    4650        PF      MOV      r0,r10
        0x0800181a:    f8cba000    ....    STR      r10,[r11,#0]
        0x0800181e:    4641        AF      MOV      r1,r8
        0x08001820:    6008        .`      STR      r0,[r1,#0]
        0x08001822:    4891        .H      LDR      r0,[pc,#580] ; [0x8001a68] = 0x2000043c
        0x08001824:    7a05        .z      LDRB     r5,[r0,#8]
        0x08001826:    b39d        ..      CBZ      r5,0x8001890 ; SWD_TransferFast + 490
        0x08001828:    2000        .       MOVS     r0,#0
        0x0800182a:    f000fa06    ....    BL       PIN_SWDIO_OUT ; 0x8001c3a
        0x0800182e:    4650        PF      MOV      r0,r10
        0x08001830:    465a        ZF      MOV      r2,r11
        0x08001832:    4649        IF      MOV      r1,r9
        0x08001834:    6010        .`      STR      r0,[r2,#0]
        0x08001836:    6008        .`      STR      r0,[r1,#0]
        0x08001838:    1e6d        m.      SUBS     r5,r5,#1
        0x0800183a:    d1fb        ..      BNE      0x8001834 ; SWD_TransferFast + 398
        0x0800183c:    e028        (.      B        0x8001890 ; SWD_TransferFast + 490
        0x0800183e:    e7ff        ..      B        0x8001840 ; SWD_TransferFast + 410
        0x08001840:    4b89        .K      LDR      r3,[pc,#548] ; [0x8001a68] = 0x2000043c
        0x08001842:    7d5a        Z}      LDRB     r2,[r3,#0x15]
        0x08001844:    b14a        J.      CBZ      r2,0x800185a ; SWD_TransferFast + 436
        0x08001846:    07a8        ..      LSLS     r0,r5,#30
        0x08001848:    d507        ..      BPL      0x800185a ; SWD_TransferFast + 436
        0x0800184a:    2021        !       MOVS     r0,#0x21
        0x0800184c:    4651        QF      MOV      r1,r10
        0x0800184e:    465e        ^F      MOV      r6,r11
        0x08001850:    464f        OF      MOV      r7,r9
        0x08001852:    6031        1`      STR      r1,[r6,#0]
        0x08001854:    6039        9`      STR      r1,[r7,#0]
        0x08001856:    1e40        @.      SUBS     r0,r0,#1
        0x08001858:    d1fb        ..      BNE      0x8001852 ; SWD_TransferFast + 428
        0x0800185a:    7d18        .}      LDRB     r0,[r3,#0x14]
        0x0800185c:    b130        0.      CBZ      r0,0x800186c ; SWD_TransferFast + 454
        0x0800185e:    4651        QF      MOV      r1,r10
        0x08001860:    465b        [F      MOV      r3,r11
        0x08001862:    464e        NF      MOV      r6,r9
        0x08001864:    6019        .`      STR      r1,[r3,#0]
        0x08001866:    6031        1`      STR      r1,[r6,#0]
        0x08001868:    1e40        @.      SUBS     r0,r0,#1
        0x0800186a:    d1fb        ..      BNE      0x8001864 ; SWD_TransferFast + 446
        0x0800186c:    f44f5080    O..P    MOV      r0,#0x1000
        0x08001870:    464e        NF      MOV      r6,r9
        0x08001872:    f8c90000    ....    STR      r0,[r9,#0]
        0x08001876:    b15a        Z.      CBZ      r2,0x8001890 ; SWD_TransferFast + 490
        0x08001878:    07a8        ..      LSLS     r0,r5,#30
        0x0800187a:    d409        ..      BMI      0x8001890 ; SWD_TransferFast + 490
        0x0800187c:    2000        .       MOVS     r0,#0
        0x0800187e:    f000f9dc    ....    BL       PIN_SWDIO_OUT ; 0x8001c3a
        0x08001882:    2021        !       MOVS     r0,#0x21
        0x08001884:    4651        QF      MOV      r1,r10
        0x08001886:    465a        ZF      MOV      r2,r11
        0x08001888:    6011        .`      STR      r1,[r2,#0]
        0x0800188a:    6031        1`      STR      r1,[r6,#0]
        0x0800188c:    1e40        @.      SUBS     r0,r0,#1
        0x0800188e:    d1fb        ..      BNE      0x8001888 ; SWD_TransferFast + 482
        0x08001890:    2001        .       MOVS     r0,#1
        0x08001892:    f000f9d2    ....    BL       PIN_SWDIO_OUT ; 0x8001c3a
        0x08001896:    b2e0        ..      UXTB     r0,r4
        0x08001898:    e8bd9ffc    ....    POP      {r2-r12,pc}
    SWD_TransferSlow
        0x0800189c:    e92d5ff3    -.._    PUSH     {r0,r1,r4-r12,lr}
        0x080018a0:    4605        .F      MOV      r5,r0
        0x080018a2:    2400        .$      MOVS     r4,#0
        0x080018a4:    2001        .       MOVS     r0,#1
        0x080018a6:    f000f9c8    ....    BL       PIN_SWDIO_OUT ; 0x8001c3a
        0x080018aa:    4f6e        nO      LDR      r7,[pc,#440] ; [0x8001a64] = 0x40010c14
        0x080018ac:    f44f5600    O..V    MOV      r6,#0x2000
        0x080018b0:    603e        >`      STR      r6,[r7,#0]
        0x080018b2:    4a6d        mJ      LDR      r2,[pc,#436] ; [0x8001a68] = 0x2000043c
        0x080018b4:    6850        Ph      LDR      r0,[r2,#4]
        0x080018b6:    4601        .F      MOV      r1,r0
        0x080018b8:    1e40        @.      SUBS     r0,r0,#1
        0x080018ba:    d1fd        ..      BNE      0x80018b8 ; SWD_TransferSlow + 28
        0x080018bc:    f8df91a4    ....    LDR      r9,[pc,#420] ; [0x8001a64] = 0x40010c14
        0x080018c0:    f1a90904    ....    SUB      r9,r9,#4
        0x080018c4:    f8c96000    ...`    STR      r6,[r9,#0]
        0x080018c8:    4692        .F      MOV      r10,r2
        0x080018ca:    1e49        I.      SUBS     r1,r1,#1
        0x080018cc:    d1fd        ..      BNE      0x80018ca ; SWD_TransferSlow + 46
        0x080018ce:    4628        (F      MOV      r0,r5
        0x080018d0:    f000f9b3    ....    BL       PIN_SWDIO_OUT ; 0x8001c3a
        0x080018d4:    46b8        .F      MOV      r8,r7
        0x080018d6:    603e        >`      STR      r6,[r7,#0]
        0x080018d8:    f8da0004    ....    LDR      r0,[r10,#4]
        0x080018dc:    4652        RF      MOV      r2,r10
        0x080018de:    4601        .F      MOV      r1,r0
        0x080018e0:    1e49        I.      SUBS     r1,r1,#1
        0x080018e2:    d1fd        ..      BNE      0x80018e0 ; SWD_TransferSlow + 68
        0x080018e4:    f8c96000    ...`    STR      r6,[r9,#0]
        0x080018e8:    1e40        @.      SUBS     r0,r0,#1
        0x080018ea:    d1fd        ..      BNE      0x80018e8 ; SWD_TransferSlow + 76
        0x080018ec:    1967        g.      ADDS     r7,r4,r5
        0x080018ee:    086c        l.      LSRS     r4,r5,#1
        0x080018f0:    4620         F      MOV      r0,r4
        0x080018f2:    f000f9a2    ....    BL       PIN_SWDIO_OUT ; 0x8001c3a
        0x080018f6:    f8c86000    ...`    STR      r6,[r8,#0]
        0x080018fa:    f8da0004    ....    LDR      r0,[r10,#4]
        0x080018fe:    4652        RF      MOV      r2,r10
        0x08001900:    4601        .F      MOV      r1,r0
        0x08001902:    1e40        @.      SUBS     r0,r0,#1
        0x08001904:    d1fd        ..      BNE      0x8001902 ; SWD_TransferSlow + 102
        0x08001906:    46b2        .F      MOV      r10,r6
        0x08001908:    f8c96000    ...`    STR      r6,[r9,#0]
        0x0800190c:    4693        .F      MOV      r11,r2
        0x0800190e:    1e49        I.      SUBS     r1,r1,#1
        0x08001910:    d1fd        ..      BNE      0x800190e ; SWD_TransferSlow + 114
        0x08001912:    08ae        ..      LSRS     r6,r5,#2
        0x08001914:    4427        'D      ADD      r7,r7,r4
        0x08001916:    4630        0F      MOV      r0,r6
        0x08001918:    f000f98f    ....    BL       PIN_SWDIO_OUT ; 0x8001c3a
        0x0800191c:    4654        TF      MOV      r4,r10
        0x0800191e:    46c2        .F      MOV      r10,r8
        0x08001920:    f8c84000    ...@    STR      r4,[r8,#0]
        0x08001924:    f8db0004    ....    LDR      r0,[r11,#4]
        0x08001928:    465a        ZF      MOV      r2,r11
        0x0800192a:    4601        .F      MOV      r1,r0
        0x0800192c:    1e49        I.      SUBS     r1,r1,#1
        0x0800192e:    d1fd        ..      BNE      0x800192c ; SWD_TransferSlow + 144
        0x08001930:    46c8        .F      MOV      r8,r9
        0x08001932:    f8c94000    ...@    STR      r4,[r9,#0]
        0x08001936:    1e40        @.      SUBS     r0,r0,#1
        0x08001938:    d1fd        ..      BNE      0x8001936 ; SWD_TransferSlow + 154
        0x0800193a:    4437        7D      ADD      r7,r7,r6
        0x0800193c:    08ee        ..      LSRS     r6,r5,#3
        0x0800193e:    4630        0F      MOV      r0,r6
        0x08001940:    f000f97b    ..{.    BL       PIN_SWDIO_OUT ; 0x8001c3a
        0x08001944:    46d1        .F      MOV      r9,r10
        0x08001946:    f8ca4000    ...@    STR      r4,[r10,#0]
        0x0800194a:    f8db0004    ....    LDR      r0,[r11,#4]
        0x0800194e:    465a        ZF      MOV      r2,r11
        0x08001950:    4601        .F      MOV      r1,r0
        0x08001952:    1e40        @.      SUBS     r0,r0,#1
        0x08001954:    d1fd        ..      BNE      0x8001952 ; SWD_TransferSlow + 182
        0x08001956:    f8c84000    ...@    STR      r4,[r8,#0]
        0x0800195a:    46da        .F      MOV      r10,r11
        0x0800195c:    1e49        I.      SUBS     r1,r1,#1
        0x0800195e:    d1fd        ..      BNE      0x800195c ; SWD_TransferSlow + 192
        0x08001960:    19b8        ..      ADDS     r0,r7,r6
        0x08001962:    f000f96a    ..j.    BL       PIN_SWDIO_OUT ; 0x8001c3a
        0x08001966:    464f        OF      MOV      r7,r9
        0x08001968:    f8c94000    ...@    STR      r4,[r9,#0]
        0x0800196c:    f8da0004    ....    LDR      r0,[r10,#4]
        0x08001970:    4652        RF      MOV      r2,r10
        0x08001972:    4601        .F      MOV      r1,r0
        0x08001974:    1e49        I.      SUBS     r1,r1,#1
        0x08001976:    d1fd        ..      BNE      0x8001974 ; SWD_TransferSlow + 216
        0x08001978:    4646        FF      MOV      r6,r8
        0x0800197a:    f8c84000    ...@    STR      r4,[r8,#0]
        0x0800197e:    46d0        .F      MOV      r8,r10
        0x08001980:    1e40        @.      SUBS     r0,r0,#1
        0x08001982:    d1fd        ..      BNE      0x8001980 ; SWD_TransferSlow + 228
        0x08001984:    f000f959    ..Y.    BL       PIN_SWDIO_OUT ; 0x8001c3a
        0x08001988:    603c        <`      STR      r4,[r7,#0]
        0x0800198a:    f8d80004    ....    LDR      r0,[r8,#4]
        0x0800198e:    4642        BF      MOV      r2,r8
        0x08001990:    4601        .F      MOV      r1,r0
        0x08001992:    1e49        I.      SUBS     r1,r1,#1
        0x08001994:    d1fd        ..      BNE      0x8001992 ; SWD_TransferSlow + 246
        0x08001996:    6034        4`      STR      r4,[r6,#0]
        0x08001998:    1e40        @.      SUBS     r0,r0,#1
        0x0800199a:    d1fd        ..      BNE      0x8001998 ; SWD_TransferSlow + 252
        0x0800199c:    2001        .       MOVS     r0,#1
        0x0800199e:    f000f94c    ..L.    BL       PIN_SWDIO_OUT ; 0x8001c3a
        0x080019a2:    603c        <`      STR      r4,[r7,#0]
        0x080019a4:    f8d82004    ...     LDR      r2,[r8,#4]
        0x080019a8:    4610        .F      MOV      r0,r2
        0x080019aa:    1e40        @.      SUBS     r0,r0,#1
        0x080019ac:    d1fd        ..      BNE      0x80019aa ; SWD_TransferSlow + 270
        0x080019ae:    6034        4`      STR      r4,[r6,#0]
        0x080019b0:    4610        .F      MOV      r0,r2
        0x080019b2:    1e40        @.      SUBS     r0,r0,#1
        0x080019b4:    d1fd        ..      BNE      0x80019b2 ; SWD_TransferSlow + 278
        0x080019b6:    f44f5080    O..P    MOV      r0,#0x1000
        0x080019ba:    6038        8`      STR      r0,[r7,#0]
        0x080019bc:    f8981014    ....    LDRB     r1,[r8,#0x14]
        0x080019c0:    b149        I.      CBZ      r1,0x80019d6 ; SWD_TransferSlow + 314
        0x080019c2:    603c        <`      STR      r4,[r7,#0]
        0x080019c4:    4610        .F      MOV      r0,r2
        0x080019c6:    1e40        @.      SUBS     r0,r0,#1
        0x080019c8:    d1fd        ..      BNE      0x80019c6 ; SWD_TransferSlow + 298
        0x080019ca:    6034        4`      STR      r4,[r6,#0]
        0x080019cc:    4610        .F      MOV      r0,r2
        0x080019ce:    1e40        @.      SUBS     r0,r0,#1
        0x080019d0:    d1fd        ..      BNE      0x80019ce ; SWD_TransferSlow + 306
        0x080019d2:    1e49        I.      SUBS     r1,r1,#1
        0x080019d4:    d1f5        ..      BNE      0x80019c2 ; SWD_TransferSlow + 294
        0x080019d6:    46b9        .F      MOV      r9,r7
        0x080019d8:    603c        <`      STR      r4,[r7,#0]
        0x080019da:    1e52        R.      SUBS     r2,r2,#1
        0x080019dc:    d1fd        ..      BNE      0x80019da ; SWD_TransferSlow + 318
        0x080019de:    f000f927    ..'.    BL       PIN_SWDIO_IN ; 0x8001c30
        0x080019e2:    4607        .F      MOV      r7,r0
        0x080019e4:    6034        4`      STR      r4,[r6,#0]
        0x080019e6:    f8d80004    ....    LDR      r0,[r8,#4]
        0x080019ea:    4601        .F      MOV      r1,r0
        0x080019ec:    1e49        I.      SUBS     r1,r1,#1
        0x080019ee:    d1fd        ..      BNE      0x80019ec ; SWD_TransferSlow + 336
        0x080019f0:    f8c94000    ...@    STR      r4,[r9,#0]
        0x080019f4:    1e40        @.      SUBS     r0,r0,#1
        0x080019f6:    d1fd        ..      BNE      0x80019f4 ; SWD_TransferSlow + 344
        0x080019f8:    f000f91a    ....    BL       PIN_SWDIO_IN ; 0x8001c30
        0x080019fc:    4602        .F      MOV      r2,r0
        0x080019fe:    6034        4`      STR      r4,[r6,#0]
        0x08001a00:    f8d80004    ....    LDR      r0,[r8,#4]
        0x08001a04:    4643        CF      MOV      r3,r8
        0x08001a06:    4601        .F      MOV      r1,r0
        0x08001a08:    1e49        I.      SUBS     r1,r1,#1
        0x08001a0a:    d1fd        ..      BNE      0x8001a08 ; SWD_TransferSlow + 364
        0x08001a0c:    ea470742    G.B.    ORR      r7,r7,r2,LSL #1
        0x08001a10:    46ca        .F      MOV      r10,r9
        0x08001a12:    f8c94000    ...@    STR      r4,[r9,#0]
        0x08001a16:    46c3        .F      MOV      r11,r8
        0x08001a18:    1e40        @.      SUBS     r0,r0,#1
        0x08001a1a:    d1fd        ..      BNE      0x8001a18 ; SWD_TransferSlow + 380
        0x08001a1c:    f000f908    ....    BL       PIN_SWDIO_IN ; 0x8001c30
        0x08001a20:    4602        .F      MOV      r2,r0
        0x08001a22:    46a1        .F      MOV      r9,r4
        0x08001a24:    6034        4`      STR      r4,[r6,#0]
        0x08001a26:    f8db1004    ....    LDR      r1,[r11,#4]
        0x08001a2a:    4608        .F      MOV      r0,r1
        0x08001a2c:    1e40        @.      SUBS     r0,r0,#1
        0x08001a2e:    d1fd        ..      BNE      0x8001a2c ; SWD_TransferSlow + 400
        0x08001a30:    ea470482    G...    ORR      r4,r7,r2,LSL #2
        0x08001a34:    2c01        .,      CMP      r4,#1
        0x08001a36:    d01d        ..      BEQ      0x8001a74 ; SWD_TransferSlow + 472
        0x08001a38:    2c02        .,      CMP      r4,#2
        0x08001a3a:    d07d        }.      BEQ      0x8001b38 ; SWD_TransferSlow + 668
        0x08001a3c:    2c04        .,      CMP      r4,#4
        0x08001a3e:    d07b        {.      BEQ      0x8001b38 ; SWD_TransferSlow + 668
        0x08001a40:    f89b2014    ...     LDRB     r2,[r11,#0x14]
        0x08001a44:    3221        !2      ADDS     r2,r2,#0x21
        0x08001a46:    d00b        ..      BEQ      0x8001a60 ; SWD_TransferSlow + 452
        0x08001a48:    4655        UF      MOV      r5,r10
        0x08001a4a:    464b        KF      MOV      r3,r9
        0x08001a4c:    602b        +`      STR      r3,[r5,#0]
        0x08001a4e:    4608        .F      MOV      r0,r1
        0x08001a50:    1e40        @.      SUBS     r0,r0,#1
        0x08001a52:    d1fd        ..      BNE      0x8001a50 ; SWD_TransferSlow + 436
        0x08001a54:    6033        3`      STR      r3,[r6,#0]
        0x08001a56:    4608        .F      MOV      r0,r1
        0x08001a58:    1e40        @.      SUBS     r0,r0,#1
        0x08001a5a:    d1fd        ..      BNE      0x8001a58 ; SWD_TransferSlow + 444
        0x08001a5c:    1e52        R.      SUBS     r2,r2,#1
        0x08001a5e:    d1f5        ..      BNE      0x8001a4c ; SWD_TransferSlow + 432
        0x08001a60:    e004        ..      B        0x8001a6c ; SWD_TransferSlow + 464
    $d
        0x08001a62:    0000        ..      DCW    0
        0x08001a64:    40010c14    ...@    DCD    1073810452
        0x08001a68:    2000043c    <..     DCD    536871996
    $t
        0x08001a6c:    f44f5080    O..P    MOV      r0,#0x1000
        0x08001a70:    6030        0`      STR      r0,[r6,#0]
        0x08001a72:    e0d3        ..      B        0x8001c1c ; SWD_TransferSlow + 896
        0x08001a74:    07a8        ..      LSLS     r0,r5,#30
        0x08001a76:    d542        B.      BPL      0x8001afe ; SWD_TransferSlow + 610
        0x08001a78:    f04f0800    O...    MOV      r8,#0
        0x08001a7c:    4647        GF      MOV      r7,r8
        0x08001a7e:    2520         %      MOVS     r5,#0x20
        0x08001a80:    f8ca9000    ....    STR      r9,[r10,#0]
        0x08001a84:    f8db0004    ....    LDR      r0,[r11,#4]
        0x08001a88:    1e40        @.      SUBS     r0,r0,#1
        0x08001a8a:    d1fd        ..      BNE      0x8001a88 ; SWD_TransferSlow + 492
        0x08001a8c:    f000f8d0    ....    BL       PIN_SWDIO_IN ; 0x8001c30
        0x08001a90:    f8c69000    ....    STR      r9,[r6,#0]
        0x08001a94:    f8db1004    ....    LDR      r1,[r11,#4]
        0x08001a98:    1e49        I.      SUBS     r1,r1,#1
        0x08001a9a:    d1fd        ..      BNE      0x8001a98 ; SWD_TransferSlow + 508
        0x08001a9c:    ea4f0158    O.X.    LSR      r1,r8,#1
        0x08001aa0:    4407        .D      ADD      r7,r7,r0
        0x08001aa2:    ea4178c0    A..x    ORR      r8,r1,r0,LSL #31
        0x08001aa6:    1e6d        m.      SUBS     r5,r5,#1
        0x08001aa8:    d1ea        ..      BNE      0x8001a80 ; SWD_TransferSlow + 484
        0x08001aaa:    f8ca9000    ....    STR      r9,[r10,#0]
        0x08001aae:    f8db0004    ....    LDR      r0,[r11,#4]
        0x08001ab2:    465d        ]F      MOV      r5,r11
        0x08001ab4:    1e40        @.      SUBS     r0,r0,#1
        0x08001ab6:    d1fd        ..      BNE      0x8001ab4 ; SWD_TransferSlow + 536
        0x08001ab8:    f000f8ba    ....    BL       PIN_SWDIO_IN ; 0x8001c30
        0x08001abc:    464b        KF      MOV      r3,r9
        0x08001abe:    f8c69000    ....    STR      r9,[r6,#0]
        0x08001ac2:    6869        ih      LDR      r1,[r5,#4]
        0x08001ac4:    1e49        I.      SUBS     r1,r1,#1
        0x08001ac6:    d1fd        ..      BNE      0x8001ac4 ; SWD_TransferSlow + 552
        0x08001ac8:    4047        G@      EORS     r7,r7,r0
        0x08001aca:    07f8        ..      LSLS     r0,r7,#31
        0x08001acc:    d000        ..      BEQ      0x8001ad0 ; SWD_TransferSlow + 564
        0x08001ace:    2408        .$      MOVS     r4,#8
        0x08001ad0:    9801        ..      LDR      r0,[sp,#4]
        0x08001ad2:    b110        ..      CBZ      r0,0x8001ada ; SWD_TransferSlow + 574
        0x08001ad4:    9901        ..      LDR      r1,[sp,#4]
        0x08001ad6:    f8c18000    ....    STR      r8,[r1,#0]
        0x08001ada:    7d2a        *}      LDRB     r2,[r5,#0x14]
        0x08001adc:    b15a        Z.      CBZ      r2,0x8001af6 ; SWD_TransferSlow + 602
        0x08001ade:    686d        mh      LDR      r5,[r5,#4]
        0x08001ae0:    4657        WF      MOV      r7,r10
        0x08001ae2:    603b        ;`      STR      r3,[r7,#0]
        0x08001ae4:    4628        (F      MOV      r0,r5
        0x08001ae6:    1e40        @.      SUBS     r0,r0,#1
        0x08001ae8:    d1fd        ..      BNE      0x8001ae6 ; SWD_TransferSlow + 586
        0x08001aea:    6033        3`      STR      r3,[r6,#0]
        0x08001aec:    4629        )F      MOV      r1,r5
        0x08001aee:    1e49        I.      SUBS     r1,r1,#1
        0x08001af0:    d1fd        ..      BNE      0x8001aee ; SWD_TransferSlow + 594
        0x08001af2:    1e52        R.      SUBS     r2,r2,#1
        0x08001af4:    d1f5        ..      BNE      0x8001ae2 ; SWD_TransferSlow + 582
        0x08001af6:    f44f5080    O..P    MOV      r0,#0x1000
        0x08001afa:    6030        0`      STR      r0,[r6,#0]
        0x08001afc:    e03a        :.      B        0x8001b74 ; SWD_TransferSlow + 728
        0x08001afe:    f89b3014    ...0    LDRB     r3,[r11,#0x14]
        0x08001b02:    465a        ZF      MOV      r2,r11
        0x08001b04:    b15b        [.      CBZ      r3,0x8001b1e ; SWD_TransferSlow + 642
        0x08001b06:    4657        WF      MOV      r7,r10
        0x08001b08:    464d        MF      MOV      r5,r9
        0x08001b0a:    603d        =`      STR      r5,[r7,#0]
        0x08001b0c:    4608        .F      MOV      r0,r1
        0x08001b0e:    1e40        @.      SUBS     r0,r0,#1
        0x08001b10:    d1fd        ..      BNE      0x8001b0e ; SWD_TransferSlow + 626
        0x08001b12:    6035        5`      STR      r5,[r6,#0]
        0x08001b14:    4608        .F      MOV      r0,r1
        0x08001b16:    1e40        @.      SUBS     r0,r0,#1
        0x08001b18:    d1fd        ..      BNE      0x8001b16 ; SWD_TransferSlow + 634
        0x08001b1a:    1e5b        [.      SUBS     r3,r3,#1
        0x08001b1c:    d1f5        ..      BNE      0x8001b0a ; SWD_TransferSlow + 622
        0x08001b1e:    f44f5080    O..P    MOV      r0,#0x1000
        0x08001b22:    6030        0`      STR      r0,[r6,#0]
        0x08001b24:    9801        ..      LDR      r0,[sp,#4]
        0x08001b26:    f04f0800    O...    MOV      r8,#0
        0x08001b2a:    2720         '      MOVS     r7,#0x20
        0x08001b2c:    6805        .h      LDR      r5,[r0,#0]
        0x08001b2e:    4628        (F      MOV      r0,r5
        0x08001b30:    f000f883    ....    BL       PIN_SWDIO_OUT ; 0x8001c3a
        0x08001b34:    464a        JF      MOV      r2,r9
        0x08001b36:    e000        ..      B        0x8001b3a ; SWD_TransferSlow + 670
        0x08001b38:    e031        1.      B        0x8001b9e ; SWD_TransferSlow + 770
        0x08001b3a:    f8ca9000    ....    STR      r9,[r10,#0]
        0x08001b3e:    f8db0004    ....    LDR      r0,[r11,#4]
        0x08001b42:    4601        .F      MOV      r1,r0
        0x08001b44:    1e49        I.      SUBS     r1,r1,#1
        0x08001b46:    d1fd        ..      BNE      0x8001b44 ; SWD_TransferSlow + 680
        0x08001b48:    6032        2`      STR      r2,[r6,#0]
        0x08001b4a:    1e40        @.      SUBS     r0,r0,#1
        0x08001b4c:    d1fd        ..      BNE      0x8001b4a ; SWD_TransferSlow + 686
        0x08001b4e:    eb080005    ....    ADD      r0,r8,r5
        0x08001b52:    086d        m.      LSRS     r5,r5,#1
        0x08001b54:    4680        .F      MOV      r8,r0
        0x08001b56:    1e7f        ..      SUBS     r7,r7,#1
        0x08001b58:    d1e9        ..      BNE      0x8001b2e ; SWD_TransferSlow + 658
        0x08001b5a:    f000f86e    ..n.    BL       PIN_SWDIO_OUT ; 0x8001c3a
        0x08001b5e:    464a        JF      MOV      r2,r9
        0x08001b60:    f8ca9000    ....    STR      r9,[r10,#0]
        0x08001b64:    f8db0004    ....    LDR      r0,[r11,#4]
        0x08001b68:    4601        .F      MOV      r1,r0
        0x08001b6a:    1e40        @.      SUBS     r0,r0,#1
        0x08001b6c:    d1fd        ..      BNE      0x8001b6a ; SWD_TransferSlow + 718
        0x08001b6e:    6032        2`      STR      r2,[r6,#0]
        0x08001b70:    1e49        I.      SUBS     r1,r1,#1
        0x08001b72:    d1fd        ..      BNE      0x8001b70 ; SWD_TransferSlow + 724
        0x08001b74:    f89b5008    ...P    LDRB     r5,[r11,#8]
        0x08001b78:    465f        _F      MOV      r7,r11
        0x08001b7a:    b3ed        ..      CBZ      r5,0x8001bf8 ; SWD_TransferSlow + 860
        0x08001b7c:    2000        .       MOVS     r0,#0
        0x08001b7e:    f000f85c    ..\.    BL       PIN_SWDIO_OUT ; 0x8001c3a
        0x08001b82:    687b        {h      LDR      r3,[r7,#4]
        0x08001b84:    4652        RF      MOV      r2,r10
        0x08001b86:    4649        IF      MOV      r1,r9
        0x08001b88:    6011        .`      STR      r1,[r2,#0]
        0x08001b8a:    4618        .F      MOV      r0,r3
        0x08001b8c:    1e40        @.      SUBS     r0,r0,#1
        0x08001b8e:    d1fd        ..      BNE      0x8001b8c ; SWD_TransferSlow + 752
        0x08001b90:    6031        1`      STR      r1,[r6,#0]
        0x08001b92:    4618        .F      MOV      r0,r3
        0x08001b94:    1e40        @.      SUBS     r0,r0,#1
        0x08001b96:    d1fd        ..      BNE      0x8001b94 ; SWD_TransferSlow + 760
        0x08001b98:    1e6d        m.      SUBS     r5,r5,#1
        0x08001b9a:    d1f5        ..      BNE      0x8001b88 ; SWD_TransferSlow + 748
        0x08001b9c:    e03e        >.      B        0x8001c1c ; SWD_TransferSlow + 896
        0x08001b9e:    f89b7015    ...p    LDRB     r7,[r11,#0x15]
        0x08001ba2:    46dc        .F      MOV      r12,r11
        0x08001ba4:    b17f        ..      CBZ      r7,0x8001bc6 ; SWD_TransferSlow + 810
        0x08001ba6:    07a8        ..      LSLS     r0,r5,#30
        0x08001ba8:    d50d        ..      BPL      0x8001bc6 ; SWD_TransferSlow + 810
        0x08001baa:    2221        !"      MOVS     r2,#0x21
        0x08001bac:    46d0        .F      MOV      r8,r10
        0x08001bae:    464b        KF      MOV      r3,r9
        0x08001bb0:    f8c83000    ...0    STR      r3,[r8,#0]
        0x08001bb4:    4608        .F      MOV      r0,r1
        0x08001bb6:    1e40        @.      SUBS     r0,r0,#1
        0x08001bb8:    d1fd        ..      BNE      0x8001bb6 ; SWD_TransferSlow + 794
        0x08001bba:    6033        3`      STR      r3,[r6,#0]
        0x08001bbc:    4608        .F      MOV      r0,r1
        0x08001bbe:    1e40        @.      SUBS     r0,r0,#1
        0x08001bc0:    d1fd        ..      BNE      0x8001bbe ; SWD_TransferSlow + 802
        0x08001bc2:    1e52        R.      SUBS     r2,r2,#1
        0x08001bc4:    d1f4        ..      BNE      0x8001bb0 ; SWD_TransferSlow + 788
        0x08001bc6:    f89c2014    ...     LDRB     r2,[r12,#0x14]
        0x08001bca:    b162        b.      CBZ      r2,0x8001be6 ; SWD_TransferSlow + 842
        0x08001bcc:    46d0        .F      MOV      r8,r10
        0x08001bce:    464b        KF      MOV      r3,r9
        0x08001bd0:    f8c83000    ...0    STR      r3,[r8,#0]
        0x08001bd4:    4608        .F      MOV      r0,r1
        0x08001bd6:    1e40        @.      SUBS     r0,r0,#1
        0x08001bd8:    d1fd        ..      BNE      0x8001bd6 ; SWD_TransferSlow + 826
        0x08001bda:    6033        3`      STR      r3,[r6,#0]
        0x08001bdc:    4608        .F      MOV      r0,r1
        0x08001bde:    1e40        @.      SUBS     r0,r0,#1
        0x08001be0:    d1fd        ..      BNE      0x8001bde ; SWD_TransferSlow + 834
        0x08001be2:    1e52        R.      SUBS     r2,r2,#1
        0x08001be4:    d1f4        ..      BNE      0x8001bd0 ; SWD_TransferSlow + 820
        0x08001be6:    f44f5080    O..P    MOV      r0,#0x1000
        0x08001bea:    6030        0`      STR      r0,[r6,#0]
        0x08001bec:    46d8        .F      MOV      r8,r11
        0x08001bee:    b11f        ..      CBZ      r7,0x8001bf8 ; SWD_TransferSlow + 860
        0x08001bf0:    07a8        ..      LSLS     r0,r5,#30
        0x08001bf2:    d413        ..      BMI      0x8001c1c ; SWD_TransferSlow + 896
        0x08001bf4:    2000        .       MOVS     r0,#0
        0x08001bf6:    e000        ..      B        0x8001bfa ; SWD_TransferSlow + 862
        0x08001bf8:    e010        ..      B        0x8001c1c ; SWD_TransferSlow + 896
        0x08001bfa:    f000f81e    ....    BL       PIN_SWDIO_OUT ; 0x8001c3a
        0x08001bfe:    f8d82004    ...     LDR      r2,[r8,#4]
        0x08001c02:    2121        !!      MOVS     r1,#0x21
        0x08001c04:    4655        UF      MOV      r5,r10
        0x08001c06:    464b        KF      MOV      r3,r9
        0x08001c08:    602b        +`      STR      r3,[r5,#0]
        0x08001c0a:    4610        .F      MOV      r0,r2
        0x08001c0c:    1e40        @.      SUBS     r0,r0,#1
        0x08001c0e:    d1fd        ..      BNE      0x8001c0c ; SWD_TransferSlow + 880
        0x08001c10:    6033        3`      STR      r3,[r6,#0]
        0x08001c12:    4610        .F      MOV      r0,r2
        0x08001c14:    1e40        @.      SUBS     r0,r0,#1
        0x08001c16:    d1fd        ..      BNE      0x8001c14 ; SWD_TransferSlow + 888
        0x08001c18:    1e49        I.      SUBS     r1,r1,#1
        0x08001c1a:    d1f5        ..      BNE      0x8001c08 ; SWD_TransferSlow + 876
        0x08001c1c:    2001        .       MOVS     r0,#1
        0x08001c1e:    f000f80c    ....    BL       PIN_SWDIO_OUT ; 0x8001c3a
        0x08001c22:    b2e0        ..      UXTB     r0,r4
        0x08001c24:    e638        8.      B        0x8001898 ; SWD_TransferFast + 498
    SWD_Transfer
        0x08001c26:    4a0a        .J      LDR      r2,[pc,#40] ; [0x8001c50] = 0x2000043c
        0x08001c28:    7852        Rx      LDRB     r2,[r2,#1]
        0x08001c2a:    b102        ..      CBZ      r2,0x8001c2e ; SWD_Transfer + 8
        0x08001c2c:    e53b        ;.      B        SWD_TransferFast ; 0x80016a6
        0x08001c2e:    e635        5.      B        SWD_TransferSlow ; 0x800189c
    PIN_SWDIO_IN
        0x08001c30:    4808        .H      LDR      r0,[pc,#32] ; [0x8001c54] = 0x40010c08
        0x08001c32:    6800        .h      LDR      r0,[r0,#0]
        0x08001c34:    f3c03080    ...0    UBFX     r0,r0,#14,#1
        0x08001c38:    4770        pG      BX       lr
    PIN_SWDIO_OUT
        0x08001c3a:    07c1        ..      LSLS     r1,r0,#31
        0x08001c3c:    f44f4080    O..@    MOV      r0,#0x4000
        0x08001c40:    d002        ..      BEQ      0x8001c48 ; PIN_SWDIO_OUT + 14
        0x08001c42:    4904        .I      LDR      r1,[pc,#16] ; [0x8001c54] = 0x40010c08
        0x08001c44:    3108        .1      ADDS     r1,r1,#8
        0x08001c46:    e001        ..      B        0x8001c4c ; PIN_SWDIO_OUT + 18
        0x08001c48:    4902        .I      LDR      r1,[pc,#8] ; [0x8001c54] = 0x40010c08
        0x08001c4a:    310c        .1      ADDS     r1,r1,#0xc
        0x08001c4c:    6008        .`      STR      r0,[r1,#0]
        0x08001c4e:    4770        pG      BX       lr
    $d
        0x08001c50:    2000043c    <..     DCD    536871996
        0x08001c54:    40010c08    ...@    DCD    1073810440
    $t
    .text
    SetSysClockTo72
        0x08001c58:    b50c        ..      PUSH     {r2,r3,lr}
        0x08001c5a:    2200        ."      MOVS     r2,#0
        0x08001c5c:    484c        LH      LDR      r0,[pc,#304] ; [0x8001d90] = 0x40021000
        0x08001c5e:    9200        ..      STR      r2,[sp,#0]
        0x08001c60:    9201        ..      STR      r2,[sp,#4]
        0x08001c62:    6801        .h      LDR      r1,[r0,#0]
        0x08001c64:    f4413180    A..1    ORR      r1,r1,#0x10000
        0x08001c68:    6001        .`      STR      r1,[r0,#0]
        0x08001c6a:    f44f63a0    O..c    MOV      r3,#0x500
        0x08001c6e:    6801        .h      LDR      r1,[r0,#0]
        0x08001c70:    f4013100    ...1    AND      r1,r1,#0x20000
        0x08001c74:    9101        ..      STR      r1,[sp,#4]
        0x08001c76:    9900        ..      LDR      r1,[sp,#0]
        0x08001c78:    1c49        I.      ADDS     r1,r1,#1
        0x08001c7a:    9100        ..      STR      r1,[sp,#0]
        0x08001c7c:    9901        ..      LDR      r1,[sp,#4]
        0x08001c7e:    b911        ..      CBNZ     r1,0x8001c86 ; SetSysClockTo72 + 46
        0x08001c80:    9900        ..      LDR      r1,[sp,#0]
        0x08001c82:    4299        .B      CMP      r1,r3
        0x08001c84:    d1f3        ..      BNE      0x8001c6e ; SetSysClockTo72 + 22
        0x08001c86:    6801        .h      LDR      r1,[r0,#0]
        0x08001c88:    0389        ..      LSLS     r1,r1,#14
        0x08001c8a:    d533        3.      BPL      0x8001cf4 ; SetSysClockTo72 + 156
        0x08001c8c:    2101        .!      MOVS     r1,#1
        0x08001c8e:    9101        ..      STR      r1,[sp,#4]
        0x08001c90:    4940        @I      LDR      r1,[pc,#256] ; [0x8001d94] = 0x40022000
        0x08001c92:    680a        .h      LDR      r2,[r1,#0]
        0x08001c94:    f0420210    B...    ORR      r2,r2,#0x10
        0x08001c98:    600a        .`      STR      r2,[r1,#0]
        0x08001c9a:    680a        .h      LDR      r2,[r1,#0]
        0x08001c9c:    f0220203    "...    BIC      r2,r2,#3
        0x08001ca0:    600a        .`      STR      r2,[r1,#0]
        0x08001ca2:    680a        .h      LDR      r2,[r1,#0]
        0x08001ca4:    f0420202    B...    ORR      r2,r2,#2
        0x08001ca8:    600a        .`      STR      r2,[r1,#0]
        0x08001caa:    6841        Ah      LDR      r1,[r0,#4]
        0x08001cac:    6041        A`      STR      r1,[r0,#4]
        0x08001cae:    6841        Ah      LDR      r1,[r0,#4]
        0x08001cb0:    6041        A`      STR      r1,[r0,#4]
        0x08001cb2:    6841        Ah      LDR      r1,[r0,#4]
        0x08001cb4:    f4416180    A..a    ORR      r1,r1,#0x400
        0x08001cb8:    6041        A`      STR      r1,[r0,#4]
        0x08001cba:    6841        Ah      LDR      r1,[r0,#4]
        0x08001cbc:    f421117c    !.|.    BIC      r1,r1,#0x3f0000
        0x08001cc0:    6041        A`      STR      r1,[r0,#4]
        0x08001cc2:    6841        Ah      LDR      r1,[r0,#4]
        0x08001cc4:    f44111e8    A...    ORR      r1,r1,#0x1d0000
        0x08001cc8:    6041        A`      STR      r1,[r0,#4]
        0x08001cca:    6801        .h      LDR      r1,[r0,#0]
        0x08001ccc:    f0417180    A..q    ORR      r1,r1,#0x1000000
        0x08001cd0:    6001        .`      STR      r1,[r0,#0]
        0x08001cd2:    6801        .h      LDR      r1,[r0,#0]
        0x08001cd4:    0189        ..      LSLS     r1,r1,#6
        0x08001cd6:    d5fc        ..      BPL      0x8001cd2 ; SetSysClockTo72 + 122
        0x08001cd8:    6841        Ah      LDR      r1,[r0,#4]
        0x08001cda:    f0210103    !...    BIC      r1,r1,#3
        0x08001cde:    6041        A`      STR      r1,[r0,#4]
        0x08001ce0:    6841        Ah      LDR      r1,[r0,#4]
        0x08001ce2:    f0410102    A...    ORR      r1,r1,#2
        0x08001ce6:    6041        A`      STR      r1,[r0,#4]
        0x08001ce8:    6841        Ah      LDR      r1,[r0,#4]
        0x08001cea:    f3c10181    ....    UBFX     r1,r1,#2,#2
        0x08001cee:    2902        .)      CMP      r1,#2
        0x08001cf0:    d1fa        ..      BNE      0x8001ce8 ; SetSysClockTo72 + 144
        0x08001cf2:    bd0c        ..      POP      {r2,r3,pc}
        0x08001cf4:    9201        ..      STR      r2,[sp,#4]
        0x08001cf6:    bd0c        ..      POP      {r2,r3,pc}
    SystemInit
        0x08001cf8:    4825        %H      LDR      r0,[pc,#148] ; [0x8001d90] = 0x40021000
        0x08001cfa:    b510        ..      PUSH     {r4,lr}
        0x08001cfc:    6801        .h      LDR      r1,[r0,#0]
        0x08001cfe:    f0410101    A...    ORR      r1,r1,#1
        0x08001d02:    6001        .`      STR      r1,[r0,#0]
        0x08001d04:    6841        Ah      LDR      r1,[r0,#4]
        0x08001d06:    4a24        $J      LDR      r2,[pc,#144] ; [0x8001d98] = 0xf8ff0000
        0x08001d08:    4011        .@      ANDS     r1,r1,r2
        0x08001d0a:    6041        A`      STR      r1,[r0,#4]
        0x08001d0c:    6801        .h      LDR      r1,[r0,#0]
        0x08001d0e:    4a23        #J      LDR      r2,[pc,#140] ; [0x8001d9c] = 0xfef6ffff
        0x08001d10:    4011        .@      ANDS     r1,r1,r2
        0x08001d12:    6001        .`      STR      r1,[r0,#0]
        0x08001d14:    6801        .h      LDR      r1,[r0,#0]
        0x08001d16:    f4212180    !..!    BIC      r1,r1,#0x40000
        0x08001d1a:    6001        .`      STR      r1,[r0,#0]
        0x08001d1c:    6841        Ah      LDR      r1,[r0,#4]
        0x08001d1e:    f42101fe    !...    BIC      r1,r1,#0x7f0000
        0x08001d22:    6041        A`      STR      r1,[r0,#4]
        0x08001d24:    f44f011f    O...    MOV      r1,#0x9f0000
        0x08001d28:    6081        .`      STR      r1,[r0,#8]
        0x08001d2a:    f7ffff95    ....    BL       SetSysClockTo72 ; 0x8001c58
        0x08001d2e:    491c        .I      LDR      r1,[pc,#112] ; [0x8001da0] = 0xe000ed08
        0x08001d30:    f04f6000    O..`    MOV      r0,#0x8000000
        0x08001d34:    6008        .`      STR      r0,[r1,#0]
        0x08001d36:    bd10        ..      POP      {r4,pc}
    SystemCoreClockUpdate
        0x08001d38:    4a15        .J      LDR      r2,[pc,#84] ; [0x8001d90] = 0x40021000
        0x08001d3a:    b510        ..      PUSH     {r4,lr}
        0x08001d3c:    6850        Ph      LDR      r0,[r2,#4]
        0x08001d3e:    4b19        .K      LDR      r3,[pc,#100] ; [0x8001da4] = 0x7a1200
        0x08001d40:    f010010c    ....    ANDS     r1,r0,#0xc
        0x08001d44:    4818        .H      LDR      r0,[pc,#96] ; [0x8001da8] = 0x20000014
        0x08001d46:    d003        ..      BEQ      0x8001d50 ; SystemCoreClockUpdate + 24
        0x08001d48:    2904        .)      CMP      r1,#4
        0x08001d4a:    d001        ..      BEQ      0x8001d50 ; SystemCoreClockUpdate + 24
        0x08001d4c:    2908        .)      CMP      r1,#8
        0x08001d4e:    d001        ..      BEQ      0x8001d54 ; SystemCoreClockUpdate + 28
        0x08001d50:    6003        .`      STR      r3,[r0,#0]
        0x08001d52:    e012        ..      B        0x8001d7a ; SystemCoreClockUpdate + 66
        0x08001d54:    6851        Qh      LDR      r1,[r2,#4]
        0x08001d56:    6853        Sh      LDR      r3,[r2,#4]
        0x08001d58:    f4011170    ..p.    AND      r1,r1,#0x3c0000
        0x08001d5c:    f04f0402    O...    MOV      r4,#2
        0x08001d60:    f4133f80    ...?    TST      r3,#0x10000
        0x08001d64:    eb044191    ...A    ADD      r1,r4,r1,LSR #18
        0x08001d68:    d002        ..      BEQ      0x8001d70 ; SystemCoreClockUpdate + 56
        0x08001d6a:    6853        Sh      LDR      r3,[r2,#4]
        0x08001d6c:    039b        ..      LSLS     r3,r3,#14
        0x08001d6e:    d501        ..      BPL      0x8001d74 ; SystemCoreClockUpdate + 60
        0x08001d70:    4b0e        .K      LDR      r3,[pc,#56] ; [0x8001dac] = 0x3d0900
        0x08001d72:    e000        ..      B        0x8001d76 ; SystemCoreClockUpdate + 62
        0x08001d74:    4b0b        .K      LDR      r3,[pc,#44] ; [0x8001da4] = 0x7a1200
        0x08001d76:    4359        YC      MULS     r1,r3,r1
        0x08001d78:    6001        .`      STR      r1,[r0,#0]
        0x08001d7a:    6851        Qh      LDR      r1,[r2,#4]
        0x08001d7c:    4a0a        .J      LDR      r2,[pc,#40] ; [0x8001da8] = 0x20000014
        0x08001d7e:    f3c11103    ....    UBFX     r1,r1,#4,#4
        0x08001d82:    1d12        ..      ADDS     r2,r2,#4
        0x08001d84:    5c51        Q\      LDRB     r1,[r2,r1]
        0x08001d86:    6802        .h      LDR      r2,[r0,#0]
        0x08001d88:    40ca        .@      LSRS     r2,r2,r1
        0x08001d8a:    6002        .`      STR      r2,[r0,#0]
        0x08001d8c:    bd10        ..      POP      {r4,pc}
    $d
        0x08001d8e:    0000        ..      DCW    0
        0x08001d90:    40021000    ...@    DCD    1073876992
        0x08001d94:    40022000    . .@    DCD    1073881088
        0x08001d98:    f8ff0000    ....    DCD    4177461248
        0x08001d9c:    fef6ffff    ....    DCD    4277600255
        0x08001da0:    e000ed08    ....    DCD    3758157064
        0x08001da4:    007a1200    ..z.    DCD    8000000
        0x08001da8:    20000014    ...     DCD    536870932
        0x08001dac:    003d0900    ..=.    DCD    4000000
    $t
    .text
    Reset_Handler
        0x08001db0:    4806        .H      LDR      r0,[pc,#24] ; [0x8001dcc] = 0x8001cf9
        0x08001db2:    4780        .G      BLX      r0
        0x08001db4:    4806        .H      LDR      r0,[pc,#24] ; [0x8001dd0] = 0x80000ed
        0x08001db6:    4700        .G      BX       r0
    NMI_Handler
        0x08001db8:    e7fe        ..      B        NMI_Handler ; 0x8001db8
    HardFault_Handler
        0x08001dba:    e7fe        ..      B        HardFault_Handler ; 0x8001dba
    MemManage_Handler
        0x08001dbc:    e7fe        ..      B        MemManage_Handler ; 0x8001dbc
    BusFault_Handler
        0x08001dbe:    e7fe        ..      B        BusFault_Handler ; 0x8001dbe
    UsageFault_Handler
        0x08001dc0:    e7fe        ..      B        UsageFault_Handler ; 0x8001dc0
    SVC_Handler
        0x08001dc2:    e7fe        ..      B        SVC_Handler ; 0x8001dc2
    DebugMon_Handler
        0x08001dc4:    e7fe        ..      B        DebugMon_Handler ; 0x8001dc4
    PendSV_Handler
        0x08001dc6:    e7fe        ..      B        PendSV_Handler ; 0x8001dc6
    SysTick_Handler
        0x08001dc8:    e7fe        ..      B        SysTick_Handler ; 0x8001dc8
    ADC1_2_IRQHandler
    CAN1_RX1_IRQHandler
    CAN1_SCE_IRQHandler
    DMA1_Channel1_IRQHandler
    DMA1_Channel2_IRQHandler
    DMA1_Channel3_IRQHandler
    DMA1_Channel4_IRQHandler
    DMA1_Channel5_IRQHandler
    DMA1_Channel6_IRQHandler
    DMA1_Channel7_IRQHandler
    EXTI0_IRQHandler
    EXTI15_10_IRQHandler
    EXTI1_IRQHandler
    EXTI2_IRQHandler
    EXTI3_IRQHandler
    EXTI4_IRQHandler
    EXTI9_5_IRQHandler
    FLASH_IRQHandler
    I2C1_ER_IRQHandler
    I2C1_EV_IRQHandler
    I2C2_ER_IRQHandler
    I2C2_EV_IRQHandler
    PVD_IRQHandler
    RCC_IRQHandler
    RTCAlarm_IRQHandler
    RTC_IRQHandler
    SPI1_IRQHandler
    SPI2_IRQHandler
    TAMPER_IRQHandler
    TIM1_BRK_IRQHandler
    TIM1_CC_IRQHandler
    TIM1_TRG_COM_IRQHandler
    TIM1_UP_IRQHandler
    TIM2_IRQHandler
    TIM3_IRQHandler
    TIM4_IRQHandler
    USART1_IRQHandler
    USART2_IRQHandler
    USART3_IRQHandler
    USBWakeUp_IRQHandler
    USB_HP_CAN1_TX_IRQHandler
    USB_LP_CAN1_RX0_IRQHandler
    WWDG_IRQHandler
        0x08001dca:    e7fe        ..      B        ADC1_2_IRQHandler ; 0x8001dca
    $d
        0x08001dcc:    08001cf9    ....    DCD    134225145
        0x08001dd0:    080000ed    ....    DCD    134217965
    $t
    .text
    GPIO_DeInit
        0x08001dd4:    498f        .I      LDR      r1,[pc,#572] ; [0x8002014] = 0x40010800
        0x08001dd6:    b510        ..      PUSH     {r4,lr}
        0x08001dd8:    4288        .B      CMP      r0,r1
        0x08001dda:    d106        ..      BNE      0x8001dea ; GPIO_DeInit + 22
        0x08001ddc:    2101        .!      MOVS     r1,#1
        0x08001dde:    2004        .       MOVS     r0,#4
        0x08001de0:    f000fa49    ..I.    BL       RCC_APB2PeriphResetCmd ; 0x8002276
        0x08001de4:    2100        .!      MOVS     r1,#0
        0x08001de6:    2004        .       MOVS     r0,#4
        0x08001de8:    e03b        ;.      B        0x8001e62 ; GPIO_DeInit + 142
        0x08001dea:    498b        .I      LDR      r1,[pc,#556] ; [0x8002018] = 0x40010c00
        0x08001dec:    4288        .B      CMP      r0,r1
        0x08001dee:    d106        ..      BNE      0x8001dfe ; GPIO_DeInit + 42
        0x08001df0:    2101        .!      MOVS     r1,#1
        0x08001df2:    2008        .       MOVS     r0,#8
        0x08001df4:    f000fa3f    ..?.    BL       RCC_APB2PeriphResetCmd ; 0x8002276
        0x08001df8:    2100        .!      MOVS     r1,#0
        0x08001dfa:    2008        .       MOVS     r0,#8
        0x08001dfc:    e031        1.      B        0x8001e62 ; GPIO_DeInit + 142
        0x08001dfe:    4987        .I      LDR      r1,[pc,#540] ; [0x800201c] = 0x40011000
        0x08001e00:    4288        .B      CMP      r0,r1
        0x08001e02:    d106        ..      BNE      0x8001e12 ; GPIO_DeInit + 62
        0x08001e04:    2101        .!      MOVS     r1,#1
        0x08001e06:    2010        .       MOVS     r0,#0x10
        0x08001e08:    f000fa35    ..5.    BL       RCC_APB2PeriphResetCmd ; 0x8002276
        0x08001e0c:    2100        .!      MOVS     r1,#0
        0x08001e0e:    2010        .       MOVS     r0,#0x10
        0x08001e10:    e027        '.      B        0x8001e62 ; GPIO_DeInit + 142
        0x08001e12:    4983        .I      LDR      r1,[pc,#524] ; [0x8002020] = 0x40011400
        0x08001e14:    4288        .B      CMP      r0,r1
        0x08001e16:    d106        ..      BNE      0x8001e26 ; GPIO_DeInit + 82
        0x08001e18:    2101        .!      MOVS     r1,#1
        0x08001e1a:    2020                MOVS     r0,#0x20
        0x08001e1c:    f000fa2b    ..+.    BL       RCC_APB2PeriphResetCmd ; 0x8002276
        0x08001e20:    2100        .!      MOVS     r1,#0
        0x08001e22:    2020                MOVS     r0,#0x20
        0x08001e24:    e01d        ..      B        0x8001e62 ; GPIO_DeInit + 142
        0x08001e26:    497f        .I      LDR      r1,[pc,#508] ; [0x8002024] = 0x40011800
        0x08001e28:    4288        .B      CMP      r0,r1
        0x08001e2a:    d106        ..      BNE      0x8001e3a ; GPIO_DeInit + 102
        0x08001e2c:    2101        .!      MOVS     r1,#1
        0x08001e2e:    2040        @       MOVS     r0,#0x40
        0x08001e30:    f000fa21    ..!.    BL       RCC_APB2PeriphResetCmd ; 0x8002276
        0x08001e34:    2100        .!      MOVS     r1,#0
        0x08001e36:    2040        @       MOVS     r0,#0x40
        0x08001e38:    e013        ..      B        0x8001e62 ; GPIO_DeInit + 142
        0x08001e3a:    497b        {I      LDR      r1,[pc,#492] ; [0x8002028] = 0x40011c00
        0x08001e3c:    4288        .B      CMP      r0,r1
        0x08001e3e:    d106        ..      BNE      0x8001e4e ; GPIO_DeInit + 122
        0x08001e40:    2101        .!      MOVS     r1,#1
        0x08001e42:    2080        .       MOVS     r0,#0x80
        0x08001e44:    f000fa17    ....    BL       RCC_APB2PeriphResetCmd ; 0x8002276
        0x08001e48:    2100        .!      MOVS     r1,#0
        0x08001e4a:    2080        .       MOVS     r0,#0x80
        0x08001e4c:    e009        ..      B        0x8001e62 ; GPIO_DeInit + 142
        0x08001e4e:    4977        wI      LDR      r1,[pc,#476] ; [0x800202c] = 0x40012000
        0x08001e50:    4288        .B      CMP      r0,r1
        0x08001e52:    d10a        ..      BNE      0x8001e6a ; GPIO_DeInit + 150
        0x08001e54:    1584        ..      ASRS     r4,r0,#22
        0x08001e56:    2101        .!      MOVS     r1,#1
        0x08001e58:    4620         F      MOV      r0,r4
        0x08001e5a:    f000fa0c    ....    BL       RCC_APB2PeriphResetCmd ; 0x8002276
        0x08001e5e:    2100        .!      MOVS     r1,#0
        0x08001e60:    4620         F      MOV      r0,r4
        0x08001e62:    e8bd4010    ...@    POP      {r4,lr}
        0x08001e66:    f000ba06    ....    B.W      RCC_APB2PeriphResetCmd ; 0x8002276
        0x08001e6a:    bd10        ..      POP      {r4,pc}
    GPIO_AFIODeInit
        0x08001e6c:    b510        ..      PUSH     {r4,lr}
        0x08001e6e:    2101        .!      MOVS     r1,#1
        0x08001e70:    4608        .F      MOV      r0,r1
        0x08001e72:    f000fa00    ....    BL       RCC_APB2PeriphResetCmd ; 0x8002276
        0x08001e76:    2100        .!      MOVS     r1,#0
        0x08001e78:    e8bd4010    ...@    POP      {r4,lr}
        0x08001e7c:    2001        .       MOVS     r0,#1
        0x08001e7e:    f000b9fa    ....    B.W      RCC_APB2PeriphResetCmd ; 0x8002276
    GPIO_Init
        0x08001e82:    b5f0        ..      PUSH     {r4-r7,lr}
        0x08001e84:    78cc        .x      LDRB     r4,[r1,#3]
        0x08001e86:    2200        ."      MOVS     r2,#0
        0x08001e88:    f004030f    ....    AND      r3,r4,#0xf
        0x08001e8c:    06e4        ..      LSLS     r4,r4,#27
        0x08001e8e:    d501        ..      BPL      0x8001e94 ; GPIO_Init + 18
        0x08001e90:    788c        .x      LDRB     r4,[r1,#2]
        0x08001e92:    4323        #C      ORRS     r3,r3,r4
        0x08001e94:    780c        .x      LDRB     r4,[r1,#0]
        0x08001e96:    f04f0c0f    O...    MOV      r12,#0xf
        0x08001e9a:    f0140fff    ....    TST      r4,#0xff
        0x08001e9e:    f04f0e01    O...    MOV      lr,#1
        0x08001ea2:    d01b        ..      BEQ      0x8001edc ; GPIO_Init + 90
        0x08001ea4:    6805        .h      LDR      r5,[r0,#0]
        0x08001ea6:    880e        ..      LDRH     r6,[r1,#0]
        0x08001ea8:    fa0ef402    ....    LSL      r4,lr,r2
        0x08001eac:    4026        &@      ANDS     r6,r6,r4
        0x08001eae:    42a6        .B      CMP      r6,r4
        0x08001eb0:    d110        ..      BNE      0x8001ed4 ; GPIO_Init + 82
        0x08001eb2:    0096        ..      LSLS     r6,r2,#2
        0x08001eb4:    fa0cf706    ....    LSL      r7,r12,r6
        0x08001eb8:    ea250707    %...    BIC      r7,r5,r7
        0x08001ebc:    fa03f506    ....    LSL      r5,r3,r6
        0x08001ec0:    78ce        .x      LDRB     r6,[r1,#3]
        0x08001ec2:    433d        =C      ORRS     r5,r5,r7
        0x08001ec4:    2e28        (.      CMP      r6,#0x28
        0x08001ec6:    d002        ..      BEQ      0x8001ece ; GPIO_Init + 76
        0x08001ec8:    2e48        H.      CMP      r6,#0x48
        0x08001eca:    d002        ..      BEQ      0x8001ed2 ; GPIO_Init + 80
        0x08001ecc:    e002        ..      B        0x8001ed4 ; GPIO_Init + 82
        0x08001ece:    6144        Da      STR      r4,[r0,#0x14]
        0x08001ed0:    e000        ..      B        0x8001ed4 ; GPIO_Init + 82
        0x08001ed2:    6104        .a      STR      r4,[r0,#0x10]
        0x08001ed4:    1c52        R.      ADDS     r2,r2,#1
        0x08001ed6:    2a08        .*      CMP      r2,#8
        0x08001ed8:    d3e5        ..      BCC      0x8001ea6 ; GPIO_Init + 36
        0x08001eda:    6005        .`      STR      r5,[r0,#0]
        0x08001edc:    880a        ..      LDRH     r2,[r1,#0]
        0x08001ede:    2aff        .*      CMP      r2,#0xff
        0x08001ee0:    d91c        ..      BLS      0x8001f1c ; GPIO_Init + 154
        0x08001ee2:    6844        Dh      LDR      r4,[r0,#4]
        0x08001ee4:    2200        ."      MOVS     r2,#0
        0x08001ee6:    f1020608    ....    ADD      r6,r2,#8
        0x08001eea:    fa0ef506    ....    LSL      r5,lr,r6
        0x08001eee:    880e        ..      LDRH     r6,[r1,#0]
        0x08001ef0:    402e        .@      ANDS     r6,r6,r5
        0x08001ef2:    42ae        .B      CMP      r6,r5
        0x08001ef4:    d10e        ..      BNE      0x8001f14 ; GPIO_Init + 146
        0x08001ef6:    0096        ..      LSLS     r6,r2,#2
        0x08001ef8:    fa0cf706    ....    LSL      r7,r12,r6
        0x08001efc:    43bc        .C      BICS     r4,r4,r7
        0x08001efe:    fa03f706    ....    LSL      r7,r3,r6
        0x08001f02:    78ce        .x      LDRB     r6,[r1,#3]
        0x08001f04:    433c        <C      ORRS     r4,r4,r7
        0x08001f06:    2e28        (.      CMP      r6,#0x28
        0x08001f08:    d100        ..      BNE      0x8001f0c ; GPIO_Init + 138
        0x08001f0a:    6145        Ea      STR      r5,[r0,#0x14]
        0x08001f0c:    78ce        .x      LDRB     r6,[r1,#3]
        0x08001f0e:    2e48        H.      CMP      r6,#0x48
        0x08001f10:    d100        ..      BNE      0x8001f14 ; GPIO_Init + 146
        0x08001f12:    6105        .a      STR      r5,[r0,#0x10]
        0x08001f14:    1c52        R.      ADDS     r2,r2,#1
        0x08001f16:    2a08        .*      CMP      r2,#8
        0x08001f18:    d3e5        ..      BCC      0x8001ee6 ; GPIO_Init + 100
        0x08001f1a:    6044        D`      STR      r4,[r0,#4]
        0x08001f1c:    bdf0        ..      POP      {r4-r7,pc}
    GPIO_StructInit
        0x08001f1e:    f64f71ff    O..q    MOV      r1,#0xffff
        0x08001f22:    8001        ..      STRH     r1,[r0,#0]
        0x08001f24:    2102        .!      MOVS     r1,#2
        0x08001f26:    7081        .p      STRB     r1,[r0,#2]
        0x08001f28:    2104        .!      MOVS     r1,#4
        0x08001f2a:    70c1        .p      STRB     r1,[r0,#3]
        0x08001f2c:    4770        pG      BX       lr
    GPIO_ReadInputDataBit
        0x08001f2e:    4602        .F      MOV      r2,r0
        0x08001f30:    2000        .       MOVS     r0,#0
        0x08001f32:    6892        .h      LDR      r2,[r2,#8]
        0x08001f34:    420a        .B      TST      r2,r1
        0x08001f36:    d000        ..      BEQ      0x8001f3a ; GPIO_ReadInputDataBit + 12
        0x08001f38:    2001        .       MOVS     r0,#1
        0x08001f3a:    4770        pG      BX       lr
    GPIO_ReadInputData
        0x08001f3c:    6880        .h      LDR      r0,[r0,#8]
        0x08001f3e:    b280        ..      UXTH     r0,r0
        0x08001f40:    4770        pG      BX       lr
    GPIO_ReadOutputDataBit
        0x08001f42:    4602        .F      MOV      r2,r0
        0x08001f44:    2000        .       MOVS     r0,#0
        0x08001f46:    68d2        .h      LDR      r2,[r2,#0xc]
        0x08001f48:    420a        .B      TST      r2,r1
        0x08001f4a:    d000        ..      BEQ      0x8001f4e ; GPIO_ReadOutputDataBit + 12
        0x08001f4c:    2001        .       MOVS     r0,#1
        0x08001f4e:    4770        pG      BX       lr
    GPIO_ReadOutputData
        0x08001f50:    68c0        .h      LDR      r0,[r0,#0xc]
        0x08001f52:    b280        ..      UXTH     r0,r0
        0x08001f54:    4770        pG      BX       lr
    GPIO_SetBits
        0x08001f56:    6101        .a      STR      r1,[r0,#0x10]
        0x08001f58:    4770        pG      BX       lr
    GPIO_ResetBits
        0x08001f5a:    6141        Aa      STR      r1,[r0,#0x14]
        0x08001f5c:    4770        pG      BX       lr
    GPIO_WriteBit
        0x08001f5e:    b10a        ..      CBZ      r2,0x8001f64 ; GPIO_WriteBit + 6
        0x08001f60:    6101        .a      STR      r1,[r0,#0x10]
        0x08001f62:    4770        pG      BX       lr
        0x08001f64:    6141        Aa      STR      r1,[r0,#0x14]
        0x08001f66:    4770        pG      BX       lr
    GPIO_Write
        0x08001f68:    60c1        .`      STR      r1,[r0,#0xc]
        0x08001f6a:    4770        pG      BX       lr
    GPIO_PinLockConfig
        0x08001f6c:    f4413280    A..2    ORR      r2,r1,#0x10000
        0x08001f70:    6182        .a      STR      r2,[r0,#0x18]
        0x08001f72:    6181        .a      STR      r1,[r0,#0x18]
        0x08001f74:    6182        .a      STR      r2,[r0,#0x18]
        0x08001f76:    6981        .i      LDR      r1,[r0,#0x18]
        0x08001f78:    6980        .i      LDR      r0,[r0,#0x18]
        0x08001f7a:    4770        pG      BX       lr
    GPIO_EventOutputConfig
        0x08001f7c:    4b2c        ,K      LDR      r3,[pc,#176] ; [0x8002030] = 0x40010000
        0x08001f7e:    b510        ..      PUSH     {r4,lr}
        0x08001f80:    681a        .h      LDR      r2,[r3,#0]
        0x08001f82:    f64f7480    O..t    MOV      r4,#0xff80
        0x08001f86:    4022        "@      ANDS     r2,r2,r4
        0x08001f88:    ea421000    B...    ORR      r0,r2,r0,LSL #4
        0x08001f8c:    4308        .C      ORRS     r0,r0,r1
        0x08001f8e:    6018        .`      STR      r0,[r3,#0]
        0x08001f90:    bd10        ..      POP      {r4,pc}
    GPIO_EventOutputCmd
        0x08001f92:    4928        (I      LDR      r1,[pc,#160] ; [0x8002034] = 0x42200000
        0x08001f94:    61c8        .a      STR      r0,[r1,#0x1c]
        0x08001f96:    4770        pG      BX       lr
    GPIO_PinRemapConfig
        0x08001f98:    b5f0        ..      PUSH     {r4-r7,lr}
        0x08001f9a:    4c25        %L      LDR      r4,[pc,#148] ; [0x8002030] = 0x40010000
        0x08001f9c:    2800        .(      CMP      r0,#0
        0x08001f9e:    da01        ..      BGE      0x8001fa4 ; GPIO_PinRemapConfig + 12
        0x08001fa0:    69e3        .i      LDR      r3,[r4,#0x1c]
        0x08001fa2:    e000        ..      B        0x8001fa6 ; GPIO_PinRemapConfig + 14
        0x08001fa4:    6863        ch      LDR      r3,[r4,#4]
        0x08001fa6:    0d45        E.      LSRS     r5,r0,#21
        0x08001fa8:    012e        ..      LSLS     r6,r5,#4
        0x08001faa:    b285        ..      UXTH     r5,r0
        0x08001fac:    f3c05701    ...W    UBFX     r7,r0,#20,#2
        0x08001fb0:    40b5        .@      LSLS     r5,r5,r6
        0x08001fb2:    f3c04203    ...B    UBFX     r2,r0,#16,#4
        0x08001fb6:    2f03        ./      CMP      r7,#3
        0x08001fb8:    d005        ..      BEQ      0x8001fc6 ; GPIO_PinRemapConfig + 46
        0x08001fba:    02c6        ..      LSLS     r6,r0,#11
        0x08001fbc:    d50a        ..      BPL      0x8001fd4 ; GPIO_PinRemapConfig + 60
        0x08001fbe:    2603        .&      MOVS     r6,#3
        0x08001fc0:    4096        .@      LSLS     r6,r6,r2
        0x08001fc2:    43b3        .C      BICS     r3,r3,r6
        0x08001fc4:    e007        ..      B        0x8001fd6 ; GPIO_PinRemapConfig + 62
        0x08001fc6:    f0236270    #.pb    BIC      r2,r3,#0xf000000
        0x08001fca:    6863        ch      LDR      r3,[r4,#4]
        0x08001fcc:    f0236370    #.pc    BIC      r3,r3,#0xf000000
        0x08001fd0:    6063        c`      STR      r3,[r4,#4]
        0x08001fd2:    e002        ..      B        0x8001fda ; GPIO_PinRemapConfig + 66
        0x08001fd4:    43ab        .C      BICS     r3,r3,r5
        0x08001fd6:    f0436270    C.pb    ORR      r2,r3,#0xf000000
        0x08001fda:    b101        ..      CBZ      r1,0x8001fde ; GPIO_PinRemapConfig + 70
        0x08001fdc:    432a        *C      ORRS     r2,r2,r5
        0x08001fde:    2800        .(      CMP      r0,#0
        0x08001fe0:    da01        ..      BGE      0x8001fe6 ; GPIO_PinRemapConfig + 78
        0x08001fe2:    61e2        .a      STR      r2,[r4,#0x1c]
        0x08001fe4:    bdf0        ..      POP      {r4-r7,pc}
        0x08001fe6:    6062        b`      STR      r2,[r4,#4]
        0x08001fe8:    bdf0        ..      POP      {r4-r7,pc}
    GPIO_EXTILineConfig
        0x08001fea:    b510        ..      PUSH     {r4,lr}
        0x08001fec:    078a        ..      LSLS     r2,r1,#30
        0x08001fee:    f0210403    !...    BIC      r4,r1,#3
        0x08001ff2:    490f        .I      LDR      r1,[pc,#60] ; [0x8002030] = 0x40010000
        0x08001ff4:    0f12        ..      LSRS     r2,r2,#28
        0x08001ff6:    4421        !D      ADD      r1,r1,r4
        0x08001ff8:    230f        .#      MOVS     r3,#0xf
        0x08001ffa:    688c        .h      LDR      r4,[r1,#8]
        0x08001ffc:    4093        .@      LSLS     r3,r3,r2
        0x08001ffe:    439c        .C      BICS     r4,r4,r3
        0x08002000:    608c        .`      STR      r4,[r1,#8]
        0x08002002:    688b        .h      LDR      r3,[r1,#8]
        0x08002004:    4090        .@      LSLS     r0,r0,r2
        0x08002006:    4303        .C      ORRS     r3,r3,r0
        0x08002008:    608b        .`      STR      r3,[r1,#8]
        0x0800200a:    bd10        ..      POP      {r4,pc}
    GPIO_ETH_MediaInterfaceConfig
        0x0800200c:    4909        .I      LDR      r1,[pc,#36] ; [0x8002034] = 0x42200000
        0x0800200e:    f8c100dc    ....    STR      r0,[r1,#0xdc]
        0x08002012:    4770        pG      BX       lr
    $d
        0x08002014:    40010800    ...@    DCD    1073809408
        0x08002018:    40010c00    ...@    DCD    1073810432
        0x0800201c:    40011000    ...@    DCD    1073811456
        0x08002020:    40011400    ...@    DCD    1073812480
        0x08002024:    40011800    ...@    DCD    1073813504
        0x08002028:    40011c00    ...@    DCD    1073814528
        0x0800202c:    40012000    . .@    DCD    1073815552
        0x08002030:    40010000    ...@    DCD    1073807360
        0x08002034:    42200000    .. B    DCD    1109393408
    $t
    .text
    RCC_DeInit
        0x08002038:    48a5        .H      LDR      r0,[pc,#660] ; [0x80022d0] = 0x40021000
        0x0800203a:    6801        .h      LDR      r1,[r0,#0]
        0x0800203c:    f0410101    A...    ORR      r1,r1,#1
        0x08002040:    6001        .`      STR      r1,[r0,#0]
        0x08002042:    6841        Ah      LDR      r1,[r0,#4]
        0x08002044:    4aa3        .J      LDR      r2,[pc,#652] ; [0x80022d4] = 0xf8ff0000
        0x08002046:    4011        .@      ANDS     r1,r1,r2
        0x08002048:    6041        A`      STR      r1,[r0,#4]
        0x0800204a:    6801        .h      LDR      r1,[r0,#0]
        0x0800204c:    4aa2        .J      LDR      r2,[pc,#648] ; [0x80022d8] = 0xfef6ffff
        0x0800204e:    4011        .@      ANDS     r1,r1,r2
        0x08002050:    6001        .`      STR      r1,[r0,#0]
        0x08002052:    6801        .h      LDR      r1,[r0,#0]
        0x08002054:    f4212180    !..!    BIC      r1,r1,#0x40000
        0x08002058:    6001        .`      STR      r1,[r0,#0]
        0x0800205a:    6841        Ah      LDR      r1,[r0,#4]
        0x0800205c:    f42101fe    !...    BIC      r1,r1,#0x7f0000
        0x08002060:    6041        A`      STR      r1,[r0,#4]
        0x08002062:    f44f011f    O...    MOV      r1,#0x9f0000
        0x08002066:    6081        .`      STR      r1,[r0,#8]
        0x08002068:    4770        pG      BX       lr
    RCC_HSEConfig
        0x0800206a:    4999        .I      LDR      r1,[pc,#612] ; [0x80022d0] = 0x40021000
        0x0800206c:    680a        .h      LDR      r2,[r1,#0]
        0x0800206e:    f4223280    "..2    BIC      r2,r2,#0x10000
        0x08002072:    600a        .`      STR      r2,[r1,#0]
        0x08002074:    680a        .h      LDR      r2,[r1,#0]
        0x08002076:    f4222280    ".."    BIC      r2,r2,#0x40000
        0x0800207a:    600a        .`      STR      r2,[r1,#0]
        0x0800207c:    f5b03f80    ...?    CMP      r0,#0x10000
        0x08002080:    d007        ..      BEQ      0x8002092 ; RCC_HSEConfig + 40
        0x08002082:    f5b02f80    .../    CMP      r0,#0x40000
        0x08002086:    d103        ..      BNE      0x8002090 ; RCC_HSEConfig + 38
        0x08002088:    6808        .h      LDR      r0,[r1,#0]
        0x0800208a:    f44020a0    @..     ORR      r0,r0,#0x50000
        0x0800208e:    6008        .`      STR      r0,[r1,#0]
        0x08002090:    4770        pG      BX       lr
        0x08002092:    6808        .h      LDR      r0,[r1,#0]
        0x08002094:    f4403080    @..0    ORR      r0,r0,#0x10000
        0x08002098:    e7f9        ..      B        0x800208e ; RCC_HSEConfig + 36
    RCC_GetFlagStatus
        0x0800209a:    4603        .F      MOV      r3,r0
        0x0800209c:    2000        .       MOVS     r0,#0
        0x0800209e:    0959        Y.      LSRS     r1,r3,#5
        0x080020a0:    4a8b        .J      LDR      r2,[pc,#556] ; [0x80022d0] = 0x40021000
        0x080020a2:    2901        .)      CMP      r1,#1
        0x080020a4:    d00a        ..      BEQ      0x80020bc ; RCC_GetFlagStatus + 34
        0x080020a6:    2902        .)      CMP      r1,#2
        0x080020a8:    d00a        ..      BEQ      0x80020c0 ; RCC_GetFlagStatus + 38
        0x080020aa:    6a51        Qj      LDR      r1,[r2,#0x24]
        0x080020ac:    f003021f    ....    AND      r2,r3,#0x1f
        0x080020b0:    2301        .#      MOVS     r3,#1
        0x080020b2:    4093        .@      LSLS     r3,r3,r2
        0x080020b4:    420b        .B      TST      r3,r1
        0x080020b6:    d000        ..      BEQ      0x80020ba ; RCC_GetFlagStatus + 32
        0x080020b8:    2001        .       MOVS     r0,#1
        0x080020ba:    4770        pG      BX       lr
        0x080020bc:    6811        .h      LDR      r1,[r2,#0]
        0x080020be:    e7f5        ..      B        0x80020ac ; RCC_GetFlagStatus + 18
        0x080020c0:    6a11        .j      LDR      r1,[r2,#0x20]
        0x080020c2:    e7f3        ..      B        0x80020ac ; RCC_GetFlagStatus + 18
    RCC_WaitForHSEStartUp
        0x080020c4:    b518        ..      PUSH     {r3,r4,lr}
        0x080020c6:    2000        .       MOVS     r0,#0
        0x080020c8:    f44f64a0    O..d    MOV      r4,#0x500
        0x080020cc:    9000        ..      STR      r0,[sp,#0]
        0x080020ce:    2031        1       MOVS     r0,#0x31
        0x080020d0:    f7ffffe3    ....    BL       RCC_GetFlagStatus ; 0x800209a
        0x080020d4:    9900        ..      LDR      r1,[sp,#0]
        0x080020d6:    1c49        I.      ADDS     r1,r1,#1
        0x080020d8:    9100        ..      STR      r1,[sp,#0]
        0x080020da:    42a1        .B      CMP      r1,r4
        0x080020dc:    d001        ..      BEQ      0x80020e2 ; RCC_WaitForHSEStartUp + 30
        0x080020de:    2800        .(      CMP      r0,#0
        0x080020e0:    d0f5        ..      BEQ      0x80020ce ; RCC_WaitForHSEStartUp + 10
        0x080020e2:    2031        1       MOVS     r0,#0x31
        0x080020e4:    f7ffffd9    ....    BL       RCC_GetFlagStatus ; 0x800209a
        0x080020e8:    2800        .(      CMP      r0,#0
        0x080020ea:    d000        ..      BEQ      0x80020ee ; RCC_WaitForHSEStartUp + 42
        0x080020ec:    2001        .       MOVS     r0,#1
        0x080020ee:    bd18        ..      POP      {r3,r4,pc}
    RCC_AdjustHSICalibrationValue
        0x080020f0:    4a77        wJ      LDR      r2,[pc,#476] ; [0x80022d0] = 0x40021000
        0x080020f2:    6811        .h      LDR      r1,[r2,#0]
        0x080020f4:    f02101f8    !...    BIC      r1,r1,#0xf8
        0x080020f8:    ea4100c0    A...    ORR      r0,r1,r0,LSL #3
        0x080020fc:    6010        .`      STR      r0,[r2,#0]
        0x080020fe:    4770        pG      BX       lr
    RCC_HSICmd
        0x08002100:    4976        vI      LDR      r1,[pc,#472] ; [0x80022dc] = 0x42420000
        0x08002102:    6008        .`      STR      r0,[r1,#0]
        0x08002104:    4770        pG      BX       lr
    RCC_PLLConfig
        0x08002106:    4b72        rK      LDR      r3,[pc,#456] ; [0x80022d0] = 0x40021000
        0x08002108:    685a        Zh      LDR      r2,[r3,#4]
        0x0800210a:    4308        .C      ORRS     r0,r0,r1
        0x0800210c:    f422127c    ".|.    BIC      r2,r2,#0x3f0000
        0x08002110:    4310        .C      ORRS     r0,r0,r2
        0x08002112:    6058        X`      STR      r0,[r3,#4]
        0x08002114:    4770        pG      BX       lr
    RCC_PLLCmd
        0x08002116:    4971        qI      LDR      r1,[pc,#452] ; [0x80022dc] = 0x42420000
        0x08002118:    6608        .f      STR      r0,[r1,#0x60]
        0x0800211a:    4770        pG      BX       lr
    RCC_SYSCLKConfig
        0x0800211c:    4a6c        lJ      LDR      r2,[pc,#432] ; [0x80022d0] = 0x40021000
        0x0800211e:    6851        Qh      LDR      r1,[r2,#4]
        0x08002120:    f0210103    !...    BIC      r1,r1,#3
        0x08002124:    4301        .C      ORRS     r1,r1,r0
        0x08002126:    6051        Q`      STR      r1,[r2,#4]
        0x08002128:    4770        pG      BX       lr
    RCC_GetSYSCLKSource
        0x0800212a:    4869        iH      LDR      r0,[pc,#420] ; [0x80022d0] = 0x40021000
        0x0800212c:    6840        @h      LDR      r0,[r0,#4]
        0x0800212e:    f000000c    ....    AND      r0,r0,#0xc
        0x08002132:    4770        pG      BX       lr
    RCC_HCLKConfig
        0x08002134:    4a66        fJ      LDR      r2,[pc,#408] ; [0x80022d0] = 0x40021000
        0x08002136:    6851        Qh      LDR      r1,[r2,#4]
        0x08002138:    f02101f0    !...    BIC      r1,r1,#0xf0
        0x0800213c:    4301        .C      ORRS     r1,r1,r0
        0x0800213e:    6051        Q`      STR      r1,[r2,#4]
        0x08002140:    4770        pG      BX       lr
    RCC_PCLK1Config
        0x08002142:    4a63        cJ      LDR      r2,[pc,#396] ; [0x80022d0] = 0x40021000
        0x08002144:    6851        Qh      LDR      r1,[r2,#4]
        0x08002146:    f42161e0    !..a    BIC      r1,r1,#0x700
        0x0800214a:    4301        .C      ORRS     r1,r1,r0
        0x0800214c:    6051        Q`      STR      r1,[r2,#4]
        0x0800214e:    4770        pG      BX       lr
    RCC_PCLK2Config
        0x08002150:    4a5f        _J      LDR      r2,[pc,#380] ; [0x80022d0] = 0x40021000
        0x08002152:    6851        Qh      LDR      r1,[r2,#4]
        0x08002154:    f4215160    !.`Q    BIC      r1,r1,#0x3800
        0x08002158:    ea4100c0    A...    ORR      r0,r1,r0,LSL #3
        0x0800215c:    6050        P`      STR      r0,[r2,#4]
        0x0800215e:    4770        pG      BX       lr
    RCC_ITConfig
        0x08002160:    4a5b        [J      LDR      r2,[pc,#364] ; [0x80022d0] = 0x40021000
        0x08002162:    2900        .)      CMP      r1,#0
        0x08002164:    7a51        Qz      LDRB     r1,[r2,#9]
        0x08002166:    d001        ..      BEQ      0x800216c ; RCC_ITConfig + 12
        0x08002168:    4301        .C      ORRS     r1,r1,r0
        0x0800216a:    e000        ..      B        0x800216e ; RCC_ITConfig + 14
        0x0800216c:    4381        .C      BICS     r1,r1,r0
        0x0800216e:    7251        Qr      STRB     r1,[r2,#9]
        0x08002170:    4770        pG      BX       lr
    RCC_USBCLKConfig
        0x08002172:    495a        ZI      LDR      r1,[pc,#360] ; [0x80022dc] = 0x42420000
        0x08002174:    f8c100d8    ....    STR      r0,[r1,#0xd8]
        0x08002178:    4770        pG      BX       lr
    RCC_ADCCLKConfig
        0x0800217a:    4a55        UJ      LDR      r2,[pc,#340] ; [0x80022d0] = 0x40021000
        0x0800217c:    6851        Qh      LDR      r1,[r2,#4]
        0x0800217e:    f4214140    !.@A    BIC      r1,r1,#0xc000
        0x08002182:    4301        .C      ORRS     r1,r1,r0
        0x08002184:    6051        Q`      STR      r1,[r2,#4]
        0x08002186:    4770        pG      BX       lr
    RCC_LSEConfig
        0x08002188:    4951        QI      LDR      r1,[pc,#324] ; [0x80022d0] = 0x40021000
        0x0800218a:    2200        ."      MOVS     r2,#0
        0x0800218c:    f8812020    ..      STRB     r2,[r1,#0x20]
        0x08002190:    f8812020    ..      STRB     r2,[r1,#0x20]
        0x08002194:    2801        .(      CMP      r0,#1
        0x08002196:    d002        ..      BEQ      0x800219e ; RCC_LSEConfig + 22
        0x08002198:    2804        .(      CMP      r0,#4
        0x0800219a:    d102        ..      BNE      0x80021a2 ; RCC_LSEConfig + 26
        0x0800219c:    2005        .       MOVS     r0,#5
        0x0800219e:    f8810020    .. .    STRB     r0,[r1,#0x20]
        0x080021a2:    4770        pG      BX       lr
    RCC_LSICmd
        0x080021a4:    494e        NI      LDR      r1,[pc,#312] ; [0x80022e0] = 0x42420480
        0x080021a6:    6008        .`      STR      r0,[r1,#0]
        0x080021a8:    4770        pG      BX       lr
    RCC_RTCCLKConfig
        0x080021aa:    4949        II      LDR      r1,[pc,#292] ; [0x80022d0] = 0x40021000
        0x080021ac:    6a0a        .j      LDR      r2,[r1,#0x20]
        0x080021ae:    4302        .C      ORRS     r2,r2,r0
        0x080021b0:    620a        .b      STR      r2,[r1,#0x20]
        0x080021b2:    4770        pG      BX       lr
    RCC_RTCCLKCmd
        0x080021b4:    494a        JI      LDR      r1,[pc,#296] ; [0x80022e0] = 0x42420480
        0x080021b6:    3944        D9      SUBS     r1,r1,#0x44
        0x080021b8:    6008        .`      STR      r0,[r1,#0]
        0x080021ba:    4770        pG      BX       lr
    RCC_GetClocksFreq
        0x080021bc:    b530        0.      PUSH     {r4,r5,lr}
        0x080021be:    4a44        DJ      LDR      r2,[pc,#272] ; [0x80022d0] = 0x40021000
        0x080021c0:    6851        Qh      LDR      r1,[r2,#4]
        0x080021c2:    4b48        HK      LDR      r3,[pc,#288] ; [0x80022e4] = 0x7a1200
        0x080021c4:    f011010c    ....    ANDS     r1,r1,#0xc
        0x080021c8:    d003        ..      BEQ      0x80021d2 ; RCC_GetClocksFreq + 22
        0x080021ca:    2904        .)      CMP      r1,#4
        0x080021cc:    d001        ..      BEQ      0x80021d2 ; RCC_GetClocksFreq + 22
        0x080021ce:    2908        .)      CMP      r1,#8
        0x080021d0:    d001        ..      BEQ      0x80021d6 ; RCC_GetClocksFreq + 26
        0x080021d2:    6003        .`      STR      r3,[r0,#0]
        0x080021d4:    e012        ..      B        0x80021fc ; RCC_GetClocksFreq + 64
        0x080021d6:    6851        Qh      LDR      r1,[r2,#4]
        0x080021d8:    6853        Sh      LDR      r3,[r2,#4]
        0x080021da:    f4011170    ..p.    AND      r1,r1,#0x3c0000
        0x080021de:    f04f0402    O...    MOV      r4,#2
        0x080021e2:    f4133f80    ...?    TST      r3,#0x10000
        0x080021e6:    eb044191    ...A    ADD      r1,r4,r1,LSR #18
        0x080021ea:    d002        ..      BEQ      0x80021f2 ; RCC_GetClocksFreq + 54
        0x080021ec:    6853        Sh      LDR      r3,[r2,#4]
        0x080021ee:    039b        ..      LSLS     r3,r3,#14
        0x080021f0:    d501        ..      BPL      0x80021f6 ; RCC_GetClocksFreq + 58
        0x080021f2:    4b3d        =K      LDR      r3,[pc,#244] ; [0x80022e8] = 0x3d0900
        0x080021f4:    e000        ..      B        0x80021f8 ; RCC_GetClocksFreq + 60
        0x080021f6:    4b3b        ;K      LDR      r3,[pc,#236] ; [0x80022e4] = 0x7a1200
        0x080021f8:    4359        YC      MULS     r1,r3,r1
        0x080021fa:    6001        .`      STR      r1,[r0,#0]
        0x080021fc:    6851        Qh      LDR      r1,[r2,#4]
        0x080021fe:    230f        .#      MOVS     r3,#0xf
        0x08002200:    ea031111    ....    AND      r1,r3,r1,LSR #4
        0x08002204:    4b39        9K      LDR      r3,[pc,#228] ; [0x80022ec] = 0x2000002c
        0x08002206:    5c5c        \\      LDRB     r4,[r3,r1]
        0x08002208:    6801        .h      LDR      r1,[r0,#0]
        0x0800220a:    40e1        .@      LSRS     r1,r1,r4
        0x0800220c:    6041        A`      STR      r1,[r0,#4]
        0x0800220e:    6854        Th      LDR      r4,[r2,#4]
        0x08002210:    2507        .%      MOVS     r5,#7
        0x08002212:    ea052414    ...$    AND      r4,r5,r4,LSR #8
        0x08002216:    5d1c        .]      LDRB     r4,[r3,r4]
        0x08002218:    fa21f404    !...    LSR      r4,r1,r4
        0x0800221c:    6084        .`      STR      r4,[r0,#8]
        0x0800221e:    6854        Th      LDR      r4,[r2,#4]
        0x08002220:    ea0524d4    ...$    AND      r4,r5,r4,LSR #11
        0x08002224:    5d1b        .]      LDRB     r3,[r3,r4]
        0x08002226:    40d9        .@      LSRS     r1,r1,r3
        0x08002228:    60c1        .`      STR      r1,[r0,#0xc]
        0x0800222a:    6852        Rh      LDR      r2,[r2,#4]
        0x0800222c:    2303        .#      MOVS     r3,#3
        0x0800222e:    ea033292    ...2    AND      r2,r3,r2,LSR #14
        0x08002232:    4b2e        .K      LDR      r3,[pc,#184] ; [0x80022ec] = 0x2000002c
        0x08002234:    1f1b        ..      SUBS     r3,r3,#4
        0x08002236:    5c9a        .\      LDRB     r2,[r3,r2]
        0x08002238:    fbb1f1f2    ....    UDIV     r1,r1,r2
        0x0800223c:    6101        .a      STR      r1,[r0,#0x10]
        0x0800223e:    bd30        0.      POP      {r4,r5,pc}
    RCC_AHBPeriphClockCmd
        0x08002240:    4a23        #J      LDR      r2,[pc,#140] ; [0x80022d0] = 0x40021000
        0x08002242:    2900        .)      CMP      r1,#0
        0x08002244:    6951        Qi      LDR      r1,[r2,#0x14]
        0x08002246:    d001        ..      BEQ      0x800224c ; RCC_AHBPeriphClockCmd + 12
        0x08002248:    4301        .C      ORRS     r1,r1,r0
        0x0800224a:    e000        ..      B        0x800224e ; RCC_AHBPeriphClockCmd + 14
        0x0800224c:    4381        .C      BICS     r1,r1,r0
        0x0800224e:    6151        Qa      STR      r1,[r2,#0x14]
        0x08002250:    4770        pG      BX       lr
    RCC_APB2PeriphClockCmd
        0x08002252:    4a1f        .J      LDR      r2,[pc,#124] ; [0x80022d0] = 0x40021000
        0x08002254:    2900        .)      CMP      r1,#0
        0x08002256:    6991        .i      LDR      r1,[r2,#0x18]
        0x08002258:    d001        ..      BEQ      0x800225e ; RCC_APB2PeriphClockCmd + 12
        0x0800225a:    4301        .C      ORRS     r1,r1,r0
        0x0800225c:    e000        ..      B        0x8002260 ; RCC_APB2PeriphClockCmd + 14
        0x0800225e:    4381        .C      BICS     r1,r1,r0
        0x08002260:    6191        .a      STR      r1,[r2,#0x18]
        0x08002262:    4770        pG      BX       lr
    RCC_APB1PeriphClockCmd
        0x08002264:    4a1a        .J      LDR      r2,[pc,#104] ; [0x80022d0] = 0x40021000
        0x08002266:    2900        .)      CMP      r1,#0
        0x08002268:    69d1        .i      LDR      r1,[r2,#0x1c]
        0x0800226a:    d001        ..      BEQ      0x8002270 ; RCC_APB1PeriphClockCmd + 12
        0x0800226c:    4301        .C      ORRS     r1,r1,r0
        0x0800226e:    e000        ..      B        0x8002272 ; RCC_APB1PeriphClockCmd + 14
        0x08002270:    4381        .C      BICS     r1,r1,r0
        0x08002272:    61d1        .a      STR      r1,[r2,#0x1c]
        0x08002274:    4770        pG      BX       lr
    RCC_APB2PeriphResetCmd
        0x08002276:    4a16        .J      LDR      r2,[pc,#88] ; [0x80022d0] = 0x40021000
        0x08002278:    2900        .)      CMP      r1,#0
        0x0800227a:    68d1        .h      LDR      r1,[r2,#0xc]
        0x0800227c:    d001        ..      BEQ      0x8002282 ; RCC_APB2PeriphResetCmd + 12
        0x0800227e:    4301        .C      ORRS     r1,r1,r0
        0x08002280:    e000        ..      B        0x8002284 ; RCC_APB2PeriphResetCmd + 14
        0x08002282:    4381        .C      BICS     r1,r1,r0
        0x08002284:    60d1        .`      STR      r1,[r2,#0xc]
        0x08002286:    4770        pG      BX       lr
    RCC_APB1PeriphResetCmd
        0x08002288:    4a11        .J      LDR      r2,[pc,#68] ; [0x80022d0] = 0x40021000
        0x0800228a:    2900        .)      CMP      r1,#0
        0x0800228c:    6911        .i      LDR      r1,[r2,#0x10]
        0x0800228e:    d001        ..      BEQ      0x8002294 ; RCC_APB1PeriphResetCmd + 12
        0x08002290:    4301        .C      ORRS     r1,r1,r0
        0x08002292:    e000        ..      B        0x8002296 ; RCC_APB1PeriphResetCmd + 14
        0x08002294:    4381        .C      BICS     r1,r1,r0
        0x08002296:    6111        .a      STR      r1,[r2,#0x10]
        0x08002298:    4770        pG      BX       lr
    RCC_BackupResetCmd
        0x0800229a:    4911        .I      LDR      r1,[pc,#68] ; [0x80022e0] = 0x42420480
        0x0800229c:    3940        @9      SUBS     r1,r1,#0x40
        0x0800229e:    6008        .`      STR      r0,[r1,#0]
        0x080022a0:    4770        pG      BX       lr
    RCC_ClockSecuritySystemCmd
        0x080022a2:    490e        .I      LDR      r1,[pc,#56] ; [0x80022dc] = 0x42420000
        0x080022a4:    64c8        .d      STR      r0,[r1,#0x4c]
        0x080022a6:    4770        pG      BX       lr
    RCC_MCOConfig
        0x080022a8:    4909        .I      LDR      r1,[pc,#36] ; [0x80022d0] = 0x40021000
        0x080022aa:    71c8        .q      STRB     r0,[r1,#7]
        0x080022ac:    4770        pG      BX       lr
    RCC_ClearFlag
        0x080022ae:    4808        .H      LDR      r0,[pc,#32] ; [0x80022d0] = 0x40021000
        0x080022b0:    6a41        Aj      LDR      r1,[r0,#0x24]
        0x080022b2:    f0417180    A..q    ORR      r1,r1,#0x1000000
        0x080022b6:    6241        Ab      STR      r1,[r0,#0x24]
        0x080022b8:    4770        pG      BX       lr
    RCC_GetITStatus
        0x080022ba:    4a05        .J      LDR      r2,[pc,#20] ; [0x80022d0] = 0x40021000
        0x080022bc:    4601        .F      MOV      r1,r0
        0x080022be:    2000        .       MOVS     r0,#0
        0x080022c0:    6892        .h      LDR      r2,[r2,#8]
        0x080022c2:    420a        .B      TST      r2,r1
        0x080022c4:    d000        ..      BEQ      0x80022c8 ; RCC_GetITStatus + 14
        0x080022c6:    2001        .       MOVS     r0,#1
        0x080022c8:    4770        pG      BX       lr
    RCC_ClearITPendingBit
        0x080022ca:    4901        .I      LDR      r1,[pc,#4] ; [0x80022d0] = 0x40021000
        0x080022cc:    7288        .r      STRB     r0,[r1,#0xa]
        0x080022ce:    4770        pG      BX       lr
    $d
        0x080022d0:    40021000    ...@    DCD    1073876992
        0x080022d4:    f8ff0000    ....    DCD    4177461248
        0x080022d8:    fef6ffff    ....    DCD    4277600255
        0x080022dc:    42420000    ..BB    DCD    1111621632
        0x080022e0:    42420480    ..BB    DCD    1111622784
        0x080022e4:    007a1200    ..z.    DCD    8000000
        0x080022e8:    003d0900    ..=.    DCD    4000000
        0x080022ec:    2000002c    ,..     DCD    536870956
    $t
    .text
    USART_DeInit
        0x080022f0:    49c4        .I      LDR      r1,[pc,#784] ; [0x8002604] = 0x40013800
        0x080022f2:    b510        ..      PUSH     {r4,lr}
        0x080022f4:    4288        .B      CMP      r0,r1
        0x080022f6:    d10a        ..      BNE      0x800230e ; USART_DeInit + 30
        0x080022f8:    2101        .!      MOVS     r1,#1
        0x080022fa:    038c        ..      LSLS     r4,r1,#14
        0x080022fc:    4620         F      MOV      r0,r4
        0x080022fe:    f7ffffba    ....    BL       RCC_APB2PeriphResetCmd ; 0x8002276
        0x08002302:    4620         F      MOV      r0,r4
        0x08002304:    e8bd4010    ...@    POP      {r4,lr}
        0x08002308:    2100        .!      MOVS     r1,#0
        0x0800230a:    f7ffbfb4    ....    B.W      RCC_APB2PeriphResetCmd ; 0x8002276
        0x0800230e:    49be        .I      LDR      r1,[pc,#760] ; [0x8002608] = 0x40004400
        0x08002310:    4288        .B      CMP      r0,r1
        0x08002312:    d102        ..      BNE      0x800231a ; USART_DeInit + 42
        0x08002314:    2101        .!      MOVS     r1,#1
        0x08002316:    044c        L.      LSLS     r4,r1,#17
        0x08002318:    e010        ..      B        0x800233c ; USART_DeInit + 76
        0x0800231a:    49bc        .I      LDR      r1,[pc,#752] ; [0x800260c] = 0x40004800
        0x0800231c:    4288        .B      CMP      r0,r1
        0x0800231e:    d102        ..      BNE      0x8002326 ; USART_DeInit + 54
        0x08002320:    2101        .!      MOVS     r1,#1
        0x08002322:    048c        ..      LSLS     r4,r1,#18
        0x08002324:    e00a        ..      B        0x800233c ; USART_DeInit + 76
        0x08002326:    49ba        .I      LDR      r1,[pc,#744] ; [0x8002610] = 0x40004c00
        0x08002328:    4288        .B      CMP      r0,r1
        0x0800232a:    d102        ..      BNE      0x8002332 ; USART_DeInit + 66
        0x0800232c:    2101        .!      MOVS     r1,#1
        0x0800232e:    04cc        ..      LSLS     r4,r1,#19
        0x08002330:    e004        ..      B        0x800233c ; USART_DeInit + 76
        0x08002332:    49b8        .I      LDR      r1,[pc,#736] ; [0x8002614] = 0x40005000
        0x08002334:    4288        .B      CMP      r0,r1
        0x08002336:    d10a        ..      BNE      0x800234e ; USART_DeInit + 94
        0x08002338:    2101        .!      MOVS     r1,#1
        0x0800233a:    050c        ..      LSLS     r4,r1,#20
        0x0800233c:    4620         F      MOV      r0,r4
        0x0800233e:    f7ffffa3    ....    BL       RCC_APB1PeriphResetCmd ; 0x8002288
        0x08002342:    4620         F      MOV      r0,r4
        0x08002344:    e8bd4010    ...@    POP      {r4,lr}
        0x08002348:    2100        .!      MOVS     r1,#0
        0x0800234a:    f7ffbf9d    ....    B.W      RCC_APB1PeriphResetCmd ; 0x8002288
        0x0800234e:    bd10        ..      POP      {r4,pc}
    USART_Init
        0x08002350:    b530        0.      PUSH     {r4,r5,lr}
        0x08002352:    4604        .F      MOV      r4,r0
        0x08002354:    8a00        ..      LDRH     r0,[r0,#0x10]
        0x08002356:    b085        ..      SUB      sp,sp,#0x14
        0x08002358:    460d        .F      MOV      r5,r1
        0x0800235a:    f64c71ff    L..q    MOV      r1,#0xcfff
        0x0800235e:    4008        .@      ANDS     r0,r0,r1
        0x08002360:    88e9        ..      LDRH     r1,[r5,#6]
        0x08002362:    4301        .C      ORRS     r1,r1,r0
        0x08002364:    8221        !.      STRH     r1,[r4,#0x10]
        0x08002366:    89a0        ..      LDRH     r0,[r4,#0xc]
        0x08002368:    f64e11f3    N...    MOV      r1,#0xe9f3
        0x0800236c:    4008        .@      ANDS     r0,r0,r1
        0x0800236e:    88a9        ..      LDRH     r1,[r5,#4]
        0x08002370:    892a        *.      LDRH     r2,[r5,#8]
        0x08002372:    4311        .C      ORRS     r1,r1,r2
        0x08002374:    896a        j.      LDRH     r2,[r5,#0xa]
        0x08002376:    4302        .C      ORRS     r2,r2,r0
        0x08002378:    4311        .C      ORRS     r1,r1,r2
        0x0800237a:    81a1        ..      STRH     r1,[r4,#0xc]
        0x0800237c:    8aa0        ..      LDRH     r0,[r4,#0x14]
        0x0800237e:    f64f41ff    O..A    MOV      r1,#0xfcff
        0x08002382:    4008        .@      ANDS     r0,r0,r1
        0x08002384:    89a9        ..      LDRH     r1,[r5,#0xc]
        0x08002386:    4301        .C      ORRS     r1,r1,r0
        0x08002388:    82a1        ..      STRH     r1,[r4,#0x14]
        0x0800238a:    4668        hF      MOV      r0,sp
        0x0800238c:    f7ffff16    ....    BL       RCC_GetClocksFreq ; 0x80021bc
        0x08002390:    489c        .H      LDR      r0,[pc,#624] ; [0x8002604] = 0x40013800
        0x08002392:    4284        .B      CMP      r4,r0
        0x08002394:    d101        ..      BNE      0x800239a ; USART_Init + 74
        0x08002396:    9803        ..      LDR      r0,[sp,#0xc]
        0x08002398:    e000        ..      B        0x800239c ; USART_Init + 76
        0x0800239a:    9802        ..      LDR      r0,[sp,#8]
        0x0800239c:    89a1        ..      LDRH     r1,[r4,#0xc]
        0x0800239e:    0409        ..      LSLS     r1,r1,#16
        0x080023a0:    eb0001c0    ....    ADD      r1,r0,r0,LSL #3
        0x080023a4:    eb011000    ....    ADD      r0,r1,r0,LSL #4
        0x080023a8:    6829        )h      LDR      r1,[r5,#0]
        0x080023aa:    d501        ..      BPL      0x80023b0 ; USART_Init + 96
        0x080023ac:    0049        I.      LSLS     r1,r1,#1
        0x080023ae:    e000        ..      B        0x80023b2 ; USART_Init + 98
        0x080023b0:    0089        ..      LSLS     r1,r1,#2
        0x080023b2:    fbb0f0f1    ....    UDIV     r0,r0,r1
        0x080023b6:    2264        d"      MOVS     r2,#0x64
        0x080023b8:    fbb0f1f2    ....    UDIV     r1,r0,r2
        0x080023bc:    0109        ..      LSLS     r1,r1,#4
        0x080023be:    090b        ..      LSRS     r3,r1,#4
        0x080023c0:    f06f0518    o...    MVN      r5,#0x18
        0x080023c4:    436b        kC      MULS     r3,r5,r3
        0x080023c6:    eb000083    ....    ADD      r0,r0,r3,LSL #2
        0x080023ca:    89a3        ..      LDRH     r3,[r4,#0xc]
        0x080023cc:    041d        ..      LSLS     r5,r3,#16
        0x080023ce:    f04f0332    O.2.    MOV      r3,#0x32
        0x080023d2:    d506        ..      BPL      0x80023e2 ; USART_Init + 146
        0x080023d4:    eb0300c0    ....    ADD      r0,r3,r0,LSL #3
        0x080023d8:    fbb0f0f2    ....    UDIV     r0,r0,r2
        0x080023dc:    f0000007    ....    AND      r0,r0,#7
        0x080023e0:    e005        ..      B        0x80023ee ; USART_Init + 158
        0x080023e2:    eb031000    ....    ADD      r0,r3,r0,LSL #4
        0x080023e6:    fbb0f0f2    ....    UDIV     r0,r0,r2
        0x080023ea:    f000000f    ....    AND      r0,r0,#0xf
        0x080023ee:    4308        .C      ORRS     r0,r0,r1
        0x080023f0:    8120         .      STRH     r0,[r4,#8]
        0x080023f2:    b005        ..      ADD      sp,sp,#0x14
        0x080023f4:    bd30        0.      POP      {r4,r5,pc}
    USART_StructInit
        0x080023f6:    f44f5116    O..Q    MOV      r1,#0x2580
        0x080023fa:    6001        .`      STR      r1,[r0,#0]
        0x080023fc:    2100        .!      MOVS     r1,#0
        0x080023fe:    8081        ..      STRH     r1,[r0,#4]
        0x08002400:    80c1        ..      STRH     r1,[r0,#6]
        0x08002402:    8101        ..      STRH     r1,[r0,#8]
        0x08002404:    220c        ."      MOVS     r2,#0xc
        0x08002406:    8142        B.      STRH     r2,[r0,#0xa]
        0x08002408:    8181        ..      STRH     r1,[r0,#0xc]
        0x0800240a:    4770        pG      BX       lr
    USART_ClockInit
        0x0800240c:    b510        ..      PUSH     {r4,lr}
        0x0800240e:    8a02        ..      LDRH     r2,[r0,#0x10]
        0x08002410:    f24f03ff    O...    MOV      r3,#0xf0ff
        0x08002414:    401a        .@      ANDS     r2,r2,r3
        0x08002416:    880b        ..      LDRH     r3,[r1,#0]
        0x08002418:    884c        L.      LDRH     r4,[r1,#2]
        0x0800241a:    4323        #C      ORRS     r3,r3,r4
        0x0800241c:    888c        ..      LDRH     r4,[r1,#4]
        0x0800241e:    88c9        ..      LDRH     r1,[r1,#6]
        0x08002420:    430c        .C      ORRS     r4,r4,r1
        0x08002422:    4323        #C      ORRS     r3,r3,r4
        0x08002424:    4313        .C      ORRS     r3,r3,r2
        0x08002426:    8203        ..      STRH     r3,[r0,#0x10]
        0x08002428:    bd10        ..      POP      {r4,pc}
    USART_ClockStructInit
        0x0800242a:    2100        .!      MOVS     r1,#0
        0x0800242c:    8001        ..      STRH     r1,[r0,#0]
        0x0800242e:    8041        A.      STRH     r1,[r0,#2]
        0x08002430:    8081        ..      STRH     r1,[r0,#4]
        0x08002432:    80c1        ..      STRH     r1,[r0,#6]
        0x08002434:    4770        pG      BX       lr
    USART_Cmd
        0x08002436:    2900        .)      CMP      r1,#0
        0x08002438:    8981        ..      LDRH     r1,[r0,#0xc]
        0x0800243a:    d002        ..      BEQ      0x8002442 ; USART_Cmd + 12
        0x0800243c:    f4415100    A..Q    ORR      r1,r1,#0x2000
        0x08002440:    e001        ..      B        0x8002446 ; USART_Cmd + 16
        0x08002442:    f4215100    !..Q    BIC      r1,r1,#0x2000
        0x08002446:    8181        ..      STRH     r1,[r0,#0xc]
        0x08002448:    4770        pG      BX       lr
    USART_ITConfig
        0x0800244a:    b510        ..      PUSH     {r4,lr}
        0x0800244c:    f3c11342    ..B.    UBFX     r3,r1,#5,#3
        0x08002450:    f001041f    ....    AND      r4,r1,#0x1f
        0x08002454:    2101        .!      MOVS     r1,#1
        0x08002456:    40a1        .@      LSLS     r1,r1,r4
        0x08002458:    2b01        .+      CMP      r3,#1
        0x0800245a:    d007        ..      BEQ      0x800246c ; USART_ITConfig + 34
        0x0800245c:    2b02        .+      CMP      r3,#2
        0x0800245e:    d007        ..      BEQ      0x8002470 ; USART_ITConfig + 38
        0x08002460:    3014        .0      ADDS     r0,r0,#0x14
        0x08002462:    2a00        .*      CMP      r2,#0
        0x08002464:    6802        .h      LDR      r2,[r0,#0]
        0x08002466:    d005        ..      BEQ      0x8002474 ; USART_ITConfig + 42
        0x08002468:    430a        .C      ORRS     r2,r2,r1
        0x0800246a:    e004        ..      B        0x8002476 ; USART_ITConfig + 44
        0x0800246c:    300c        .0      ADDS     r0,r0,#0xc
        0x0800246e:    e7f8        ..      B        0x8002462 ; USART_ITConfig + 24
        0x08002470:    3010        .0      ADDS     r0,r0,#0x10
        0x08002472:    e7f6        ..      B        0x8002462 ; USART_ITConfig + 24
        0x08002474:    438a        .C      BICS     r2,r2,r1
        0x08002476:    6002        .`      STR      r2,[r0,#0]
        0x08002478:    bd10        ..      POP      {r4,pc}
    USART_DMACmd
        0x0800247a:    2a00        .*      CMP      r2,#0
        0x0800247c:    8a82        ..      LDRH     r2,[r0,#0x14]
        0x0800247e:    d001        ..      BEQ      0x8002484 ; USART_DMACmd + 10
        0x08002480:    430a        .C      ORRS     r2,r2,r1
        0x08002482:    e000        ..      B        0x8002486 ; USART_DMACmd + 12
        0x08002484:    438a        .C      BICS     r2,r2,r1
        0x08002486:    8282        ..      STRH     r2,[r0,#0x14]
        0x08002488:    4770        pG      BX       lr
    USART_SetAddress
        0x0800248a:    8a02        ..      LDRH     r2,[r0,#0x10]
        0x0800248c:    f022020f    "...    BIC      r2,r2,#0xf
        0x08002490:    8202        ..      STRH     r2,[r0,#0x10]
        0x08002492:    8a02        ..      LDRH     r2,[r0,#0x10]
        0x08002494:    430a        .C      ORRS     r2,r2,r1
        0x08002496:    8202        ..      STRH     r2,[r0,#0x10]
        0x08002498:    4770        pG      BX       lr
    USART_WakeUpConfig
        0x0800249a:    8982        ..      LDRH     r2,[r0,#0xc]
        0x0800249c:    f4226200    "..b    BIC      r2,r2,#0x800
        0x080024a0:    8182        ..      STRH     r2,[r0,#0xc]
        0x080024a2:    8982        ..      LDRH     r2,[r0,#0xc]
        0x080024a4:    430a        .C      ORRS     r2,r2,r1
        0x080024a6:    8182        ..      STRH     r2,[r0,#0xc]
        0x080024a8:    4770        pG      BX       lr
    USART_ReceiverWakeUpCmd
        0x080024aa:    2900        .)      CMP      r1,#0
        0x080024ac:    8981        ..      LDRH     r1,[r0,#0xc]
        0x080024ae:    d002        ..      BEQ      0x80024b6 ; USART_ReceiverWakeUpCmd + 12
        0x080024b0:    f0410102    A...    ORR      r1,r1,#2
        0x080024b4:    e001        ..      B        0x80024ba ; USART_ReceiverWakeUpCmd + 16
        0x080024b6:    f0210102    !...    BIC      r1,r1,#2
        0x080024ba:    8181        ..      STRH     r1,[r0,#0xc]
        0x080024bc:    4770        pG      BX       lr
    USART_LINBreakDetectLengthConfig
        0x080024be:    8a02        ..      LDRH     r2,[r0,#0x10]
        0x080024c0:    f0220220    ". .    BIC      r2,r2,#0x20
        0x080024c4:    8202        ..      STRH     r2,[r0,#0x10]
        0x080024c6:    8a02        ..      LDRH     r2,[r0,#0x10]
        0x080024c8:    430a        .C      ORRS     r2,r2,r1
        0x080024ca:    8202        ..      STRH     r2,[r0,#0x10]
        0x080024cc:    4770        pG      BX       lr
    USART_LINCmd
        0x080024ce:    2900        .)      CMP      r1,#0
        0x080024d0:    8a01        ..      LDRH     r1,[r0,#0x10]
        0x080024d2:    d002        ..      BEQ      0x80024da ; USART_LINCmd + 12
        0x080024d4:    f4414180    A..A    ORR      r1,r1,#0x4000
        0x080024d8:    e001        ..      B        0x80024de ; USART_LINCmd + 16
        0x080024da:    f4214180    !..A    BIC      r1,r1,#0x4000
        0x080024de:    8201        ..      STRH     r1,[r0,#0x10]
        0x080024e0:    4770        pG      BX       lr
    USART_SendData
        0x080024e2:    f3c10108    ....    UBFX     r1,r1,#0,#9
        0x080024e6:    8081        ..      STRH     r1,[r0,#4]
        0x080024e8:    4770        pG      BX       lr
    USART_ReceiveData
        0x080024ea:    8880        ..      LDRH     r0,[r0,#4]
        0x080024ec:    f3c00008    ....    UBFX     r0,r0,#0,#9
        0x080024f0:    4770        pG      BX       lr
    USART_SendBreak
        0x080024f2:    8981        ..      LDRH     r1,[r0,#0xc]
        0x080024f4:    f0410101    A...    ORR      r1,r1,#1
        0x080024f8:    8181        ..      STRH     r1,[r0,#0xc]
        0x080024fa:    4770        pG      BX       lr
    USART_SetGuardTime
        0x080024fc:    8b02        ..      LDRH     r2,[r0,#0x18]
        0x080024fe:    b2d2        ..      UXTB     r2,r2
        0x08002500:    8302        ..      STRH     r2,[r0,#0x18]
        0x08002502:    8b02        ..      LDRH     r2,[r0,#0x18]
        0x08002504:    ea422101    B..!    ORR      r1,r2,r1,LSL #8
        0x08002508:    8301        ..      STRH     r1,[r0,#0x18]
        0x0800250a:    4770        pG      BX       lr
    USART_SetPrescaler
        0x0800250c:    8b02        ..      LDRH     r2,[r0,#0x18]
        0x0800250e:    f402427f    ...B    AND      r2,r2,#0xff00
        0x08002512:    8302        ..      STRH     r2,[r0,#0x18]
        0x08002514:    8b02        ..      LDRH     r2,[r0,#0x18]
        0x08002516:    430a        .C      ORRS     r2,r2,r1
        0x08002518:    8302        ..      STRH     r2,[r0,#0x18]
        0x0800251a:    4770        pG      BX       lr
    USART_SmartCardCmd
        0x0800251c:    2900        .)      CMP      r1,#0
        0x0800251e:    8a81        ..      LDRH     r1,[r0,#0x14]
        0x08002520:    d002        ..      BEQ      0x8002528 ; USART_SmartCardCmd + 12
        0x08002522:    f0410120    A. .    ORR      r1,r1,#0x20
        0x08002526:    e001        ..      B        0x800252c ; USART_SmartCardCmd + 16
        0x08002528:    f0210120    !. .    BIC      r1,r1,#0x20
        0x0800252c:    8281        ..      STRH     r1,[r0,#0x14]
        0x0800252e:    4770        pG      BX       lr
    USART_SmartCardNACKCmd
        0x08002530:    2900        .)      CMP      r1,#0
        0x08002532:    8a81        ..      LDRH     r1,[r0,#0x14]
        0x08002534:    d002        ..      BEQ      0x800253c ; USART_SmartCardNACKCmd + 12
        0x08002536:    f0410110    A...    ORR      r1,r1,#0x10
        0x0800253a:    e001        ..      B        0x8002540 ; USART_SmartCardNACKCmd + 16
        0x0800253c:    f0210110    !...    BIC      r1,r1,#0x10
        0x08002540:    8281        ..      STRH     r1,[r0,#0x14]
        0x08002542:    4770        pG      BX       lr
    USART_HalfDuplexCmd
        0x08002544:    2900        .)      CMP      r1,#0
        0x08002546:    8a81        ..      LDRH     r1,[r0,#0x14]
        0x08002548:    d002        ..      BEQ      0x8002550 ; USART_HalfDuplexCmd + 12
        0x0800254a:    f0410108    A...    ORR      r1,r1,#8
        0x0800254e:    e001        ..      B        0x8002554 ; USART_HalfDuplexCmd + 16
        0x08002550:    f0210108    !...    BIC      r1,r1,#8
        0x08002554:    8281        ..      STRH     r1,[r0,#0x14]
        0x08002556:    4770        pG      BX       lr
    USART_OverSampling8Cmd
        0x08002558:    2900        .)      CMP      r1,#0
        0x0800255a:    8981        ..      LDRH     r1,[r0,#0xc]
        0x0800255c:    d002        ..      BEQ      0x8002564 ; USART_OverSampling8Cmd + 12
        0x0800255e:    f4414100    A..A    ORR      r1,r1,#0x8000
        0x08002562:    e001        ..      B        0x8002568 ; USART_OverSampling8Cmd + 16
        0x08002564:    f3c1010e    ....    UBFX     r1,r1,#0,#15
        0x08002568:    8181        ..      STRH     r1,[r0,#0xc]
        0x0800256a:    4770        pG      BX       lr
    USART_OneBitMethodCmd
        0x0800256c:    2900        .)      CMP      r1,#0
        0x0800256e:    8a81        ..      LDRH     r1,[r0,#0x14]
        0x08002570:    d002        ..      BEQ      0x8002578 ; USART_OneBitMethodCmd + 12
        0x08002572:    f4416100    A..a    ORR      r1,r1,#0x800
        0x08002576:    e001        ..      B        0x800257c ; USART_OneBitMethodCmd + 16
        0x08002578:    f4216100    !..a    BIC      r1,r1,#0x800
        0x0800257c:    8281        ..      STRH     r1,[r0,#0x14]
        0x0800257e:    4770        pG      BX       lr
    USART_IrDAConfig
        0x08002580:    8a82        ..      LDRH     r2,[r0,#0x14]
        0x08002582:    f0220204    "...    BIC      r2,r2,#4
        0x08002586:    8282        ..      STRH     r2,[r0,#0x14]
        0x08002588:    8a82        ..      LDRH     r2,[r0,#0x14]
        0x0800258a:    430a        .C      ORRS     r2,r2,r1
        0x0800258c:    8282        ..      STRH     r2,[r0,#0x14]
        0x0800258e:    4770        pG      BX       lr
    USART_IrDACmd
        0x08002590:    2900        .)      CMP      r1,#0
        0x08002592:    8a81        ..      LDRH     r1,[r0,#0x14]
        0x08002594:    d002        ..      BEQ      0x800259c ; USART_IrDACmd + 12
        0x08002596:    f0410102    A...    ORR      r1,r1,#2
        0x0800259a:    e001        ..      B        0x80025a0 ; USART_IrDACmd + 16
        0x0800259c:    f0210102    !...    BIC      r1,r1,#2
        0x080025a0:    8281        ..      STRH     r1,[r0,#0x14]
        0x080025a2:    4770        pG      BX       lr
    USART_GetFlagStatus
        0x080025a4:    4602        .F      MOV      r2,r0
        0x080025a6:    2000        .       MOVS     r0,#0
        0x080025a8:    8812        ..      LDRH     r2,[r2,#0]
        0x080025aa:    420a        .B      TST      r2,r1
        0x080025ac:    d000        ..      BEQ      0x80025b0 ; USART_GetFlagStatus + 12
        0x080025ae:    2001        .       MOVS     r0,#1
        0x080025b0:    4770        pG      BX       lr
    USART_ClearFlag
        0x080025b2:    43c9        .C      MVNS     r1,r1
        0x080025b4:    8001        ..      STRH     r1,[r0,#0]
        0x080025b6:    4770        pG      BX       lr
    USART_GetITStatus
        0x080025b8:    b570        p.      PUSH     {r4-r6,lr}
        0x080025ba:    f001051f    ....    AND      r5,r1,#0x1f
        0x080025be:    2601        .&      MOVS     r6,#1
        0x080025c0:    2400        .$      MOVS     r4,#0
        0x080025c2:    f3c11342    ..B.    UBFX     r3,r1,#5,#3
        0x080025c6:    fa06f205    ....    LSL      r2,r6,r5
        0x080025ca:    2b01        .+      CMP      r3,#1
        0x080025cc:    d00f        ..      BEQ      0x80025ee ; USART_GetITStatus + 54
        0x080025ce:    2b02        .+      CMP      r3,#2
        0x080025d0:    d00f        ..      BEQ      0x80025f2 ; USART_GetITStatus + 58
        0x080025d2:    8a83        ..      LDRH     r3,[r0,#0x14]
        0x080025d4:    ea4f2111    O..!    LSR      r1,r1,#8
        0x080025d8:    8800        ..      LDRH     r0,[r0,#0]
        0x080025da:    4213        .B      TST      r3,r2
        0x080025dc:    fa06f601    ....    LSL      r6,r6,r1
        0x080025e0:    ea000006    ....    AND      r0,r0,r6
        0x080025e4:    d001        ..      BEQ      0x80025ea ; USART_GetITStatus + 50
        0x080025e6:    b100        ..      CBZ      r0,0x80025ea ; USART_GetITStatus + 50
        0x080025e8:    2401        .$      MOVS     r4,#1
        0x080025ea:    4620         F      MOV      r0,r4
        0x080025ec:    bd70        p.      POP      {r4-r6,pc}
        0x080025ee:    8983        ..      LDRH     r3,[r0,#0xc]
        0x080025f0:    e7f0        ..      B        0x80025d4 ; USART_GetITStatus + 28
        0x080025f2:    8a03        ..      LDRH     r3,[r0,#0x10]
        0x080025f4:    e7ee        ..      B        0x80025d4 ; USART_GetITStatus + 28
    USART_ClearITPendingBit
        0x080025f6:    0a0a        ..      LSRS     r2,r1,#8
        0x080025f8:    2101        .!      MOVS     r1,#1
        0x080025fa:    4091        .@      LSLS     r1,r1,r2
        0x080025fc:    43c9        .C      MVNS     r1,r1
        0x080025fe:    8001        ..      STRH     r1,[r0,#0]
        0x08002600:    4770        pG      BX       lr
    $d
        0x08002602:    0000        ..      DCW    0
        0x08002604:    40013800    .8.@    DCD    1073821696
        0x08002608:    40004400    .D.@    DCD    1073759232
        0x0800260c:    40004800    .H.@    DCD    1073760256
        0x08002610:    40004c00    .L.@    DCD    1073761280
        0x08002614:    40005000    .P.@    DCD    1073762304
    $t
    .text
    __aeabi_memset
    __aeabi_memset4
    __aeabi_memset8
        0x08002618:    b2d2        ..      UXTB     r2,r2
        0x0800261a:    e001        ..      B        0x8002620 ; __aeabi_memset + 8
        0x0800261c:    f8002b01    ...+    STRB     r2,[r0],#1
        0x08002620:    1e49        I.      SUBS     r1,r1,#1
        0x08002622:    d2fb        ..      BCS      0x800261c ; __aeabi_memset + 4
        0x08002624:    4770        pG      BX       lr
    __aeabi_memclr
    __aeabi_memclr4
    __aeabi_memclr8
        0x08002626:    2200        ."      MOVS     r2,#0
        0x08002628:    e7f6        ..      B        __aeabi_memset ; 0x8002618
    _memset$wrapper
        0x0800262a:    b510        ..      PUSH     {r4,lr}
        0x0800262c:    4613        .F      MOV      r3,r2
        0x0800262e:    460a        .F      MOV      r2,r1
        0x08002630:    4604        .F      MOV      r4,r0
        0x08002632:    4619        .F      MOV      r1,r3
        0x08002634:    f7fffff0    ....    BL       __aeabi_memset ; 0x8002618
        0x08002638:    4620         F      MOV      r0,r4
        0x0800263a:    bd10        ..      POP      {r4,pc}
    .text
    __scatterload
    __scatterload_rt2
        0x0800263c:    4c06        .L      LDR      r4,[pc,#24] ; [0x8002658] = 0x800c1a4
        0x0800263e:    4d07        .M      LDR      r5,[pc,#28] ; [0x800265c] = 0x800c1c4
        0x08002640:    e006        ..      B        0x8002650 ; __scatterload + 20
        0x08002642:    68e0        .h      LDR      r0,[r4,#0xc]
        0x08002644:    f0400301    @...    ORR      r3,r0,#1
        0x08002648:    e8940007    ....    LDM      r4,{r0-r2}
        0x0800264c:    4798        .G      BLX      r3
        0x0800264e:    3410        .4      ADDS     r4,r4,#0x10
        0x08002650:    42ac        .B      CMP      r4,r5
        0x08002652:    d3f6        ..      BCC      0x8002642 ; __scatterload + 6
        0x08002654:    f7fdfd4e    ..N.    BL       __main_after_scatterload ; 0x80000f4
    $d
        0x08002658:    0800c1a4    ....    DCD    134267300
        0x0800265c:    0800c1c4    ....    DCD    134267332
    $t
    i.__scatterload_copy
    __scatterload_copy
        0x08002660:    e002        ..      B        0x8002668 ; __scatterload_copy + 8
        0x08002662:    c808        ..      LDM      r0!,{r3}
        0x08002664:    1f12        ..      SUBS     r2,r2,#4
        0x08002666:    c108        ..      STM      r1!,{r3}
        0x08002668:    2a00        .*      CMP      r2,#0
        0x0800266a:    d1fa        ..      BNE      0x8002662 ; __scatterload_copy + 2
        0x0800266c:    4770        pG      BX       lr
    i.__scatterload_null
    __scatterload_null
        0x0800266e:    4770        pG      BX       lr
    i.__scatterload_zeroinit
    __scatterload_zeroinit
        0x08002670:    2000        .       MOVS     r0,#0
        0x08002672:    e001        ..      B        0x8002678 ; __scatterload_zeroinit + 8
        0x08002674:    c101        ..      STM      r1!,{r0}
        0x08002676:    1f12        ..      SUBS     r2,r2,#4
        0x08002678:    2a00        .*      CMP      r2,#0
        0x0800267a:    d1fb        ..      BNE      0x8002674 ; __scatterload_zeroinit + 4
        0x0800267c:    4770        pG      BX       lr
        0x0800267e:    0000        ..      MOVS     r0,r0
    $d.realdata
    .constdata
        0x08002680:    18010004    ....    DCD    402718724
        0x08002684:    04010008    ....    DCD    67174408
    STM32F1_demo_code
        0x08002688:    20001008    ...     DCD    536875016
        0x0800268c:    08000271    q...    DCD    134218353
        0x08002690:    0800002d    -...    DCD    134217773
        0x08002694:    08000031    1...    DCD    134217777
        0x08002698:    0200f04f    O...    DCD    33615951
        0x0800269c:    70fff64f    O..p    DCD    1895822927
        0x080026a0:    f2c04601    .F..    DCD    4072687105
        0x080026a4:    bf000103    ....    DCD    3204448515
        0x080026a8:    0201f102    ....    DCD    33681666
        0x080026ac:    d1fa428a    .B..    DCD    3522839178
        0x080026b0:    bf004770    pG..    DCD    3204466544
        0x080026b4:    bf004770    pG..    DCD    3204466544
        0x080026b8:    bf004770    pG..    DCD    3204466544
        0x080026bc:    bf004770    pG..    DCD    3204466544
        0x080026c0:    4605b470    p..F    DCD    1174778992
        0x080026c4:    b911460c    .F..    DCD    3104917004
        0x080026c8:    0000f04f    O...    DCD    61519
        0x080026cc:    f04fe019    ..O.    DCD    4031766553
        0x080026d0:    46010000    ...F    DCD    1174470656
        0x080026d4:    0608f04f    O...    DCD    101249103
        0x080026d8:    4c08f248    H..L    DCD    1275654728
        0x080026dc:    ea805c6b    k\..    DCD    3934280811
        0x080026e0:    46320003    ..2F    DCD    1177681923
        0x080026e4:    ea4f4603    .FO.    DCD    3931063811
        0x080026e8:    f0130050    P...    DCD    4027777104
        0x080026ec:    bf180f01    ....    DCD    3206024961
        0x080026f0:    000cea80    ....    DCD    846464
        0x080026f4:    32fff112    ...2    DCD    855634194
        0x080026f8:    f101d1f4    ....    DCD    4043428340
        0x080026fc:    428c0101    ...B    DCD    1116471553
        0x08002700:    b280d1ec    ....    DCD    2994786796
        0x08002704:    4770bc70    p.pG    DCD    1198570608
        0x08002708:    0304f242    B...    DCD    50655810
        0x0800270c:    0302f2c4    ....    DCD    50524868
        0x08002710:    1223f240    @.#.    DCD    304345664
        0x08002714:    5267f2c4    ..gR    DCD    1382544068
        0x08002718:    f648601a    .`H.    DCD    4131938330
        0x0800271c:    f6cc12ab    ....    DCD    4140569259
        0x08002720:    601a52ef    .R.`    DCD    1612337903
        0x08002724:    bf004770    pG..    DCD    3204466544
        0x08002728:    010cf242    B...    DCD    17625666
        0x0800272c:    f2c4460a    .F..    DCD    4072949258
        0x08002730:    68130202    ...h    DCD    1746076162
        0x08002734:    0f01f013    ....    DCD    251785235
        0x08002738:    f242d1fb    ..B.    DCD    4064465403
        0x0800273c:    f2c4030c    ....    DCD    4072932108
        0x08002740:    f04f0302    ..O.    DCD    4031709954
        0x08002744:    601a0235    5..`    DCD    1612317237
        0x08002748:    bf004770    pG..    DCD    3204466544
        0x0800274c:    f242b510    ..B.    DCD    4064458000
        0x08002750:    f2c40410    ....    DCD    4072932368
        0x08002754:    68230402    ..#h    DCD    1747125250
        0x08002758:    0302f043    C...    DCD    50524227
        0x0800275c:    f2426023    #`B.    DCD    4064436259
        0x08002760:    f2c40314    ....    DCD    4072932116
        0x08002764:    60180302    ...`    DCD    1612186370
        0x08002768:    f0436823    #hC.    DCD    4030949411
        0x0800276c:    60230340    @.#`    DCD    1612907328
        0x08002770:    ffdaf7ff    ....    DCD    4292540415
        0x08002774:    f0236823    #h#.    DCD    4028852259
        0x08002778:    60230302    ..#`    DCD    1612907266
        0x0800277c:    bf00bd10    ....    DCD    3204496656
        0x08002780:    47f0e92d    -..G    DCD    1206970669
        0x08002784:    0400f244    D...    DCD    67170884
        0x08002788:    0400f6c0    ....    DCD    67172032
        0x0800278c:    0600f04f    O...    DCD    100724815
        0x08002790:    4300f649    I..C    DCD    1124136521
        0x08002794:    f6c0461d    .F..    DCD    4139795997
        0x08002798:    e04a0500    ..J.    DCD    3762947328
        0x0800279c:    f1b35913    .Y..    DCD    4055062803
        0x080027a0:    d0033fff    .?..    DCD    3489873919
        0x080027a4:    f7ff4620     F..    DCD    4160701984
        0x080027a8:    e004ffd1    ....    DCD    3758424017
        0x080027ac:    0204f102    ....    DCD    33878274
        0x080027b0:    6f80f5b2    ...o    DCD    1870722482
        0x080027b4:    f504d1f2    ....    DCD    4110733810
        0x080027b8:    42ac6480    .d.B    DCD    1118594176
        0x080027bc:    f244d139    9.D.    DCD    4064596281
        0x080027c0:    f6c00600    ....    DCD    4139779584
        0x080027c4:    f2420600    ..B.    DCD    4064413184
        0x080027c8:    f2c40308    ....    DCD    4072932104
        0x080027cc:    46990302    ...F    DCD    1184432898
        0x080027d0:    0304f242    B...    DCD    50655810
        0x080027d4:    0302f2c4    ....    DCD    50524868
        0x080027d8:    f2424698    .FB.    DCD    4064429720
        0x080027dc:    461f0310    ...F    DCD    1176437520
        0x080027e0:    0702f2c4    ....    DCD    117633732
        0x080027e4:    33fcf649    I..3    DCD    872216137
        0x080027e8:    0300f6c0    ....    DCD    50394816
        0x080027ec:    f506469a    .F..    DCD    4110829210
        0x080027f0:    681d43b8    .C.h    DCD    1746748344
        0x080027f4:    bf08454d    ME..    DCD    3204990285
        0x080027f8:    f7ff4645    EF..    DCD    4160702021
        0x080027fc:    683bff95    ..;h    DCD    1748762517
        0x08002800:    0301f043    C...    DCD    50458691
        0x08002804:    bf00603b    ;`..    DCD    3204472891
        0x08002808:    4634b2ab    ..4F    DCD    1177858731
        0x0800280c:    3b02f824    $..;    DCD    990050340
        0x08002810:    ff8af7ff    ....    DCD    4287297535
        0x08002814:    4515ea4f    O..E    DCD    1159064143
        0x08002818:    f7ff8025    %...    DCD    4160716837
        0x0800281c:    683bff85    ..;h    DCD    1748762501
        0x08002820:    0301f023    #...    DCD    50458659
        0x08002824:    6833603b    ;`3h    DCD    1748197435
        0x08002828:    d0044556    VE..    DCD    3489940822
        0x0800282c:    0604f106    ....    DCD    100987142
        0x08002830:    4632e7dd    ..2F    DCD    1177741277
        0x08002834:    e8bde7b2    ....    DCD    3904759730
        0x08002838:    bf0087f0    ....    DCD    3204483056
        0x0800283c:    f649b510    ..I.    DCD    4132025616
        0x08002840:    f6c04000    .@..    DCD    4139794432
        0x08002844:    f7ff0000    ....    DCD    4160684032
        0x08002848:    bd10ff81    ....    DCD    3172007809
        0x0800284c:    f04fb510    ..O.    DCD    4031755536
        0x08002850:    f64931ff    .1I.    DCD    4131992063
        0x08002854:    f6c04204    .B..    DCD    4139794948
        0x08002858:    f6490200    ..I.    DCD    4131979776
        0x0800285c:    46184384    .C.F    DCD    1175995268
        0x08002860:    0000f6c0    ....    DCD    63168
        0x08002864:    3c04f852    R..<    DCD    1006958674
        0x08002868:    0103ea01    ....    DCD    17033729
        0x0800286c:    0204f102    ....    DCD    33878274
        0x08002870:    d1f74282    .B..    DCD    3522642562
        0x08002874:    3ffff1b1    ...?    DCD    1073738161
        0x08002878:    2000bf08    ...     DCD    536919816
        0x0800287c:    f649d010    ..I.    DCD    4132032528
        0x08002880:    f6c04000    .@..    DCD    4139794432
        0x08002884:    f6450000    ..E.    DCD    4131717120
        0x08002888:    f7ff31fe    .1..    DCD    4160696830
        0x0800288c:    f24fff19    ..O.    DCD    4065328921
        0x08002890:    f6c073fe    .s..    DCD    4139807742
        0x08002894:    881b0300    ....    DCD    2283471616
        0x08002898:    bf144298    .B..    DCD    3205776024
        0x0800289c:    20012000    . .     DCD    536944640
        0x080028a0:    bf00bd10    ....    DCD    3204496656
        0x080028a4:    f7ffb510    ....    DCD    4160730384
        0x080028a8:    b128ffd1    ..(.    DCD    2972254161
        0x080028ac:    ff2cf7ff    ..,.    DCD    4281137151
        0x080028b0:    ff66f7ff    ..f.    DCD    4284938239
        0x080028b4:    ffc2f7ff    ....    DCD    4290967551
        0x080028b8:    0210f242    B...    DCD    34665026
        0x080028bc:    0202f2c4    ....    DCD    33747652
        0x080028c0:    f0436813    .hC.    DCD    4030949395
        0x080028c4:    60130380    ...`    DCD    1611858816
        0x080028c8:    5208f64e    N..R    DCD    1376319054
        0x080028cc:    0200f2ce    ....    DCD    33616590
        0x080028d0:    0300f244    D...    DCD    50393668
        0x080028d4:    0300f6c0    ....    DCD    50394816
        0x080028d8:    f3bf6013    .`..    DCD    4089405459
        0x080028dc:    f2448f6f    o.D.    DCD    4064579439
        0x080028e0:    f6c00300    ....    DCD    4139778816
        0x080028e4:    681e0300    ...h    DCD    1746797312
        0x080028e8:    8808f386    ....    DCD    2282288006
        0x080028ec:    4730685e    ^h0G    DCD    1194354782
        0x080028f0:    0000f04f    O...    DCD    61519
        0x080028f4:    bf00bd10    ....    DCD    3204496656
        0x080028f8:    f240b510    ..@.    DCD    4064326928
        0x080028fc:    f2c20200    ....    DCD    4072800768
        0x08002900:    f2400200    ..@.    DCD    4064281088
        0x08002904:    f2c20304    ....    DCD    4072801028
        0x08002908:    429a0300    ...B    DCD    1117389568
        0x0800290c:    f04fd213    ..O.    DCD    4031762963
        0x08002910:    f2400200    ..@.    DCD    4064281088
        0x08002914:    f2c20100    ....    DCD    4072800512
        0x08002918:    f2400100    ..@.    DCD    4064280832
        0x0800291c:    f6c03e14    .>..    DCD    4139793940
        0x08002920:    46180e00    ...F    DCD    1175981568
        0x08002924:    3002f85e    ^..0    DCD    805501022
        0x08002928:    f102508b    .P..    DCD    4043460747
        0x0800292c:    eb010204    ....    DCD    3942711812
        0x08002930:    42830302    ...B    DCD    1115882242
        0x08002934:    f240d3f6    ..@.    DCD    4064334838
        0x08002938:    f2c20204    ....    DCD    4072800772
        0x0800293c:    f2400200    ..@.    DCD    4064281088
        0x08002940:    f2c20304    ....    DCD    4072801028
        0x08002944:    429a0300    ...B    DCD    1117389568
        0x08002948:    4613d20a    ...F    DCD    1175704074
        0x0800294c:    0100f04f    O...    DCD    16838735
        0x08002950:    0204f240    @...    DCD    33878592
        0x08002954:    0200f2c2    ....    DCD    33616578
        0x08002958:    1b04f843    C...    DCD    453310531
        0x0800295c:    d3fb4293    .B..    DCD    3556459155
        0x08002960:    ffa0f7ff    ....    DCD    4288739327
        0x08002964:    bf00bd10    ....    DCD    3204496656
        0x08002968:    3a644924    $Id:    DCD    979650852
        0x0800296c:    6d747320     stm    DCD    1836348192
        0x08002970:    6f623233    32bo    DCD    1868706355
        0x08002974:    632e746f    ot.c    DCD    1663988847
        0x08002978:    20313220     21     DCD    540095008
        0x0800297c:    39303032    2009    DCD    959459378
        0x08002980:    2d30312d    -10-    DCD    758133037
        0x08002984:    31203431    14 1    DCD    824194097
        0x08002988:    38333a32    2:38    DCD    942881330
        0x0800298c:    5a32313a    :12Z    DCD    1513238842
        0x08002990:    6e696d20     min    DCD    1852402976
        0x08002994:    24207875    ux $    DCD    606107765
        0x08002998:    00000000    ....    DCD    0
        0x0800299c:    080002e0    ....    DCD    134218464
        0x080029a0:    ffffffff    ....    DCD    4294967295
        0x080029a4:    ffffffff    ....    DCD    4294967295
        0x080029a8:    ffffffff    ....    DCD    4294967295
        0x080029ac:    ffffffff    ....    DCD    4294967295
        0x080029b0:    ffffffff    ....    DCD    4294967295
        0x080029b4:    ffffffff    ....    DCD    4294967295
        0x080029b8:    ffffffff    ....    DCD    4294967295
        0x080029bc:    ffffffff    ....    DCD    4294967295
        0x080029c0:    ffffffff    ....    DCD    4294967295
        0x080029c4:    ffffffff    ....    DCD    4294967295
        0x080029c8:    ffffffff    ....    DCD    4294967295
        0x080029cc:    ffffffff    ....    DCD    4294967295
        0x080029d0:    ffffffff    ....    DCD    4294967295
        0x080029d4:    ffffffff    ....    DCD    4294967295
        0x080029d8:    ffffffff    ....    DCD    4294967295
        0x080029dc:    ffffffff    ....    DCD    4294967295
        0x080029e0:    ffffffff    ....    DCD    4294967295
        0x080029e4:    ffffffff    ....    DCD    4294967295
        0x080029e8:    ffffffff    ....    DCD    4294967295
        0x080029ec:    ffffffff    ....    DCD    4294967295
        0x080029f0:    ffffffff    ....    DCD    4294967295
        0x080029f4:    ffffffff    ....    DCD    4294967295
        0x080029f8:    ffffffff    ....    DCD    4294967295
        0x080029fc:    ffffffff    ....    DCD    4294967295
        0x08002a00:    ffffffff    ....    DCD    4294967295
        0x08002a04:    ffffffff    ....    DCD    4294967295
        0x08002a08:    ffffffff    ....    DCD    4294967295
        0x08002a0c:    ffffffff    ....    DCD    4294967295
        0x08002a10:    ffffffff    ....    DCD    4294967295
        0x08002a14:    ffffffff    ....    DCD    4294967295
        0x08002a18:    ffffffff    ....    DCD    4294967295
        0x08002a1c:    ffffffff    ....    DCD    4294967295
        0x08002a20:    ffffffff    ....    DCD    4294967295
        0x08002a24:    ffffffff    ....    DCD    4294967295
        0x08002a28:    ffffffff    ....    DCD    4294967295
        0x08002a2c:    ffffffff    ....    DCD    4294967295
        0x08002a30:    ffffffff    ....    DCD    4294967295
        0x08002a34:    ffffffff    ....    DCD    4294967295
        0x08002a38:    ffffffff    ....    DCD    4294967295
        0x08002a3c:    ffffffff    ....    DCD    4294967295
        0x08002a40:    ffffffff    ....    DCD    4294967295
        0x08002a44:    ffffffff    ....    DCD    4294967295
        0x08002a48:    ffffffff    ....    DCD    4294967295
        0x08002a4c:    ffffffff    ....    DCD    4294967295
        0x08002a50:    ffffffff    ....    DCD    4294967295
        0x08002a54:    ffffffff    ....    DCD    4294967295
        0x08002a58:    ffffffff    ....    DCD    4294967295
        0x08002a5c:    ffffffff    ....    DCD    4294967295
        0x08002a60:    ffffffff    ....    DCD    4294967295
        0x08002a64:    ffffffff    ....    DCD    4294967295
        0x08002a68:    ffffffff    ....    DCD    4294967295
        0x08002a6c:    ffffffff    ....    DCD    4294967295
        0x08002a70:    ffffffff    ....    DCD    4294967295
        0x08002a74:    ffffffff    ....    DCD    4294967295
        0x08002a78:    ffffffff    ....    DCD    4294967295
        0x08002a7c:    ffffffff    ....    DCD    4294967295
        0x08002a80:    ffffffff    ....    DCD    4294967295
        0x08002a84:    ffffffff    ....    DCD    4294967295
        0x08002a88:    00000000    ....    DCD    0
        0x08002a8c:    00000000    ....    DCD    0
        0x08002a90:    00000000    ....    DCD    0
        0x08002a94:    00000000    ....    DCD    0
        0x08002a98:    00000000    ....    DCD    0
        0x08002a9c:    00000000    ....    DCD    0
        0x08002aa0:    00000000    ....    DCD    0
        0x08002aa4:    00000000    ....    DCD    0
        0x08002aa8:    00000000    ....    DCD    0
        0x08002aac:    00000000    ....    DCD    0
        0x08002ab0:    00000000    ....    DCD    0
        0x08002ab4:    00000000    ....    DCD    0
        0x08002ab8:    00000000    ....    DCD    0
        0x08002abc:    00000000    ....    DCD    0
        0x08002ac0:    00000000    ....    DCD    0
        0x08002ac4:    00000000    ....    DCD    0
        0x08002ac8:    00000000    ....    DCD    0
        0x08002acc:    00000000    ....    DCD    0
        0x08002ad0:    00000000    ....    DCD    0
        0x08002ad4:    00000000    ....    DCD    0
        0x08002ad8:    00000000    ....    DCD    0
        0x08002adc:    00000000    ....    DCD    0
        0x08002ae0:    00000000    ....    DCD    0
        0x08002ae4:    00000000    ....    DCD    0
        0x08002ae8:    00000000    ....    DCD    0
        0x08002aec:    00000000    ....    DCD    0
        0x08002af0:    00000000    ....    DCD    0
        0x08002af4:    00000000    ....    DCD    0
        0x08002af8:    00000000    ....    DCD    0
        0x08002afc:    00000000    ....    DCD    0
        0x08002b00:    00000000    ....    DCD    0
        0x08002b04:    00000000    ....    DCD    0
        0x08002b08:    00000000    ....    DCD    0
        0x08002b0c:    00000000    ....    DCD    0
        0x08002b10:    00000000    ....    DCD    0
        0x08002b14:    00000000    ....    DCD    0
        0x08002b18:    00000000    ....    DCD    0
        0x08002b1c:    00000000    ....    DCD    0
        0x08002b20:    00000000    ....    DCD    0
        0x08002b24:    00000000    ....    DCD    0
        0x08002b28:    00000000    ....    DCD    0
        0x08002b2c:    00000000    ....    DCD    0
        0x08002b30:    00000000    ....    DCD    0
        0x08002b34:    00000000    ....    DCD    0
        0x08002b38:    00000000    ....    DCD    0
        0x08002b3c:    00000000    ....    DCD    0
        0x08002b40:    00000000    ....    DCD    0
        0x08002b44:    00000000    ....    DCD    0
        0x08002b48:    00000000    ....    DCD    0
        0x08002b4c:    00000000    ....    DCD    0
        0x08002b50:    00000000    ....    DCD    0
        0x08002b54:    00000000    ....    DCD    0
        0x08002b58:    00000000    ....    DCD    0
        0x08002b5c:    00000000    ....    DCD    0
        0x08002b60:    00000000    ....    DCD    0
        0x08002b64:    00000000    ....    DCD    0
        0x08002b68:    00000000    ....    DCD    0
        0x08002b6c:    00000000    ....    DCD    0
        0x08002b70:    00000000    ....    DCD    0
        0x08002b74:    00000000    ....    DCD    0
        0x08002b78:    00000000    ....    DCD    0
        0x08002b7c:    00000000    ....    DCD    0
        0x08002b80:    00000000    ....    DCD    0
        0x08002b84:    00000000    ....    DCD    0
        0x08002b88:    00000000    ....    DCD    0
        0x08002b8c:    00000000    ....    DCD    0
        0x08002b90:    00000000    ....    DCD    0
        0x08002b94:    00000000    ....    DCD    0
        0x08002b98:    00000000    ....    DCD    0
        0x08002b9c:    00000000    ....    DCD    0
        0x08002ba0:    00000000    ....    DCD    0
        0x08002ba4:    00000000    ....    DCD    0
        0x08002ba8:    00000000    ....    DCD    0
        0x08002bac:    00000000    ....    DCD    0
        0x08002bb0:    00000000    ....    DCD    0
        0x08002bb4:    00000000    ....    DCD    0
        0x08002bb8:    00000000    ....    DCD    0
        0x08002bbc:    00000000    ....    DCD    0
        0x08002bc0:    00000000    ....    DCD    0
        0x08002bc4:    00000000    ....    DCD    0
        0x08002bc8:    00000000    ....    DCD    0
        0x08002bcc:    00000000    ....    DCD    0
        0x08002bd0:    00000000    ....    DCD    0
        0x08002bd4:    00000000    ....    DCD    0
        0x08002bd8:    00000000    ....    DCD    0
        0x08002bdc:    00000000    ....    DCD    0
        0x08002be0:    00000000    ....    DCD    0
        0x08002be4:    00000000    ....    DCD    0
        0x08002be8:    00000000    ....    DCD    0
        0x08002bec:    00000000    ....    DCD    0
        0x08002bf0:    00000000    ....    DCD    0
        0x08002bf4:    00000000    ....    DCD    0
        0x08002bf8:    00000000    ....    DCD    0
        0x08002bfc:    00000000    ....    DCD    0
        0x08002c00:    00000000    ....    DCD    0
        0x08002c04:    00000000    ....    DCD    0
        0x08002c08:    00000000    ....    DCD    0
        0x08002c0c:    00000000    ....    DCD    0
        0x08002c10:    00000000    ....    DCD    0
        0x08002c14:    00000000    ....    DCD    0
        0x08002c18:    00000000    ....    DCD    0
        0x08002c1c:    00000000    ....    DCD    0
        0x08002c20:    00000000    ....    DCD    0
        0x08002c24:    00000000    ....    DCD    0
        0x08002c28:    00000000    ....    DCD    0
        0x08002c2c:    00000000    ....    DCD    0
        0x08002c30:    00000000    ....    DCD    0
        0x08002c34:    00000000    ....    DCD    0
        0x08002c38:    00000000    ....    DCD    0
        0x08002c3c:    00000000    ....    DCD    0
        0x08002c40:    00000000    ....    DCD    0
        0x08002c44:    00000000    ....    DCD    0
        0x08002c48:    00000000    ....    DCD    0
        0x08002c4c:    00000000    ....    DCD    0
        0x08002c50:    00000000    ....    DCD    0
        0x08002c54:    00000000    ....    DCD    0
        0x08002c58:    00000000    ....    DCD    0
        0x08002c5c:    00000000    ....    DCD    0
        0x08002c60:    00000000    ....    DCD    0
        0x08002c64:    00000000    ....    DCD    0
        0x08002c68:    00000000    ....    DCD    0
        0x08002c6c:    00000000    ....    DCD    0
        0x08002c70:    00000000    ....    DCD    0
        0x08002c74:    00000000    ....    DCD    0
        0x08002c78:    00000000    ....    DCD    0
        0x08002c7c:    00000000    ....    DCD    0
        0x08002c80:    00000000    ....    DCD    0
        0x08002c84:    00000000    ....    DCD    0
        0x08002c88:    00000000    ....    DCD    0
        0x08002c8c:    00000000    ....    DCD    0
        0x08002c90:    00000000    ....    DCD    0
        0x08002c94:    00000000    ....    DCD    0
        0x08002c98:    00000000    ....    DCD    0
        0x08002c9c:    00000000    ....    DCD    0
        0x08002ca0:    00000000    ....    DCD    0
        0x08002ca4:    00000000    ....    DCD    0
        0x08002ca8:    00000000    ....    DCD    0
        0x08002cac:    00000000    ....    DCD    0
        0x08002cb0:    00000000    ....    DCD    0
        0x08002cb4:    00000000    ....    DCD    0
        0x08002cb8:    00000000    ....    DCD    0
        0x08002cbc:    00000000    ....    DCD    0
        0x08002cc0:    00000000    ....    DCD    0
        0x08002cc4:    00000000    ....    DCD    0
        0x08002cc8:    00000000    ....    DCD    0
        0x08002ccc:    00000000    ....    DCD    0
        0x08002cd0:    00000000    ....    DCD    0
        0x08002cd4:    00000000    ....    DCD    0
        0x08002cd8:    00000000    ....    DCD    0
        0x08002cdc:    00000000    ....    DCD    0
        0x08002ce0:    00000000    ....    DCD    0
        0x08002ce4:    00000000    ....    DCD    0
        0x08002ce8:    00000000    ....    DCD    0
        0x08002cec:    00000000    ....    DCD    0
        0x08002cf0:    00000000    ....    DCD    0
        0x08002cf4:    00000000    ....    DCD    0
        0x08002cf8:    00000000    ....    DCD    0
        0x08002cfc:    00000000    ....    DCD    0
        0x08002d00:    00000000    ....    DCD    0
        0x08002d04:    00000000    ....    DCD    0
        0x08002d08:    00000000    ....    DCD    0
        0x08002d0c:    00000000    ....    DCD    0
        0x08002d10:    00000000    ....    DCD    0
        0x08002d14:    00000000    ....    DCD    0
        0x08002d18:    00000000    ....    DCD    0
        0x08002d1c:    00000000    ....    DCD    0
        0x08002d20:    00000000    ....    DCD    0
        0x08002d24:    00000000    ....    DCD    0
        0x08002d28:    00000000    ....    DCD    0
        0x08002d2c:    00000000    ....    DCD    0
        0x08002d30:    00000000    ....    DCD    0
        0x08002d34:    00000000    ....    DCD    0
        0x08002d38:    00000000    ....    DCD    0
        0x08002d3c:    00000000    ....    DCD    0
        0x08002d40:    00000000    ....    DCD    0
        0x08002d44:    00000000    ....    DCD    0
        0x08002d48:    00000000    ....    DCD    0
        0x08002d4c:    00000000    ....    DCD    0
        0x08002d50:    00000000    ....    DCD    0
        0x08002d54:    00000000    ....    DCD    0
        0x08002d58:    00000000    ....    DCD    0
        0x08002d5c:    00000000    ....    DCD    0
        0x08002d60:    00000000    ....    DCD    0
        0x08002d64:    00000000    ....    DCD    0
        0x08002d68:    00000000    ....    DCD    0
        0x08002d6c:    00000000    ....    DCD    0
        0x08002d70:    00000000    ....    DCD    0
        0x08002d74:    00000000    ....    DCD    0
        0x08002d78:    00000000    ....    DCD    0
        0x08002d7c:    00000000    ....    DCD    0
        0x08002d80:    00000000    ....    DCD    0
        0x08002d84:    00000000    ....    DCD    0
        0x08002d88:    00000000    ....    DCD    0
        0x08002d8c:    00000000    ....    DCD    0
        0x08002d90:    00000000    ....    DCD    0
        0x08002d94:    00000000    ....    DCD    0
        0x08002d98:    00000000    ....    DCD    0
        0x08002d9c:    00000000    ....    DCD    0
        0x08002da0:    00000000    ....    DCD    0
        0x08002da4:    00000000    ....    DCD    0
        0x08002da8:    00000000    ....    DCD    0
        0x08002dac:    00000000    ....    DCD    0
        0x08002db0:    00000000    ....    DCD    0
        0x08002db4:    00000000    ....    DCD    0
        0x08002db8:    00000000    ....    DCD    0
        0x08002dbc:    00000000    ....    DCD    0
        0x08002dc0:    00000000    ....    DCD    0
        0x08002dc4:    00000000    ....    DCD    0
        0x08002dc8:    00000000    ....    DCD    0
        0x08002dcc:    00000000    ....    DCD    0
        0x08002dd0:    00000000    ....    DCD    0
        0x08002dd4:    00000000    ....    DCD    0
        0x08002dd8:    00000000    ....    DCD    0
        0x08002ddc:    00000000    ....    DCD    0
        0x08002de0:    00000000    ....    DCD    0
        0x08002de4:    00000000    ....    DCD    0
        0x08002de8:    00000000    ....    DCD    0
        0x08002dec:    00000000    ....    DCD    0
        0x08002df0:    00000000    ....    DCD    0
        0x08002df4:    00000000    ....    DCD    0
        0x08002df8:    00000000    ....    DCD    0
        0x08002dfc:    00000000    ....    DCD    0
        0x08002e00:    00000000    ....    DCD    0
        0x08002e04:    00000000    ....    DCD    0
        0x08002e08:    00000000    ....    DCD    0
        0x08002e0c:    00000000    ....    DCD    0
        0x08002e10:    00000000    ....    DCD    0
        0x08002e14:    00000000    ....    DCD    0
        0x08002e18:    00000000    ....    DCD    0
        0x08002e1c:    00000000    ....    DCD    0
        0x08002e20:    00000000    ....    DCD    0
        0x08002e24:    00000000    ....    DCD    0
        0x08002e28:    00000000    ....    DCD    0
        0x08002e2c:    00000000    ....    DCD    0
        0x08002e30:    00000000    ....    DCD    0
        0x08002e34:    00000000    ....    DCD    0
        0x08002e38:    00000000    ....    DCD    0
        0x08002e3c:    00000000    ....    DCD    0
        0x08002e40:    00000000    ....    DCD    0
        0x08002e44:    00000000    ....    DCD    0
        0x08002e48:    00000000    ....    DCD    0
        0x08002e4c:    00000000    ....    DCD    0
        0x08002e50:    00000000    ....    DCD    0
        0x08002e54:    00000000    ....    DCD    0
        0x08002e58:    00000000    ....    DCD    0
        0x08002e5c:    00000000    ....    DCD    0
        0x08002e60:    00000000    ....    DCD    0
        0x08002e64:    00000000    ....    DCD    0
        0x08002e68:    00000000    ....    DCD    0
        0x08002e6c:    00000000    ....    DCD    0
        0x08002e70:    00000000    ....    DCD    0
        0x08002e74:    00000000    ....    DCD    0
        0x08002e78:    00000000    ....    DCD    0
        0x08002e7c:    00000000    ....    DCD    0
        0x08002e80:    00000000    ....    DCD    0
        0x08002e84:    00000000    ....    DCD    0
        0x08002e88:    00000000    ....    DCD    0
        0x08002e8c:    00000000    ....    DCD    0
        0x08002e90:    00000000    ....    DCD    0
        0x08002e94:    00000000    ....    DCD    0
        0x08002e98:    00000000    ....    DCD    0
        0x08002e9c:    00000000    ....    DCD    0
        0x08002ea0:    00000000    ....    DCD    0
        0x08002ea4:    00000000    ....    DCD    0
        0x08002ea8:    00000000    ....    DCD    0
        0x08002eac:    00000000    ....    DCD    0
        0x08002eb0:    00000000    ....    DCD    0
        0x08002eb4:    00000000    ....    DCD    0
        0x08002eb8:    00000000    ....    DCD    0
        0x08002ebc:    00000000    ....    DCD    0
        0x08002ec0:    00000000    ....    DCD    0
        0x08002ec4:    00000000    ....    DCD    0
        0x08002ec8:    00000000    ....    DCD    0
        0x08002ecc:    00000000    ....    DCD    0
        0x08002ed0:    00000000    ....    DCD    0
        0x08002ed4:    00000000    ....    DCD    0
        0x08002ed8:    00000000    ....    DCD    0
        0x08002edc:    00000000    ....    DCD    0
        0x08002ee0:    00000000    ....    DCD    0
        0x08002ee4:    00000000    ....    DCD    0
        0x08002ee8:    00000000    ....    DCD    0
        0x08002eec:    00000000    ....    DCD    0
        0x08002ef0:    00000000    ....    DCD    0
        0x08002ef4:    00000000    ....    DCD    0
        0x08002ef8:    00000000    ....    DCD    0
        0x08002efc:    00000000    ....    DCD    0
        0x08002f00:    00000000    ....    DCD    0
        0x08002f04:    00000000    ....    DCD    0
        0x08002f08:    00000000    ....    DCD    0
        0x08002f0c:    00000000    ....    DCD    0
        0x08002f10:    00000000    ....    DCD    0
        0x08002f14:    00000000    ....    DCD    0
        0x08002f18:    00000000    ....    DCD    0
        0x08002f1c:    00000000    ....    DCD    0
        0x08002f20:    00000000    ....    DCD    0
        0x08002f24:    00000000    ....    DCD    0
        0x08002f28:    00000000    ....    DCD    0
        0x08002f2c:    00000000    ....    DCD    0
        0x08002f30:    00000000    ....    DCD    0
        0x08002f34:    00000000    ....    DCD    0
        0x08002f38:    00000000    ....    DCD    0
        0x08002f3c:    00000000    ....    DCD    0
        0x08002f40:    00000000    ....    DCD    0
        0x08002f44:    00000000    ....    DCD    0
        0x08002f48:    00000000    ....    DCD    0
        0x08002f4c:    00000000    ....    DCD    0
        0x08002f50:    00000000    ....    DCD    0
        0x08002f54:    00000000    ....    DCD    0
        0x08002f58:    00000000    ....    DCD    0
        0x08002f5c:    00000000    ....    DCD    0
        0x08002f60:    00000000    ....    DCD    0
        0x08002f64:    00000000    ....    DCD    0
        0x08002f68:    00000000    ....    DCD    0
        0x08002f6c:    00000000    ....    DCD    0
        0x08002f70:    00000000    ....    DCD    0
        0x08002f74:    00000000    ....    DCD    0
        0x08002f78:    00000000    ....    DCD    0
        0x08002f7c:    00000000    ....    DCD    0
        0x08002f80:    00000000    ....    DCD    0
        0x08002f84:    00000000    ....    DCD    0
        0x08002f88:    00000000    ....    DCD    0
        0x08002f8c:    00000000    ....    DCD    0
        0x08002f90:    00000000    ....    DCD    0
        0x08002f94:    00000000    ....    DCD    0
        0x08002f98:    00000000    ....    DCD    0
        0x08002f9c:    00000000    ....    DCD    0
        0x08002fa0:    00000000    ....    DCD    0
        0x08002fa4:    00000000    ....    DCD    0
        0x08002fa8:    00000000    ....    DCD    0
        0x08002fac:    00000000    ....    DCD    0
        0x08002fb0:    00000000    ....    DCD    0
        0x08002fb4:    00000000    ....    DCD    0
        0x08002fb8:    00000000    ....    DCD    0
        0x08002fbc:    00000000    ....    DCD    0
        0x08002fc0:    00000000    ....    DCD    0
        0x08002fc4:    00000000    ....    DCD    0
        0x08002fc8:    00000000    ....    DCD    0
        0x08002fcc:    00000000    ....    DCD    0
        0x08002fd0:    00000000    ....    DCD    0
        0x08002fd4:    00000000    ....    DCD    0
        0x08002fd8:    00000000    ....    DCD    0
        0x08002fdc:    00000000    ....    DCD    0
        0x08002fe0:    00000000    ....    DCD    0
        0x08002fe4:    00000000    ....    DCD    0
        0x08002fe8:    00000000    ....    DCD    0
        0x08002fec:    00000000    ....    DCD    0
        0x08002ff0:    00000000    ....    DCD    0
        0x08002ff4:    00000000    ....    DCD    0
        0x08002ff8:    00000000    ....    DCD    0
        0x08002ffc:    00000000    ....    DCD    0
        0x08003000:    00000000    ....    DCD    0
        0x08003004:    00000000    ....    DCD    0
        0x08003008:    00000000    ....    DCD    0
        0x0800300c:    00000000    ....    DCD    0
        0x08003010:    00000000    ....    DCD    0
        0x08003014:    00000000    ....    DCD    0
        0x08003018:    00000000    ....    DCD    0
        0x0800301c:    00000000    ....    DCD    0
        0x08003020:    00000000    ....    DCD    0
        0x08003024:    00000000    ....    DCD    0
        0x08003028:    00000000    ....    DCD    0
        0x0800302c:    00000000    ....    DCD    0
        0x08003030:    00000000    ....    DCD    0
        0x08003034:    00000000    ....    DCD    0
        0x08003038:    00000000    ....    DCD    0
        0x0800303c:    00000000    ....    DCD    0
        0x08003040:    00000000    ....    DCD    0
        0x08003044:    00000000    ....    DCD    0
        0x08003048:    00000000    ....    DCD    0
        0x0800304c:    00000000    ....    DCD    0
        0x08003050:    00000000    ....    DCD    0
        0x08003054:    00000000    ....    DCD    0
        0x08003058:    00000000    ....    DCD    0
        0x0800305c:    00000000    ....    DCD    0
        0x08003060:    00000000    ....    DCD    0
        0x08003064:    00000000    ....    DCD    0
        0x08003068:    00000000    ....    DCD    0
        0x0800306c:    00000000    ....    DCD    0
        0x08003070:    00000000    ....    DCD    0
        0x08003074:    00000000    ....    DCD    0
        0x08003078:    00000000    ....    DCD    0
        0x0800307c:    00000000    ....    DCD    0
        0x08003080:    00000000    ....    DCD    0
        0x08003084:    00000000    ....    DCD    0
        0x08003088:    00000000    ....    DCD    0
        0x0800308c:    00000000    ....    DCD    0
        0x08003090:    00000000    ....    DCD    0
        0x08003094:    00000000    ....    DCD    0
        0x08003098:    00000000    ....    DCD    0
        0x0800309c:    00000000    ....    DCD    0
        0x080030a0:    00000000    ....    DCD    0
        0x080030a4:    00000000    ....    DCD    0
        0x080030a8:    00000000    ....    DCD    0
        0x080030ac:    00000000    ....    DCD    0
        0x080030b0:    00000000    ....    DCD    0
        0x080030b4:    00000000    ....    DCD    0
        0x080030b8:    00000000    ....    DCD    0
        0x080030bc:    00000000    ....    DCD    0
        0x080030c0:    00000000    ....    DCD    0
        0x080030c4:    00000000    ....    DCD    0
        0x080030c8:    00000000    ....    DCD    0
        0x080030cc:    00000000    ....    DCD    0
        0x080030d0:    00000000    ....    DCD    0
        0x080030d4:    00000000    ....    DCD    0
        0x080030d8:    00000000    ....    DCD    0
        0x080030dc:    00000000    ....    DCD    0
        0x080030e0:    00000000    ....    DCD    0
        0x080030e4:    00000000    ....    DCD    0
        0x080030e8:    00000000    ....    DCD    0
        0x080030ec:    00000000    ....    DCD    0
        0x080030f0:    00000000    ....    DCD    0
        0x080030f4:    00000000    ....    DCD    0
        0x080030f8:    00000000    ....    DCD    0
        0x080030fc:    00000000    ....    DCD    0
        0x08003100:    00000000    ....    DCD    0
        0x08003104:    00000000    ....    DCD    0
        0x08003108:    00000000    ....    DCD    0
        0x0800310c:    00000000    ....    DCD    0
        0x08003110:    00000000    ....    DCD    0
        0x08003114:    00000000    ....    DCD    0
        0x08003118:    00000000    ....    DCD    0
        0x0800311c:    00000000    ....    DCD    0
        0x08003120:    00000000    ....    DCD    0
        0x08003124:    00000000    ....    DCD    0
        0x08003128:    00000000    ....    DCD    0
        0x0800312c:    00000000    ....    DCD    0
        0x08003130:    00000000    ....    DCD    0
        0x08003134:    00000000    ....    DCD    0
        0x08003138:    00000000    ....    DCD    0
        0x0800313c:    00000000    ....    DCD    0
        0x08003140:    00000000    ....    DCD    0
        0x08003144:    00000000    ....    DCD    0
        0x08003148:    00000000    ....    DCD    0
        0x0800314c:    00000000    ....    DCD    0
        0x08003150:    00000000    ....    DCD    0
        0x08003154:    00000000    ....    DCD    0
        0x08003158:    00000000    ....    DCD    0
        0x0800315c:    00000000    ....    DCD    0
        0x08003160:    00000000    ....    DCD    0
        0x08003164:    00000000    ....    DCD    0
        0x08003168:    00000000    ....    DCD    0
        0x0800316c:    00000000    ....    DCD    0
        0x08003170:    00000000    ....    DCD    0
        0x08003174:    00000000    ....    DCD    0
        0x08003178:    00000000    ....    DCD    0
        0x0800317c:    00000000    ....    DCD    0
        0x08003180:    00000000    ....    DCD    0
        0x08003184:    00000000    ....    DCD    0
        0x08003188:    00000000    ....    DCD    0
        0x0800318c:    00000000    ....    DCD    0
        0x08003190:    00000000    ....    DCD    0
        0x08003194:    00000000    ....    DCD    0
        0x08003198:    00000000    ....    DCD    0
        0x0800319c:    00000000    ....    DCD    0
        0x080031a0:    00000000    ....    DCD    0
        0x080031a4:    00000000    ....    DCD    0
        0x080031a8:    00000000    ....    DCD    0
        0x080031ac:    00000000    ....    DCD    0
        0x080031b0:    00000000    ....    DCD    0
        0x080031b4:    00000000    ....    DCD    0
        0x080031b8:    00000000    ....    DCD    0
        0x080031bc:    00000000    ....    DCD    0
        0x080031c0:    00000000    ....    DCD    0
        0x080031c4:    00000000    ....    DCD    0
        0x080031c8:    00000000    ....    DCD    0
        0x080031cc:    00000000    ....    DCD    0
        0x080031d0:    00000000    ....    DCD    0
        0x080031d4:    00000000    ....    DCD    0
        0x080031d8:    00000000    ....    DCD    0
        0x080031dc:    00000000    ....    DCD    0
        0x080031e0:    00000000    ....    DCD    0
        0x080031e4:    00000000    ....    DCD    0
        0x080031e8:    00000000    ....    DCD    0
        0x080031ec:    00000000    ....    DCD    0
        0x080031f0:    00000000    ....    DCD    0
        0x080031f4:    00000000    ....    DCD    0
        0x080031f8:    00000000    ....    DCD    0
        0x080031fc:    00000000    ....    DCD    0
        0x08003200:    00000000    ....    DCD    0
        0x08003204:    00000000    ....    DCD    0
        0x08003208:    00000000    ....    DCD    0
        0x0800320c:    00000000    ....    DCD    0
        0x08003210:    00000000    ....    DCD    0
        0x08003214:    00000000    ....    DCD    0
        0x08003218:    00000000    ....    DCD    0
        0x0800321c:    00000000    ....    DCD    0
        0x08003220:    00000000    ....    DCD    0
        0x08003224:    00000000    ....    DCD    0
        0x08003228:    00000000    ....    DCD    0
        0x0800322c:    00000000    ....    DCD    0
        0x08003230:    00000000    ....    DCD    0
        0x08003234:    00000000    ....    DCD    0
        0x08003238:    00000000    ....    DCD    0
        0x0800323c:    00000000    ....    DCD    0
        0x08003240:    00000000    ....    DCD    0
        0x08003244:    00000000    ....    DCD    0
        0x08003248:    00000000    ....    DCD    0
        0x0800324c:    00000000    ....    DCD    0
        0x08003250:    00000000    ....    DCD    0
        0x08003254:    00000000    ....    DCD    0
        0x08003258:    00000000    ....    DCD    0
        0x0800325c:    00000000    ....    DCD    0
        0x08003260:    00000000    ....    DCD    0
        0x08003264:    00000000    ....    DCD    0
        0x08003268:    00000000    ....    DCD    0
        0x0800326c:    00000000    ....    DCD    0
        0x08003270:    00000000    ....    DCD    0
        0x08003274:    00000000    ....    DCD    0
        0x08003278:    00000000    ....    DCD    0
        0x0800327c:    00000000    ....    DCD    0
        0x08003280:    00000000    ....    DCD    0
        0x08003284:    00000000    ....    DCD    0
        0x08003288:    00000000    ....    DCD    0
        0x0800328c:    00000000    ....    DCD    0
        0x08003290:    00000000    ....    DCD    0
        0x08003294:    00000000    ....    DCD    0
        0x08003298:    00000000    ....    DCD    0
        0x0800329c:    00000000    ....    DCD    0
        0x080032a0:    00000000    ....    DCD    0
        0x080032a4:    00000000    ....    DCD    0
        0x080032a8:    00000000    ....    DCD    0
        0x080032ac:    00000000    ....    DCD    0
        0x080032b0:    00000000    ....    DCD    0
        0x080032b4:    00000000    ....    DCD    0
        0x080032b8:    00000000    ....    DCD    0
        0x080032bc:    00000000    ....    DCD    0
        0x080032c0:    00000000    ....    DCD    0
        0x080032c4:    00000000    ....    DCD    0
        0x080032c8:    00000000    ....    DCD    0
        0x080032cc:    00000000    ....    DCD    0
        0x080032d0:    00000000    ....    DCD    0
        0x080032d4:    00000000    ....    DCD    0
        0x080032d8:    00000000    ....    DCD    0
        0x080032dc:    00000000    ....    DCD    0
        0x080032e0:    00000000    ....    DCD    0
        0x080032e4:    00000000    ....    DCD    0
        0x080032e8:    00000000    ....    DCD    0
        0x080032ec:    00000000    ....    DCD    0
        0x080032f0:    00000000    ....    DCD    0
        0x080032f4:    00000000    ....    DCD    0
        0x080032f8:    00000000    ....    DCD    0
        0x080032fc:    00000000    ....    DCD    0
        0x08003300:    00000000    ....    DCD    0
        0x08003304:    00000000    ....    DCD    0
        0x08003308:    00000000    ....    DCD    0
        0x0800330c:    00000000    ....    DCD    0
        0x08003310:    00000000    ....    DCD    0
        0x08003314:    00000000    ....    DCD    0
        0x08003318:    00000000    ....    DCD    0
        0x0800331c:    00000000    ....    DCD    0
        0x08003320:    00000000    ....    DCD    0
        0x08003324:    00000000    ....    DCD    0
        0x08003328:    00000000    ....    DCD    0
        0x0800332c:    00000000    ....    DCD    0
        0x08003330:    00000000    ....    DCD    0
        0x08003334:    00000000    ....    DCD    0
        0x08003338:    00000000    ....    DCD    0
        0x0800333c:    00000000    ....    DCD    0
        0x08003340:    00000000    ....    DCD    0
        0x08003344:    00000000    ....    DCD    0
        0x08003348:    00000000    ....    DCD    0
        0x0800334c:    00000000    ....    DCD    0
        0x08003350:    00000000    ....    DCD    0
        0x08003354:    00000000    ....    DCD    0
        0x08003358:    00000000    ....    DCD    0
        0x0800335c:    00000000    ....    DCD    0
        0x08003360:    00000000    ....    DCD    0
        0x08003364:    00000000    ....    DCD    0
        0x08003368:    00000000    ....    DCD    0
        0x0800336c:    00000000    ....    DCD    0
        0x08003370:    00000000    ....    DCD    0
        0x08003374:    00000000    ....    DCD    0
        0x08003378:    00000000    ....    DCD    0
        0x0800337c:    00000000    ....    DCD    0
        0x08003380:    00000000    ....    DCD    0
        0x08003384:    00000000    ....    DCD    0
        0x08003388:    00000000    ....    DCD    0
        0x0800338c:    00000000    ....    DCD    0
        0x08003390:    00000000    ....    DCD    0
        0x08003394:    00000000    ....    DCD    0
        0x08003398:    00000000    ....    DCD    0
        0x0800339c:    00000000    ....    DCD    0
        0x080033a0:    00000000    ....    DCD    0
        0x080033a4:    00000000    ....    DCD    0
        0x080033a8:    00000000    ....    DCD    0
        0x080033ac:    00000000    ....    DCD    0
        0x080033b0:    00000000    ....    DCD    0
        0x080033b4:    00000000    ....    DCD    0
        0x080033b8:    00000000    ....    DCD    0
        0x080033bc:    00000000    ....    DCD    0
        0x080033c0:    00000000    ....    DCD    0
        0x080033c4:    00000000    ....    DCD    0
        0x080033c8:    00000000    ....    DCD    0
        0x080033cc:    00000000    ....    DCD    0
        0x080033d0:    00000000    ....    DCD    0
        0x080033d4:    00000000    ....    DCD    0
        0x080033d8:    00000000    ....    DCD    0
        0x080033dc:    00000000    ....    DCD    0
        0x080033e0:    00000000    ....    DCD    0
        0x080033e4:    00000000    ....    DCD    0
        0x080033e8:    00000000    ....    DCD    0
        0x080033ec:    00000000    ....    DCD    0
        0x080033f0:    00000000    ....    DCD    0
        0x080033f4:    00000000    ....    DCD    0
        0x080033f8:    00000000    ....    DCD    0
        0x080033fc:    00000000    ....    DCD    0
        0x08003400:    00000000    ....    DCD    0
        0x08003404:    00000000    ....    DCD    0
        0x08003408:    00000000    ....    DCD    0
        0x0800340c:    00000000    ....    DCD    0
        0x08003410:    00000000    ....    DCD    0
        0x08003414:    00000000    ....    DCD    0
        0x08003418:    00000000    ....    DCD    0
        0x0800341c:    00000000    ....    DCD    0
        0x08003420:    00000000    ....    DCD    0
        0x08003424:    00000000    ....    DCD    0
        0x08003428:    00000000    ....    DCD    0
        0x0800342c:    00000000    ....    DCD    0
        0x08003430:    00000000    ....    DCD    0
        0x08003434:    00000000    ....    DCD    0
        0x08003438:    00000000    ....    DCD    0
        0x0800343c:    00000000    ....    DCD    0
        0x08003440:    00000000    ....    DCD    0
        0x08003444:    00000000    ....    DCD    0
        0x08003448:    00000000    ....    DCD    0
        0x0800344c:    00000000    ....    DCD    0
        0x08003450:    00000000    ....    DCD    0
        0x08003454:    00000000    ....    DCD    0
        0x08003458:    00000000    ....    DCD    0
        0x0800345c:    00000000    ....    DCD    0
        0x08003460:    00000000    ....    DCD    0
        0x08003464:    00000000    ....    DCD    0
        0x08003468:    00000000    ....    DCD    0
        0x0800346c:    00000000    ....    DCD    0
        0x08003470:    00000000    ....    DCD    0
        0x08003474:    00000000    ....    DCD    0
        0x08003478:    00000000    ....    DCD    0
        0x0800347c:    00000000    ....    DCD    0
        0x08003480:    00000000    ....    DCD    0
        0x08003484:    00000000    ....    DCD    0
        0x08003488:    00000000    ....    DCD    0
        0x0800348c:    00000000    ....    DCD    0
        0x08003490:    00000000    ....    DCD    0
        0x08003494:    00000000    ....    DCD    0
        0x08003498:    00000000    ....    DCD    0
        0x0800349c:    00000000    ....    DCD    0
        0x080034a0:    00000000    ....    DCD    0
        0x080034a4:    00000000    ....    DCD    0
        0x080034a8:    00000000    ....    DCD    0
        0x080034ac:    00000000    ....    DCD    0
        0x080034b0:    00000000    ....    DCD    0
        0x080034b4:    00000000    ....    DCD    0
        0x080034b8:    00000000    ....    DCD    0
        0x080034bc:    00000000    ....    DCD    0
        0x080034c0:    00000000    ....    DCD    0
        0x080034c4:    00000000    ....    DCD    0
        0x080034c8:    00000000    ....    DCD    0
        0x080034cc:    00000000    ....    DCD    0
        0x080034d0:    00000000    ....    DCD    0
        0x080034d4:    00000000    ....    DCD    0
        0x080034d8:    00000000    ....    DCD    0
        0x080034dc:    00000000    ....    DCD    0
        0x080034e0:    00000000    ....    DCD    0
        0x080034e4:    00000000    ....    DCD    0
        0x080034e8:    00000000    ....    DCD    0
        0x080034ec:    00000000    ....    DCD    0
        0x080034f0:    00000000    ....    DCD    0
        0x080034f4:    00000000    ....    DCD    0
        0x080034f8:    00000000    ....    DCD    0
        0x080034fc:    00000000    ....    DCD    0
        0x08003500:    00000000    ....    DCD    0
        0x08003504:    00000000    ....    DCD    0
        0x08003508:    00000000    ....    DCD    0
        0x0800350c:    00000000    ....    DCD    0
        0x08003510:    00000000    ....    DCD    0
        0x08003514:    00000000    ....    DCD    0
        0x08003518:    00000000    ....    DCD    0
        0x0800351c:    00000000    ....    DCD    0
        0x08003520:    00000000    ....    DCD    0
        0x08003524:    00000000    ....    DCD    0
        0x08003528:    00000000    ....    DCD    0
        0x0800352c:    00000000    ....    DCD    0
        0x08003530:    00000000    ....    DCD    0
        0x08003534:    00000000    ....    DCD    0
        0x08003538:    00000000    ....    DCD    0
        0x0800353c:    00000000    ....    DCD    0
        0x08003540:    00000000    ....    DCD    0
        0x08003544:    00000000    ....    DCD    0
        0x08003548:    00000000    ....    DCD    0
        0x0800354c:    00000000    ....    DCD    0
        0x08003550:    00000000    ....    DCD    0
        0x08003554:    00000000    ....    DCD    0
        0x08003558:    00000000    ....    DCD    0
        0x0800355c:    00000000    ....    DCD    0
        0x08003560:    00000000    ....    DCD    0
        0x08003564:    00000000    ....    DCD    0
        0x08003568:    00000000    ....    DCD    0
        0x0800356c:    00000000    ....    DCD    0
        0x08003570:    00000000    ....    DCD    0
        0x08003574:    00000000    ....    DCD    0
        0x08003578:    00000000    ....    DCD    0
        0x0800357c:    00000000    ....    DCD    0
        0x08003580:    00000000    ....    DCD    0
        0x08003584:    00000000    ....    DCD    0
        0x08003588:    00000000    ....    DCD    0
        0x0800358c:    00000000    ....    DCD    0
        0x08003590:    00000000    ....    DCD    0
        0x08003594:    00000000    ....    DCD    0
        0x08003598:    00000000    ....    DCD    0
        0x0800359c:    00000000    ....    DCD    0
        0x080035a0:    00000000    ....    DCD    0
        0x080035a4:    00000000    ....    DCD    0
        0x080035a8:    00000000    ....    DCD    0
        0x080035ac:    00000000    ....    DCD    0
        0x080035b0:    00000000    ....    DCD    0
        0x080035b4:    00000000    ....    DCD    0
        0x080035b8:    00000000    ....    DCD    0
        0x080035bc:    00000000    ....    DCD    0
        0x080035c0:    00000000    ....    DCD    0
        0x080035c4:    00000000    ....    DCD    0
        0x080035c8:    00000000    ....    DCD    0
        0x080035cc:    00000000    ....    DCD    0
        0x080035d0:    00000000    ....    DCD    0
        0x080035d4:    00000000    ....    DCD    0
        0x080035d8:    00000000    ....    DCD    0
        0x080035dc:    00000000    ....    DCD    0
        0x080035e0:    00000000    ....    DCD    0
        0x080035e4:    00000000    ....    DCD    0
        0x080035e8:    00000000    ....    DCD    0
        0x080035ec:    00000000    ....    DCD    0
        0x080035f0:    00000000    ....    DCD    0
        0x080035f4:    00000000    ....    DCD    0
        0x080035f8:    00000000    ....    DCD    0
        0x080035fc:    00000000    ....    DCD    0
        0x08003600:    00000000    ....    DCD    0
        0x08003604:    00000000    ....    DCD    0
        0x08003608:    00000000    ....    DCD    0
        0x0800360c:    00000000    ....    DCD    0
        0x08003610:    00000000    ....    DCD    0
        0x08003614:    00000000    ....    DCD    0
        0x08003618:    00000000    ....    DCD    0
        0x0800361c:    00000000    ....    DCD    0
        0x08003620:    00000000    ....    DCD    0
        0x08003624:    00000000    ....    DCD    0
        0x08003628:    00000000    ....    DCD    0
        0x0800362c:    00000000    ....    DCD    0
        0x08003630:    00000000    ....    DCD    0
        0x08003634:    00000000    ....    DCD    0
        0x08003638:    00000000    ....    DCD    0
        0x0800363c:    00000000    ....    DCD    0
        0x08003640:    00000000    ....    DCD    0
        0x08003644:    00000000    ....    DCD    0
        0x08003648:    00000000    ....    DCD    0
        0x0800364c:    00000000    ....    DCD    0
        0x08003650:    00000000    ....    DCD    0
        0x08003654:    00000000    ....    DCD    0
        0x08003658:    00000000    ....    DCD    0
        0x0800365c:    00000000    ....    DCD    0
        0x08003660:    00000000    ....    DCD    0
        0x08003664:    00000000    ....    DCD    0
        0x08003668:    00000000    ....    DCD    0
        0x0800366c:    00000000    ....    DCD    0
        0x08003670:    00000000    ....    DCD    0
        0x08003674:    00000000    ....    DCD    0
        0x08003678:    00000000    ....    DCD    0
        0x0800367c:    00000000    ....    DCD    0
        0x08003680:    00000000    ....    DCD    0
        0x08003684:    00000000    ....    DCD    0
        0x08003688:    00000000    ....    DCD    0
        0x0800368c:    00000000    ....    DCD    0
        0x08003690:    00000000    ....    DCD    0
        0x08003694:    00000000    ....    DCD    0
        0x08003698:    00000000    ....    DCD    0
        0x0800369c:    00000000    ....    DCD    0
        0x080036a0:    00000000    ....    DCD    0
        0x080036a4:    00000000    ....    DCD    0
        0x080036a8:    00000000    ....    DCD    0
        0x080036ac:    00000000    ....    DCD    0
        0x080036b0:    00000000    ....    DCD    0
        0x080036b4:    00000000    ....    DCD    0
        0x080036b8:    00000000    ....    DCD    0
        0x080036bc:    00000000    ....    DCD    0
        0x080036c0:    00000000    ....    DCD    0
        0x080036c4:    00000000    ....    DCD    0
        0x080036c8:    00000000    ....    DCD    0
        0x080036cc:    00000000    ....    DCD    0
        0x080036d0:    00000000    ....    DCD    0
        0x080036d4:    00000000    ....    DCD    0
        0x080036d8:    00000000    ....    DCD    0
        0x080036dc:    00000000    ....    DCD    0
        0x080036e0:    00000000    ....    DCD    0
        0x080036e4:    00000000    ....    DCD    0
        0x080036e8:    00000000    ....    DCD    0
        0x080036ec:    00000000    ....    DCD    0
        0x080036f0:    00000000    ....    DCD    0
        0x080036f4:    00000000    ....    DCD    0
        0x080036f8:    00000000    ....    DCD    0
        0x080036fc:    00000000    ....    DCD    0
        0x08003700:    00000000    ....    DCD    0
        0x08003704:    00000000    ....    DCD    0
        0x08003708:    00000000    ....    DCD    0
        0x0800370c:    00000000    ....    DCD    0
        0x08003710:    00000000    ....    DCD    0
        0x08003714:    00000000    ....    DCD    0
        0x08003718:    00000000    ....    DCD    0
        0x0800371c:    00000000    ....    DCD    0
        0x08003720:    00000000    ....    DCD    0
        0x08003724:    00000000    ....    DCD    0
        0x08003728:    00000000    ....    DCD    0
        0x0800372c:    00000000    ....    DCD    0
        0x08003730:    00000000    ....    DCD    0
        0x08003734:    00000000    ....    DCD    0
        0x08003738:    00000000    ....    DCD    0
        0x0800373c:    00000000    ....    DCD    0
        0x08003740:    00000000    ....    DCD    0
        0x08003744:    00000000    ....    DCD    0
        0x08003748:    00000000    ....    DCD    0
        0x0800374c:    00000000    ....    DCD    0
        0x08003750:    00000000    ....    DCD    0
        0x08003754:    00000000    ....    DCD    0
        0x08003758:    00000000    ....    DCD    0
        0x0800375c:    00000000    ....    DCD    0
        0x08003760:    00000000    ....    DCD    0
        0x08003764:    00000000    ....    DCD    0
        0x08003768:    00000000    ....    DCD    0
        0x0800376c:    00000000    ....    DCD    0
        0x08003770:    00000000    ....    DCD    0
        0x08003774:    00000000    ....    DCD    0
        0x08003778:    00000000    ....    DCD    0
        0x0800377c:    00000000    ....    DCD    0
        0x08003780:    00000000    ....    DCD    0
        0x08003784:    00000000    ....    DCD    0
        0x08003788:    00000000    ....    DCD    0
        0x0800378c:    00000000    ....    DCD    0
        0x08003790:    00000000    ....    DCD    0
        0x08003794:    00000000    ....    DCD    0
        0x08003798:    00000000    ....    DCD    0
        0x0800379c:    00000000    ....    DCD    0
        0x080037a0:    00000000    ....    DCD    0
        0x080037a4:    00000000    ....    DCD    0
        0x080037a8:    00000000    ....    DCD    0
        0x080037ac:    00000000    ....    DCD    0
        0x080037b0:    00000000    ....    DCD    0
        0x080037b4:    00000000    ....    DCD    0
        0x080037b8:    00000000    ....    DCD    0
        0x080037bc:    00000000    ....    DCD    0
        0x080037c0:    00000000    ....    DCD    0
        0x080037c4:    00000000    ....    DCD    0
        0x080037c8:    00000000    ....    DCD    0
        0x080037cc:    00000000    ....    DCD    0
        0x080037d0:    00000000    ....    DCD    0
        0x080037d4:    00000000    ....    DCD    0
        0x080037d8:    00000000    ....    DCD    0
        0x080037dc:    00000000    ....    DCD    0
        0x080037e0:    00000000    ....    DCD    0
        0x080037e4:    00000000    ....    DCD    0
        0x080037e8:    00000000    ....    DCD    0
        0x080037ec:    00000000    ....    DCD    0
        0x080037f0:    00000000    ....    DCD    0
        0x080037f4:    00000000    ....    DCD    0
        0x080037f8:    00000000    ....    DCD    0
        0x080037fc:    00000000    ....    DCD    0
        0x08003800:    00000000    ....    DCD    0
        0x08003804:    00000000    ....    DCD    0
        0x08003808:    00000000    ....    DCD    0
        0x0800380c:    00000000    ....    DCD    0
        0x08003810:    00000000    ....    DCD    0
        0x08003814:    00000000    ....    DCD    0
        0x08003818:    00000000    ....    DCD    0
        0x0800381c:    00000000    ....    DCD    0
        0x08003820:    00000000    ....    DCD    0
        0x08003824:    00000000    ....    DCD    0
        0x08003828:    00000000    ....    DCD    0
        0x0800382c:    00000000    ....    DCD    0
        0x08003830:    00000000    ....    DCD    0
        0x08003834:    00000000    ....    DCD    0
        0x08003838:    00000000    ....    DCD    0
        0x0800383c:    00000000    ....    DCD    0
        0x08003840:    00000000    ....    DCD    0
        0x08003844:    00000000    ....    DCD    0
        0x08003848:    00000000    ....    DCD    0
        0x0800384c:    00000000    ....    DCD    0
        0x08003850:    00000000    ....    DCD    0
        0x08003854:    00000000    ....    DCD    0
        0x08003858:    00000000    ....    DCD    0
        0x0800385c:    00000000    ....    DCD    0
        0x08003860:    00000000    ....    DCD    0
        0x08003864:    00000000    ....    DCD    0
        0x08003868:    00000000    ....    DCD    0
        0x0800386c:    00000000    ....    DCD    0
        0x08003870:    00000000    ....    DCD    0
        0x08003874:    00000000    ....    DCD    0
        0x08003878:    00000000    ....    DCD    0
        0x0800387c:    00000000    ....    DCD    0
        0x08003880:    00000000    ....    DCD    0
        0x08003884:    00000000    ....    DCD    0
        0x08003888:    00000000    ....    DCD    0
        0x0800388c:    00000000    ....    DCD    0
        0x08003890:    00000000    ....    DCD    0
        0x08003894:    00000000    ....    DCD    0
        0x08003898:    00000000    ....    DCD    0
        0x0800389c:    00000000    ....    DCD    0
        0x080038a0:    00000000    ....    DCD    0
        0x080038a4:    00000000    ....    DCD    0
        0x080038a8:    00000000    ....    DCD    0
        0x080038ac:    00000000    ....    DCD    0
        0x080038b0:    00000000    ....    DCD    0
        0x080038b4:    00000000    ....    DCD    0
        0x080038b8:    00000000    ....    DCD    0
        0x080038bc:    00000000    ....    DCD    0
        0x080038c0:    00000000    ....    DCD    0
        0x080038c4:    00000000    ....    DCD    0
        0x080038c8:    00000000    ....    DCD    0
        0x080038cc:    00000000    ....    DCD    0
        0x080038d0:    00000000    ....    DCD    0
        0x080038d4:    00000000    ....    DCD    0
        0x080038d8:    00000000    ....    DCD    0
        0x080038dc:    00000000    ....    DCD    0
        0x080038e0:    00000000    ....    DCD    0
        0x080038e4:    00000000    ....    DCD    0
        0x080038e8:    00000000    ....    DCD    0
        0x080038ec:    00000000    ....    DCD    0
        0x080038f0:    00000000    ....    DCD    0
        0x080038f4:    00000000    ....    DCD    0
        0x080038f8:    00000000    ....    DCD    0
        0x080038fc:    00000000    ....    DCD    0
        0x08003900:    00000000    ....    DCD    0
        0x08003904:    00000000    ....    DCD    0
        0x08003908:    00000000    ....    DCD    0
        0x0800390c:    00000000    ....    DCD    0
        0x08003910:    00000000    ....    DCD    0
        0x08003914:    00000000    ....    DCD    0
        0x08003918:    00000000    ....    DCD    0
        0x0800391c:    00000000    ....    DCD    0
        0x08003920:    00000000    ....    DCD    0
        0x08003924:    00000000    ....    DCD    0
        0x08003928:    00000000    ....    DCD    0
        0x0800392c:    00000000    ....    DCD    0
        0x08003930:    00000000    ....    DCD    0
        0x08003934:    00000000    ....    DCD    0
        0x08003938:    00000000    ....    DCD    0
        0x0800393c:    00000000    ....    DCD    0
        0x08003940:    00000000    ....    DCD    0
        0x08003944:    00000000    ....    DCD    0
        0x08003948:    00000000    ....    DCD    0
        0x0800394c:    00000000    ....    DCD    0
        0x08003950:    00000000    ....    DCD    0
        0x08003954:    00000000    ....    DCD    0
        0x08003958:    00000000    ....    DCD    0
        0x0800395c:    00000000    ....    DCD    0
        0x08003960:    00000000    ....    DCD    0
        0x08003964:    00000000    ....    DCD    0
        0x08003968:    00000000    ....    DCD    0
        0x0800396c:    00000000    ....    DCD    0
        0x08003970:    00000000    ....    DCD    0
        0x08003974:    00000000    ....    DCD    0
        0x08003978:    00000000    ....    DCD    0
        0x0800397c:    00000000    ....    DCD    0
        0x08003980:    00000000    ....    DCD    0
        0x08003984:    00000000    ....    DCD    0
        0x08003988:    00000000    ....    DCD    0
        0x0800398c:    00000000    ....    DCD    0
        0x08003990:    00000000    ....    DCD    0
        0x08003994:    00000000    ....    DCD    0
        0x08003998:    00000000    ....    DCD    0
        0x0800399c:    00000000    ....    DCD    0
        0x080039a0:    00000000    ....    DCD    0
        0x080039a4:    00000000    ....    DCD    0
        0x080039a8:    00000000    ....    DCD    0
        0x080039ac:    00000000    ....    DCD    0
        0x080039b0:    00000000    ....    DCD    0
        0x080039b4:    00000000    ....    DCD    0
        0x080039b8:    00000000    ....    DCD    0
        0x080039bc:    00000000    ....    DCD    0
        0x080039c0:    00000000    ....    DCD    0
        0x080039c4:    00000000    ....    DCD    0
        0x080039c8:    00000000    ....    DCD    0
        0x080039cc:    00000000    ....    DCD    0
        0x080039d0:    00000000    ....    DCD    0
        0x080039d4:    00000000    ....    DCD    0
        0x080039d8:    00000000    ....    DCD    0
        0x080039dc:    00000000    ....    DCD    0
        0x080039e0:    00000000    ....    DCD    0
        0x080039e4:    00000000    ....    DCD    0
        0x080039e8:    00000000    ....    DCD    0
        0x080039ec:    00000000    ....    DCD    0
        0x080039f0:    00000000    ....    DCD    0
        0x080039f4:    00000000    ....    DCD    0
        0x080039f8:    00000000    ....    DCD    0
        0x080039fc:    00000000    ....    DCD    0
        0x08003a00:    00000000    ....    DCD    0
        0x08003a04:    00000000    ....    DCD    0
        0x08003a08:    00000000    ....    DCD    0
        0x08003a0c:    00000000    ....    DCD    0
        0x08003a10:    00000000    ....    DCD    0
        0x08003a14:    00000000    ....    DCD    0
        0x08003a18:    00000000    ....    DCD    0
        0x08003a1c:    00000000    ....    DCD    0
        0x08003a20:    00000000    ....    DCD    0
        0x08003a24:    00000000    ....    DCD    0
        0x08003a28:    00000000    ....    DCD    0
        0x08003a2c:    00000000    ....    DCD    0
        0x08003a30:    00000000    ....    DCD    0
        0x08003a34:    00000000    ....    DCD    0
        0x08003a38:    00000000    ....    DCD    0
        0x08003a3c:    00000000    ....    DCD    0
        0x08003a40:    00000000    ....    DCD    0
        0x08003a44:    00000000    ....    DCD    0
        0x08003a48:    00000000    ....    DCD    0
        0x08003a4c:    00000000    ....    DCD    0
        0x08003a50:    00000000    ....    DCD    0
        0x08003a54:    00000000    ....    DCD    0
        0x08003a58:    00000000    ....    DCD    0
        0x08003a5c:    00000000    ....    DCD    0
        0x08003a60:    00000000    ....    DCD    0
        0x08003a64:    00000000    ....    DCD    0
        0x08003a68:    00000000    ....    DCD    0
        0x08003a6c:    00000000    ....    DCD    0
        0x08003a70:    00000000    ....    DCD    0
        0x08003a74:    00000000    ....    DCD    0
        0x08003a78:    00000000    ....    DCD    0
        0x08003a7c:    00000000    ....    DCD    0
        0x08003a80:    00000000    ....    DCD    0
        0x08003a84:    00000000    ....    DCD    0
        0x08003a88:    00000000    ....    DCD    0
        0x08003a8c:    00000000    ....    DCD    0
        0x08003a90:    00000000    ....    DCD    0
        0x08003a94:    00000000    ....    DCD    0
        0x08003a98:    00000000    ....    DCD    0
        0x08003a9c:    00000000    ....    DCD    0
        0x08003aa0:    00000000    ....    DCD    0
        0x08003aa4:    00000000    ....    DCD    0
        0x08003aa8:    00000000    ....    DCD    0
        0x08003aac:    00000000    ....    DCD    0
        0x08003ab0:    00000000    ....    DCD    0
        0x08003ab4:    00000000    ....    DCD    0
        0x08003ab8:    00000000    ....    DCD    0
        0x08003abc:    00000000    ....    DCD    0
        0x08003ac0:    00000000    ....    DCD    0
        0x08003ac4:    00000000    ....    DCD    0
        0x08003ac8:    00000000    ....    DCD    0
        0x08003acc:    00000000    ....    DCD    0
        0x08003ad0:    00000000    ....    DCD    0
        0x08003ad4:    00000000    ....    DCD    0
        0x08003ad8:    00000000    ....    DCD    0
        0x08003adc:    00000000    ....    DCD    0
        0x08003ae0:    00000000    ....    DCD    0
        0x08003ae4:    00000000    ....    DCD    0
        0x08003ae8:    00000000    ....    DCD    0
        0x08003aec:    00000000    ....    DCD    0
        0x08003af0:    00000000    ....    DCD    0
        0x08003af4:    00000000    ....    DCD    0
        0x08003af8:    00000000    ....    DCD    0
        0x08003afc:    00000000    ....    DCD    0
        0x08003b00:    00000000    ....    DCD    0
        0x08003b04:    00000000    ....    DCD    0
        0x08003b08:    00000000    ....    DCD    0
        0x08003b0c:    00000000    ....    DCD    0
        0x08003b10:    00000000    ....    DCD    0
        0x08003b14:    00000000    ....    DCD    0
        0x08003b18:    00000000    ....    DCD    0
        0x08003b1c:    00000000    ....    DCD    0
        0x08003b20:    00000000    ....    DCD    0
        0x08003b24:    00000000    ....    DCD    0
        0x08003b28:    00000000    ....    DCD    0
        0x08003b2c:    00000000    ....    DCD    0
        0x08003b30:    00000000    ....    DCD    0
        0x08003b34:    00000000    ....    DCD    0
        0x08003b38:    00000000    ....    DCD    0
        0x08003b3c:    00000000    ....    DCD    0
        0x08003b40:    00000000    ....    DCD    0
        0x08003b44:    00000000    ....    DCD    0
        0x08003b48:    00000000    ....    DCD    0
        0x08003b4c:    00000000    ....    DCD    0
        0x08003b50:    00000000    ....    DCD    0
        0x08003b54:    00000000    ....    DCD    0
        0x08003b58:    00000000    ....    DCD    0
        0x08003b5c:    00000000    ....    DCD    0
        0x08003b60:    00000000    ....    DCD    0
        0x08003b64:    00000000    ....    DCD    0
        0x08003b68:    00000000    ....    DCD    0
        0x08003b6c:    00000000    ....    DCD    0
        0x08003b70:    00000000    ....    DCD    0
        0x08003b74:    00000000    ....    DCD    0
        0x08003b78:    00000000    ....    DCD    0
        0x08003b7c:    00000000    ....    DCD    0
        0x08003b80:    00000000    ....    DCD    0
        0x08003b84:    00000000    ....    DCD    0
        0x08003b88:    00000000    ....    DCD    0
        0x08003b8c:    00000000    ....    DCD    0
        0x08003b90:    00000000    ....    DCD    0
        0x08003b94:    00000000    ....    DCD    0
        0x08003b98:    00000000    ....    DCD    0
        0x08003b9c:    00000000    ....    DCD    0
        0x08003ba0:    00000000    ....    DCD    0
        0x08003ba4:    00000000    ....    DCD    0
        0x08003ba8:    00000000    ....    DCD    0
        0x08003bac:    00000000    ....    DCD    0
        0x08003bb0:    00000000    ....    DCD    0
        0x08003bb4:    00000000    ....    DCD    0
        0x08003bb8:    00000000    ....    DCD    0
        0x08003bbc:    00000000    ....    DCD    0
        0x08003bc0:    00000000    ....    DCD    0
        0x08003bc4:    00000000    ....    DCD    0
        0x08003bc8:    00000000    ....    DCD    0
        0x08003bcc:    00000000    ....    DCD    0
        0x08003bd0:    00000000    ....    DCD    0
        0x08003bd4:    00000000    ....    DCD    0
        0x08003bd8:    00000000    ....    DCD    0
        0x08003bdc:    00000000    ....    DCD    0
        0x08003be0:    00000000    ....    DCD    0
        0x08003be4:    00000000    ....    DCD    0
        0x08003be8:    00000000    ....    DCD    0
        0x08003bec:    00000000    ....    DCD    0
        0x08003bf0:    00000000    ....    DCD    0
        0x08003bf4:    00000000    ....    DCD    0
        0x08003bf8:    00000000    ....    DCD    0
        0x08003bfc:    00000000    ....    DCD    0
        0x08003c00:    00000000    ....    DCD    0
        0x08003c04:    00000000    ....    DCD    0
        0x08003c08:    00000000    ....    DCD    0
        0x08003c0c:    00000000    ....    DCD    0
        0x08003c10:    00000000    ....    DCD    0
        0x08003c14:    00000000    ....    DCD    0
        0x08003c18:    00000000    ....    DCD    0
        0x08003c1c:    00000000    ....    DCD    0
        0x08003c20:    00000000    ....    DCD    0
        0x08003c24:    00000000    ....    DCD    0
        0x08003c28:    00000000    ....    DCD    0
        0x08003c2c:    00000000    ....    DCD    0
        0x08003c30:    00000000    ....    DCD    0
        0x08003c34:    00000000    ....    DCD    0
        0x08003c38:    00000000    ....    DCD    0
        0x08003c3c:    00000000    ....    DCD    0
        0x08003c40:    00000000    ....    DCD    0
        0x08003c44:    00000000    ....    DCD    0
        0x08003c48:    00000000    ....    DCD    0
        0x08003c4c:    00000000    ....    DCD    0
        0x08003c50:    00000000    ....    DCD    0
        0x08003c54:    00000000    ....    DCD    0
        0x08003c58:    00000000    ....    DCD    0
        0x08003c5c:    00000000    ....    DCD    0
        0x08003c60:    00000000    ....    DCD    0
        0x08003c64:    00000000    ....    DCD    0
        0x08003c68:    00000000    ....    DCD    0
        0x08003c6c:    00000000    ....    DCD    0
        0x08003c70:    00000000    ....    DCD    0
        0x08003c74:    00000000    ....    DCD    0
        0x08003c78:    00000000    ....    DCD    0
        0x08003c7c:    00000000    ....    DCD    0
        0x08003c80:    00000000    ....    DCD    0
        0x08003c84:    00000000    ....    DCD    0
        0x08003c88:    00000000    ....    DCD    0
        0x08003c8c:    00000000    ....    DCD    0
        0x08003c90:    00000000    ....    DCD    0
        0x08003c94:    00000000    ....    DCD    0
        0x08003c98:    00000000    ....    DCD    0
        0x08003c9c:    00000000    ....    DCD    0
        0x08003ca0:    00000000    ....    DCD    0
        0x08003ca4:    00000000    ....    DCD    0
        0x08003ca8:    00000000    ....    DCD    0
        0x08003cac:    00000000    ....    DCD    0
        0x08003cb0:    00000000    ....    DCD    0
        0x08003cb4:    00000000    ....    DCD    0
        0x08003cb8:    00000000    ....    DCD    0
        0x08003cbc:    00000000    ....    DCD    0
        0x08003cc0:    00000000    ....    DCD    0
        0x08003cc4:    00000000    ....    DCD    0
        0x08003cc8:    00000000    ....    DCD    0
        0x08003ccc:    00000000    ....    DCD    0
        0x08003cd0:    00000000    ....    DCD    0
        0x08003cd4:    00000000    ....    DCD    0
        0x08003cd8:    00000000    ....    DCD    0
        0x08003cdc:    00000000    ....    DCD    0
        0x08003ce0:    00000000    ....    DCD    0
        0x08003ce4:    00000000    ....    DCD    0
        0x08003ce8:    00000000    ....    DCD    0
        0x08003cec:    00000000    ....    DCD    0
        0x08003cf0:    00000000    ....    DCD    0
        0x08003cf4:    00000000    ....    DCD    0
        0x08003cf8:    00000000    ....    DCD    0
        0x08003cfc:    00000000    ....    DCD    0
        0x08003d00:    00000000    ....    DCD    0
        0x08003d04:    00000000    ....    DCD    0
        0x08003d08:    00000000    ....    DCD    0
        0x08003d0c:    00000000    ....    DCD    0
        0x08003d10:    00000000    ....    DCD    0
        0x08003d14:    00000000    ....    DCD    0
        0x08003d18:    00000000    ....    DCD    0
        0x08003d1c:    00000000    ....    DCD    0
        0x08003d20:    00000000    ....    DCD    0
        0x08003d24:    00000000    ....    DCD    0
        0x08003d28:    00000000    ....    DCD    0
        0x08003d2c:    00000000    ....    DCD    0
        0x08003d30:    00000000    ....    DCD    0
        0x08003d34:    00000000    ....    DCD    0
        0x08003d38:    00000000    ....    DCD    0
        0x08003d3c:    00000000    ....    DCD    0
        0x08003d40:    00000000    ....    DCD    0
        0x08003d44:    00000000    ....    DCD    0
        0x08003d48:    00000000    ....    DCD    0
        0x08003d4c:    00000000    ....    DCD    0
        0x08003d50:    00000000    ....    DCD    0
        0x08003d54:    00000000    ....    DCD    0
        0x08003d58:    00000000    ....    DCD    0
        0x08003d5c:    00000000    ....    DCD    0
        0x08003d60:    00000000    ....    DCD    0
        0x08003d64:    00000000    ....    DCD    0
        0x08003d68:    00000000    ....    DCD    0
        0x08003d6c:    00000000    ....    DCD    0
        0x08003d70:    00000000    ....    DCD    0
        0x08003d74:    00000000    ....    DCD    0
        0x08003d78:    00000000    ....    DCD    0
        0x08003d7c:    00000000    ....    DCD    0
        0x08003d80:    00000000    ....    DCD    0
        0x08003d84:    00000000    ....    DCD    0
        0x08003d88:    00000000    ....    DCD    0
        0x08003d8c:    00000000    ....    DCD    0
        0x08003d90:    00000000    ....    DCD    0
        0x08003d94:    00000000    ....    DCD    0
        0x08003d98:    00000000    ....    DCD    0
        0x08003d9c:    00000000    ....    DCD    0
        0x08003da0:    00000000    ....    DCD    0
        0x08003da4:    00000000    ....    DCD    0
        0x08003da8:    00000000    ....    DCD    0
        0x08003dac:    00000000    ....    DCD    0
        0x08003db0:    00000000    ....    DCD    0
        0x08003db4:    00000000    ....    DCD    0
        0x08003db8:    00000000    ....    DCD    0
        0x08003dbc:    00000000    ....    DCD    0
        0x08003dc0:    00000000    ....    DCD    0
        0x08003dc4:    00000000    ....    DCD    0
        0x08003dc8:    00000000    ....    DCD    0
        0x08003dcc:    00000000    ....    DCD    0
        0x08003dd0:    00000000    ....    DCD    0
        0x08003dd4:    00000000    ....    DCD    0
        0x08003dd8:    00000000    ....    DCD    0
        0x08003ddc:    00000000    ....    DCD    0
        0x08003de0:    00000000    ....    DCD    0
        0x08003de4:    00000000    ....    DCD    0
        0x08003de8:    00000000    ....    DCD    0
        0x08003dec:    00000000    ....    DCD    0
        0x08003df0:    00000000    ....    DCD    0
        0x08003df4:    00000000    ....    DCD    0
        0x08003df8:    00000000    ....    DCD    0
        0x08003dfc:    00000000    ....    DCD    0
        0x08003e00:    00000000    ....    DCD    0
        0x08003e04:    00000000    ....    DCD    0
        0x08003e08:    00000000    ....    DCD    0
        0x08003e0c:    00000000    ....    DCD    0
        0x08003e10:    00000000    ....    DCD    0
        0x08003e14:    00000000    ....    DCD    0
        0x08003e18:    00000000    ....    DCD    0
        0x08003e1c:    00000000    ....    DCD    0
        0x08003e20:    00000000    ....    DCD    0
        0x08003e24:    00000000    ....    DCD    0
        0x08003e28:    00000000    ....    DCD    0
        0x08003e2c:    00000000    ....    DCD    0
        0x08003e30:    00000000    ....    DCD    0
        0x08003e34:    00000000    ....    DCD    0
        0x08003e38:    00000000    ....    DCD    0
        0x08003e3c:    00000000    ....    DCD    0
        0x08003e40:    00000000    ....    DCD    0
        0x08003e44:    00000000    ....    DCD    0
        0x08003e48:    00000000    ....    DCD    0
        0x08003e4c:    00000000    ....    DCD    0
        0x08003e50:    00000000    ....    DCD    0
        0x08003e54:    00000000    ....    DCD    0
        0x08003e58:    00000000    ....    DCD    0
        0x08003e5c:    00000000    ....    DCD    0
        0x08003e60:    00000000    ....    DCD    0
        0x08003e64:    00000000    ....    DCD    0
        0x08003e68:    00000000    ....    DCD    0
        0x08003e6c:    00000000    ....    DCD    0
        0x08003e70:    00000000    ....    DCD    0
        0x08003e74:    00000000    ....    DCD    0
        0x08003e78:    00000000    ....    DCD    0
        0x08003e7c:    00000000    ....    DCD    0
        0x08003e80:    00000000    ....    DCD    0
        0x08003e84:    00000000    ....    DCD    0
        0x08003e88:    00000000    ....    DCD    0
        0x08003e8c:    00000000    ....    DCD    0
        0x08003e90:    00000000    ....    DCD    0
        0x08003e94:    00000000    ....    DCD    0
        0x08003e98:    00000000    ....    DCD    0
        0x08003e9c:    00000000    ....    DCD    0
        0x08003ea0:    00000000    ....    DCD    0
        0x08003ea4:    00000000    ....    DCD    0
        0x08003ea8:    00000000    ....    DCD    0
        0x08003eac:    00000000    ....    DCD    0
        0x08003eb0:    00000000    ....    DCD    0
        0x08003eb4:    00000000    ....    DCD    0
        0x08003eb8:    00000000    ....    DCD    0
        0x08003ebc:    00000000    ....    DCD    0
        0x08003ec0:    00000000    ....    DCD    0
        0x08003ec4:    00000000    ....    DCD    0
        0x08003ec8:    00000000    ....    DCD    0
        0x08003ecc:    00000000    ....    DCD    0
        0x08003ed0:    00000000    ....    DCD    0
        0x08003ed4:    00000000    ....    DCD    0
        0x08003ed8:    00000000    ....    DCD    0
        0x08003edc:    00000000    ....    DCD    0
        0x08003ee0:    00000000    ....    DCD    0
        0x08003ee4:    00000000    ....    DCD    0
        0x08003ee8:    00000000    ....    DCD    0
        0x08003eec:    00000000    ....    DCD    0
        0x08003ef0:    00000000    ....    DCD    0
        0x08003ef4:    00000000    ....    DCD    0
        0x08003ef8:    00000000    ....    DCD    0
        0x08003efc:    00000000    ....    DCD    0
        0x08003f00:    00000000    ....    DCD    0
        0x08003f04:    00000000    ....    DCD    0
        0x08003f08:    00000000    ....    DCD    0
        0x08003f0c:    00000000    ....    DCD    0
        0x08003f10:    00000000    ....    DCD    0
        0x08003f14:    00000000    ....    DCD    0
        0x08003f18:    00000000    ....    DCD    0
        0x08003f1c:    00000000    ....    DCD    0
        0x08003f20:    00000000    ....    DCD    0
        0x08003f24:    00000000    ....    DCD    0
        0x08003f28:    00000000    ....    DCD    0
        0x08003f2c:    00000000    ....    DCD    0
        0x08003f30:    00000000    ....    DCD    0
        0x08003f34:    00000000    ....    DCD    0
        0x08003f38:    00000000    ....    DCD    0
        0x08003f3c:    00000000    ....    DCD    0
        0x08003f40:    00000000    ....    DCD    0
        0x08003f44:    00000000    ....    DCD    0
        0x08003f48:    00000000    ....    DCD    0
        0x08003f4c:    00000000    ....    DCD    0
        0x08003f50:    00000000    ....    DCD    0
        0x08003f54:    00000000    ....    DCD    0
        0x08003f58:    00000000    ....    DCD    0
        0x08003f5c:    00000000    ....    DCD    0
        0x08003f60:    00000000    ....    DCD    0
        0x08003f64:    00000000    ....    DCD    0
        0x08003f68:    00000000    ....    DCD    0
        0x08003f6c:    00000000    ....    DCD    0
        0x08003f70:    00000000    ....    DCD    0
        0x08003f74:    00000000    ....    DCD    0
        0x08003f78:    00000000    ....    DCD    0
        0x08003f7c:    00000000    ....    DCD    0
        0x08003f80:    00000000    ....    DCD    0
        0x08003f84:    00000000    ....    DCD    0
        0x08003f88:    00000000    ....    DCD    0
        0x08003f8c:    00000000    ....    DCD    0
        0x08003f90:    00000000    ....    DCD    0
        0x08003f94:    00000000    ....    DCD    0
        0x08003f98:    00000000    ....    DCD    0
        0x08003f9c:    00000000    ....    DCD    0
        0x08003fa0:    00000000    ....    DCD    0
        0x08003fa4:    00000000    ....    DCD    0
        0x08003fa8:    00000000    ....    DCD    0
        0x08003fac:    00000000    ....    DCD    0
        0x08003fb0:    00000000    ....    DCD    0
        0x08003fb4:    00000000    ....    DCD    0
        0x08003fb8:    00000000    ....    DCD    0
        0x08003fbc:    00000000    ....    DCD    0
        0x08003fc0:    00000000    ....    DCD    0
        0x08003fc4:    00000000    ....    DCD    0
        0x08003fc8:    00000000    ....    DCD    0
        0x08003fcc:    00000000    ....    DCD    0
        0x08003fd0:    00000000    ....    DCD    0
        0x08003fd4:    00000000    ....    DCD    0
        0x08003fd8:    00000000    ....    DCD    0
        0x08003fdc:    00000000    ....    DCD    0
        0x08003fe0:    00000000    ....    DCD    0
        0x08003fe4:    00000000    ....    DCD    0
        0x08003fe8:    00000000    ....    DCD    0
        0x08003fec:    00000000    ....    DCD    0
        0x08003ff0:    00000000    ....    DCD    0
        0x08003ff4:    00000000    ....    DCD    0
        0x08003ff8:    00000000    ....    DCD    0
        0x08003ffc:    00000000    ....    DCD    0
        0x08004000:    00000000    ....    DCD    0
        0x08004004:    00000000    ....    DCD    0
        0x08004008:    00000000    ....    DCD    0
        0x0800400c:    00000000    ....    DCD    0
        0x08004010:    00000000    ....    DCD    0
        0x08004014:    00000000    ....    DCD    0
        0x08004018:    00000000    ....    DCD    0
        0x0800401c:    00000000    ....    DCD    0
        0x08004020:    00000000    ....    DCD    0
        0x08004024:    00000000    ....    DCD    0
        0x08004028:    00000000    ....    DCD    0
        0x0800402c:    00000000    ....    DCD    0
        0x08004030:    00000000    ....    DCD    0
        0x08004034:    00000000    ....    DCD    0
        0x08004038:    00000000    ....    DCD    0
        0x0800403c:    00000000    ....    DCD    0
        0x08004040:    00000000    ....    DCD    0
        0x08004044:    00000000    ....    DCD    0
        0x08004048:    00000000    ....    DCD    0
        0x0800404c:    00000000    ....    DCD    0
        0x08004050:    00000000    ....    DCD    0
        0x08004054:    00000000    ....    DCD    0
        0x08004058:    00000000    ....    DCD    0
        0x0800405c:    00000000    ....    DCD    0
        0x08004060:    00000000    ....    DCD    0
        0x08004064:    00000000    ....    DCD    0
        0x08004068:    00000000    ....    DCD    0
        0x0800406c:    00000000    ....    DCD    0
        0x08004070:    00000000    ....    DCD    0
        0x08004074:    00000000    ....    DCD    0
        0x08004078:    00000000    ....    DCD    0
        0x0800407c:    00000000    ....    DCD    0
        0x08004080:    00000000    ....    DCD    0
        0x08004084:    00000000    ....    DCD    0
        0x08004088:    00000000    ....    DCD    0
        0x0800408c:    00000000    ....    DCD    0
        0x08004090:    00000000    ....    DCD    0
        0x08004094:    00000000    ....    DCD    0
        0x08004098:    00000000    ....    DCD    0
        0x0800409c:    00000000    ....    DCD    0
        0x080040a0:    00000000    ....    DCD    0
        0x080040a4:    00000000    ....    DCD    0
        0x080040a8:    00000000    ....    DCD    0
        0x080040ac:    00000000    ....    DCD    0
        0x080040b0:    00000000    ....    DCD    0
        0x080040b4:    00000000    ....    DCD    0
        0x080040b8:    00000000    ....    DCD    0
        0x080040bc:    00000000    ....    DCD    0
        0x080040c0:    00000000    ....    DCD    0
        0x080040c4:    00000000    ....    DCD    0
        0x080040c8:    00000000    ....    DCD    0
        0x080040cc:    00000000    ....    DCD    0
        0x080040d0:    00000000    ....    DCD    0
        0x080040d4:    00000000    ....    DCD    0
        0x080040d8:    00000000    ....    DCD    0
        0x080040dc:    00000000    ....    DCD    0
        0x080040e0:    00000000    ....    DCD    0
        0x080040e4:    00000000    ....    DCD    0
        0x080040e8:    00000000    ....    DCD    0
        0x080040ec:    00000000    ....    DCD    0
        0x080040f0:    00000000    ....    DCD    0
        0x080040f4:    00000000    ....    DCD    0
        0x080040f8:    00000000    ....    DCD    0
        0x080040fc:    00000000    ....    DCD    0
        0x08004100:    00000000    ....    DCD    0
        0x08004104:    00000000    ....    DCD    0
        0x08004108:    00000000    ....    DCD    0
        0x0800410c:    00000000    ....    DCD    0
        0x08004110:    00000000    ....    DCD    0
        0x08004114:    00000000    ....    DCD    0
        0x08004118:    00000000    ....    DCD    0
        0x0800411c:    00000000    ....    DCD    0
        0x08004120:    00000000    ....    DCD    0
        0x08004124:    00000000    ....    DCD    0
        0x08004128:    00000000    ....    DCD    0
        0x0800412c:    00000000    ....    DCD    0
        0x08004130:    00000000    ....    DCD    0
        0x08004134:    00000000    ....    DCD    0
        0x08004138:    00000000    ....    DCD    0
        0x0800413c:    00000000    ....    DCD    0
        0x08004140:    00000000    ....    DCD    0
        0x08004144:    00000000    ....    DCD    0
        0x08004148:    00000000    ....    DCD    0
        0x0800414c:    00000000    ....    DCD    0
        0x08004150:    00000000    ....    DCD    0
        0x08004154:    00000000    ....    DCD    0
        0x08004158:    00000000    ....    DCD    0
        0x0800415c:    00000000    ....    DCD    0
        0x08004160:    00000000    ....    DCD    0
        0x08004164:    00000000    ....    DCD    0
        0x08004168:    00000000    ....    DCD    0
        0x0800416c:    00000000    ....    DCD    0
        0x08004170:    00000000    ....    DCD    0
        0x08004174:    00000000    ....    DCD    0
        0x08004178:    00000000    ....    DCD    0
        0x0800417c:    00000000    ....    DCD    0
        0x08004180:    00000000    ....    DCD    0
        0x08004184:    00000000    ....    DCD    0
        0x08004188:    00000000    ....    DCD    0
        0x0800418c:    00000000    ....    DCD    0
        0x08004190:    00000000    ....    DCD    0
        0x08004194:    00000000    ....    DCD    0
        0x08004198:    00000000    ....    DCD    0
        0x0800419c:    00000000    ....    DCD    0
        0x080041a0:    00000000    ....    DCD    0
        0x080041a4:    00000000    ....    DCD    0
        0x080041a8:    00000000    ....    DCD    0
        0x080041ac:    00000000    ....    DCD    0
        0x080041b0:    00000000    ....    DCD    0
        0x080041b4:    00000000    ....    DCD    0
        0x080041b8:    00000000    ....    DCD    0
        0x080041bc:    00000000    ....    DCD    0
        0x080041c0:    00000000    ....    DCD    0
        0x080041c4:    00000000    ....    DCD    0
        0x080041c8:    00000000    ....    DCD    0
        0x080041cc:    00000000    ....    DCD    0
        0x080041d0:    00000000    ....    DCD    0
        0x080041d4:    00000000    ....    DCD    0
        0x080041d8:    00000000    ....    DCD    0
        0x080041dc:    00000000    ....    DCD    0
        0x080041e0:    00000000    ....    DCD    0
        0x080041e4:    00000000    ....    DCD    0
        0x080041e8:    00000000    ....    DCD    0
        0x080041ec:    00000000    ....    DCD    0
        0x080041f0:    00000000    ....    DCD    0
        0x080041f4:    00000000    ....    DCD    0
        0x080041f8:    00000000    ....    DCD    0
        0x080041fc:    00000000    ....    DCD    0
        0x08004200:    00000000    ....    DCD    0
        0x08004204:    00000000    ....    DCD    0
        0x08004208:    00000000    ....    DCD    0
        0x0800420c:    00000000    ....    DCD    0
        0x08004210:    00000000    ....    DCD    0
        0x08004214:    00000000    ....    DCD    0
        0x08004218:    00000000    ....    DCD    0
        0x0800421c:    00000000    ....    DCD    0
        0x08004220:    00000000    ....    DCD    0
        0x08004224:    00000000    ....    DCD    0
        0x08004228:    00000000    ....    DCD    0
        0x0800422c:    00000000    ....    DCD    0
        0x08004230:    00000000    ....    DCD    0
        0x08004234:    00000000    ....    DCD    0
        0x08004238:    00000000    ....    DCD    0
        0x0800423c:    00000000    ....    DCD    0
        0x08004240:    00000000    ....    DCD    0
        0x08004244:    00000000    ....    DCD    0
        0x08004248:    00000000    ....    DCD    0
        0x0800424c:    00000000    ....    DCD    0
        0x08004250:    00000000    ....    DCD    0
        0x08004254:    00000000    ....    DCD    0
        0x08004258:    00000000    ....    DCD    0
        0x0800425c:    00000000    ....    DCD    0
        0x08004260:    00000000    ....    DCD    0
        0x08004264:    00000000    ....    DCD    0
        0x08004268:    00000000    ....    DCD    0
        0x0800426c:    00000000    ....    DCD    0
        0x08004270:    00000000    ....    DCD    0
        0x08004274:    00000000    ....    DCD    0
        0x08004278:    00000000    ....    DCD    0
        0x0800427c:    00000000    ....    DCD    0
        0x08004280:    00000000    ....    DCD    0
        0x08004284:    00000000    ....    DCD    0
        0x08004288:    00000000    ....    DCD    0
        0x0800428c:    00000000    ....    DCD    0
        0x08004290:    00000000    ....    DCD    0
        0x08004294:    00000000    ....    DCD    0
        0x08004298:    00000000    ....    DCD    0
        0x0800429c:    00000000    ....    DCD    0
        0x080042a0:    00000000    ....    DCD    0
        0x080042a4:    00000000    ....    DCD    0
        0x080042a8:    00000000    ....    DCD    0
        0x080042ac:    00000000    ....    DCD    0
        0x080042b0:    00000000    ....    DCD    0
        0x080042b4:    00000000    ....    DCD    0
        0x080042b8:    00000000    ....    DCD    0
        0x080042bc:    00000000    ....    DCD    0
        0x080042c0:    00000000    ....    DCD    0
        0x080042c4:    00000000    ....    DCD    0
        0x080042c8:    00000000    ....    DCD    0
        0x080042cc:    00000000    ....    DCD    0
        0x080042d0:    00000000    ....    DCD    0
        0x080042d4:    00000000    ....    DCD    0
        0x080042d8:    00000000    ....    DCD    0
        0x080042dc:    00000000    ....    DCD    0
        0x080042e0:    00000000    ....    DCD    0
        0x080042e4:    00000000    ....    DCD    0
        0x080042e8:    00000000    ....    DCD    0
        0x080042ec:    00000000    ....    DCD    0
        0x080042f0:    00000000    ....    DCD    0
        0x080042f4:    00000000    ....    DCD    0
        0x080042f8:    00000000    ....    DCD    0
        0x080042fc:    00000000    ....    DCD    0
        0x08004300:    00000000    ....    DCD    0
        0x08004304:    00000000    ....    DCD    0
        0x08004308:    00000000    ....    DCD    0
        0x0800430c:    00000000    ....    DCD    0
        0x08004310:    00000000    ....    DCD    0
        0x08004314:    00000000    ....    DCD    0
        0x08004318:    00000000    ....    DCD    0
        0x0800431c:    00000000    ....    DCD    0
        0x08004320:    00000000    ....    DCD    0
        0x08004324:    00000000    ....    DCD    0
        0x08004328:    00000000    ....    DCD    0
        0x0800432c:    00000000    ....    DCD    0
        0x08004330:    00000000    ....    DCD    0
        0x08004334:    00000000    ....    DCD    0
        0x08004338:    00000000    ....    DCD    0
        0x0800433c:    00000000    ....    DCD    0
        0x08004340:    00000000    ....    DCD    0
        0x08004344:    00000000    ....    DCD    0
        0x08004348:    00000000    ....    DCD    0
        0x0800434c:    00000000    ....    DCD    0
        0x08004350:    00000000    ....    DCD    0
        0x08004354:    00000000    ....    DCD    0
        0x08004358:    00000000    ....    DCD    0
        0x0800435c:    00000000    ....    DCD    0
        0x08004360:    00000000    ....    DCD    0
        0x08004364:    00000000    ....    DCD    0
        0x08004368:    00000000    ....    DCD    0
        0x0800436c:    00000000    ....    DCD    0
        0x08004370:    00000000    ....    DCD    0
        0x08004374:    00000000    ....    DCD    0
        0x08004378:    00000000    ....    DCD    0
        0x0800437c:    00000000    ....    DCD    0
        0x08004380:    00000000    ....    DCD    0
        0x08004384:    00000000    ....    DCD    0
        0x08004388:    00000000    ....    DCD    0
        0x0800438c:    00000000    ....    DCD    0
        0x08004390:    00000000    ....    DCD    0
        0x08004394:    00000000    ....    DCD    0
        0x08004398:    00000000    ....    DCD    0
        0x0800439c:    00000000    ....    DCD    0
        0x080043a0:    00000000    ....    DCD    0
        0x080043a4:    00000000    ....    DCD    0
        0x080043a8:    00000000    ....    DCD    0
        0x080043ac:    00000000    ....    DCD    0
        0x080043b0:    00000000    ....    DCD    0
        0x080043b4:    00000000    ....    DCD    0
        0x080043b8:    00000000    ....    DCD    0
        0x080043bc:    00000000    ....    DCD    0
        0x080043c0:    00000000    ....    DCD    0
        0x080043c4:    00000000    ....    DCD    0
        0x080043c8:    00000000    ....    DCD    0
        0x080043cc:    00000000    ....    DCD    0
        0x080043d0:    00000000    ....    DCD    0
        0x080043d4:    00000000    ....    DCD    0
        0x080043d8:    00000000    ....    DCD    0
        0x080043dc:    00000000    ....    DCD    0
        0x080043e0:    00000000    ....    DCD    0
        0x080043e4:    00000000    ....    DCD    0
        0x080043e8:    00000000    ....    DCD    0
        0x080043ec:    00000000    ....    DCD    0
        0x080043f0:    00000000    ....    DCD    0
        0x080043f4:    00000000    ....    DCD    0
        0x080043f8:    00000000    ....    DCD    0
        0x080043fc:    00000000    ....    DCD    0
        0x08004400:    00000000    ....    DCD    0
        0x08004404:    00000000    ....    DCD    0
        0x08004408:    00000000    ....    DCD    0
        0x0800440c:    00000000    ....    DCD    0
        0x08004410:    00000000    ....    DCD    0
        0x08004414:    00000000    ....    DCD    0
        0x08004418:    00000000    ....    DCD    0
        0x0800441c:    00000000    ....    DCD    0
        0x08004420:    00000000    ....    DCD    0
        0x08004424:    00000000    ....    DCD    0
        0x08004428:    00000000    ....    DCD    0
        0x0800442c:    00000000    ....    DCD    0
        0x08004430:    00000000    ....    DCD    0
        0x08004434:    00000000    ....    DCD    0
        0x08004438:    00000000    ....    DCD    0
        0x0800443c:    00000000    ....    DCD    0
        0x08004440:    00000000    ....    DCD    0
        0x08004444:    00000000    ....    DCD    0
        0x08004448:    00000000    ....    DCD    0
        0x0800444c:    00000000    ....    DCD    0
        0x08004450:    00000000    ....    DCD    0
        0x08004454:    00000000    ....    DCD    0
        0x08004458:    00000000    ....    DCD    0
        0x0800445c:    00000000    ....    DCD    0
        0x08004460:    00000000    ....    DCD    0
        0x08004464:    00000000    ....    DCD    0
        0x08004468:    00000000    ....    DCD    0
        0x0800446c:    00000000    ....    DCD    0
        0x08004470:    00000000    ....    DCD    0
        0x08004474:    00000000    ....    DCD    0
        0x08004478:    00000000    ....    DCD    0
        0x0800447c:    00000000    ....    DCD    0
        0x08004480:    00000000    ....    DCD    0
        0x08004484:    00000000    ....    DCD    0
        0x08004488:    00000000    ....    DCD    0
        0x0800448c:    00000000    ....    DCD    0
        0x08004490:    00000000    ....    DCD    0
        0x08004494:    00000000    ....    DCD    0
        0x08004498:    00000000    ....    DCD    0
        0x0800449c:    00000000    ....    DCD    0
        0x080044a0:    00000000    ....    DCD    0
        0x080044a4:    00000000    ....    DCD    0
        0x080044a8:    00000000    ....    DCD    0
        0x080044ac:    00000000    ....    DCD    0
        0x080044b0:    00000000    ....    DCD    0
        0x080044b4:    00000000    ....    DCD    0
        0x080044b8:    00000000    ....    DCD    0
        0x080044bc:    00000000    ....    DCD    0
        0x080044c0:    00000000    ....    DCD    0
        0x080044c4:    00000000    ....    DCD    0
        0x080044c8:    00000000    ....    DCD    0
        0x080044cc:    00000000    ....    DCD    0
        0x080044d0:    00000000    ....    DCD    0
        0x080044d4:    00000000    ....    DCD    0
        0x080044d8:    00000000    ....    DCD    0
        0x080044dc:    00000000    ....    DCD    0
        0x080044e0:    00000000    ....    DCD    0
        0x080044e4:    00000000    ....    DCD    0
        0x080044e8:    00000000    ....    DCD    0
        0x080044ec:    00000000    ....    DCD    0
        0x080044f0:    00000000    ....    DCD    0
        0x080044f4:    00000000    ....    DCD    0
        0x080044f8:    00000000    ....    DCD    0
        0x080044fc:    00000000    ....    DCD    0
        0x08004500:    00000000    ....    DCD    0
        0x08004504:    00000000    ....    DCD    0
        0x08004508:    00000000    ....    DCD    0
        0x0800450c:    00000000    ....    DCD    0
        0x08004510:    00000000    ....    DCD    0
        0x08004514:    00000000    ....    DCD    0
        0x08004518:    00000000    ....    DCD    0
        0x0800451c:    00000000    ....    DCD    0
        0x08004520:    00000000    ....    DCD    0
        0x08004524:    00000000    ....    DCD    0
        0x08004528:    00000000    ....    DCD    0
        0x0800452c:    00000000    ....    DCD    0
        0x08004530:    00000000    ....    DCD    0
        0x08004534:    00000000    ....    DCD    0
        0x08004538:    00000000    ....    DCD    0
        0x0800453c:    00000000    ....    DCD    0
        0x08004540:    00000000    ....    DCD    0
        0x08004544:    00000000    ....    DCD    0
        0x08004548:    00000000    ....    DCD    0
        0x0800454c:    00000000    ....    DCD    0
        0x08004550:    00000000    ....    DCD    0
        0x08004554:    00000000    ....    DCD    0
        0x08004558:    00000000    ....    DCD    0
        0x0800455c:    00000000    ....    DCD    0
        0x08004560:    00000000    ....    DCD    0
        0x08004564:    00000000    ....    DCD    0
        0x08004568:    00000000    ....    DCD    0
        0x0800456c:    00000000    ....    DCD    0
        0x08004570:    00000000    ....    DCD    0
        0x08004574:    00000000    ....    DCD    0
        0x08004578:    00000000    ....    DCD    0
        0x0800457c:    00000000    ....    DCD    0
        0x08004580:    00000000    ....    DCD    0
        0x08004584:    00000000    ....    DCD    0
        0x08004588:    00000000    ....    DCD    0
        0x0800458c:    00000000    ....    DCD    0
        0x08004590:    00000000    ....    DCD    0
        0x08004594:    00000000    ....    DCD    0
        0x08004598:    00000000    ....    DCD    0
        0x0800459c:    00000000    ....    DCD    0
        0x080045a0:    00000000    ....    DCD    0
        0x080045a4:    00000000    ....    DCD    0
        0x080045a8:    00000000    ....    DCD    0
        0x080045ac:    00000000    ....    DCD    0
        0x080045b0:    00000000    ....    DCD    0
        0x080045b4:    00000000    ....    DCD    0
        0x080045b8:    00000000    ....    DCD    0
        0x080045bc:    00000000    ....    DCD    0
        0x080045c0:    00000000    ....    DCD    0
        0x080045c4:    00000000    ....    DCD    0
        0x080045c8:    00000000    ....    DCD    0
        0x080045cc:    00000000    ....    DCD    0
        0x080045d0:    00000000    ....    DCD    0
        0x080045d4:    00000000    ....    DCD    0
        0x080045d8:    00000000    ....    DCD    0
        0x080045dc:    00000000    ....    DCD    0
        0x080045e0:    00000000    ....    DCD    0
        0x080045e4:    00000000    ....    DCD    0
        0x080045e8:    00000000    ....    DCD    0
        0x080045ec:    00000000    ....    DCD    0
        0x080045f0:    00000000    ....    DCD    0
        0x080045f4:    00000000    ....    DCD    0
        0x080045f8:    00000000    ....    DCD    0
        0x080045fc:    00000000    ....    DCD    0
        0x08004600:    00000000    ....    DCD    0
        0x08004604:    00000000    ....    DCD    0
        0x08004608:    00000000    ....    DCD    0
        0x0800460c:    00000000    ....    DCD    0
        0x08004610:    00000000    ....    DCD    0
        0x08004614:    00000000    ....    DCD    0
        0x08004618:    00000000    ....    DCD    0
        0x0800461c:    00000000    ....    DCD    0
        0x08004620:    00000000    ....    DCD    0
        0x08004624:    00000000    ....    DCD    0
        0x08004628:    00000000    ....    DCD    0
        0x0800462c:    00000000    ....    DCD    0
        0x08004630:    00000000    ....    DCD    0
        0x08004634:    00000000    ....    DCD    0
        0x08004638:    00000000    ....    DCD    0
        0x0800463c:    00000000    ....    DCD    0
        0x08004640:    00000000    ....    DCD    0
        0x08004644:    00000000    ....    DCD    0
        0x08004648:    00000000    ....    DCD    0
        0x0800464c:    00000000    ....    DCD    0
        0x08004650:    00000000    ....    DCD    0
        0x08004654:    00000000    ....    DCD    0
        0x08004658:    00000000    ....    DCD    0
        0x0800465c:    00000000    ....    DCD    0
        0x08004660:    00000000    ....    DCD    0
        0x08004664:    00000000    ....    DCD    0
        0x08004668:    00000000    ....    DCD    0
        0x0800466c:    00000000    ....    DCD    0
        0x08004670:    00000000    ....    DCD    0
        0x08004674:    00000000    ....    DCD    0
        0x08004678:    00000000    ....    DCD    0
        0x0800467c:    00000000    ....    DCD    0
        0x08004680:    00000000    ....    DCD    0
        0x08004684:    00000000    ....    DCD    0
        0x08004688:    00000000    ....    DCD    0
        0x0800468c:    00000000    ....    DCD    0
        0x08004690:    00000000    ....    DCD    0
        0x08004694:    00000000    ....    DCD    0
        0x08004698:    00000000    ....    DCD    0
        0x0800469c:    00000000    ....    DCD    0
        0x080046a0:    00000000    ....    DCD    0
        0x080046a4:    00000000    ....    DCD    0
        0x080046a8:    00000000    ....    DCD    0
        0x080046ac:    00000000    ....    DCD    0
        0x080046b0:    00000000    ....    DCD    0
        0x080046b4:    00000000    ....    DCD    0
        0x080046b8:    00000000    ....    DCD    0
        0x080046bc:    00000000    ....    DCD    0
        0x080046c0:    00000000    ....    DCD    0
        0x080046c4:    00000000    ....    DCD    0
        0x080046c8:    00000000    ....    DCD    0
        0x080046cc:    00000000    ....    DCD    0
        0x080046d0:    00000000    ....    DCD    0
        0x080046d4:    00000000    ....    DCD    0
        0x080046d8:    00000000    ....    DCD    0
        0x080046dc:    00000000    ....    DCD    0
        0x080046e0:    00000000    ....    DCD    0
        0x080046e4:    00000000    ....    DCD    0
        0x080046e8:    00000000    ....    DCD    0
        0x080046ec:    00000000    ....    DCD    0
        0x080046f0:    00000000    ....    DCD    0
        0x080046f4:    00000000    ....    DCD    0
        0x080046f8:    00000000    ....    DCD    0
        0x080046fc:    00000000    ....    DCD    0
        0x08004700:    00000000    ....    DCD    0
        0x08004704:    00000000    ....    DCD    0
        0x08004708:    00000000    ....    DCD    0
        0x0800470c:    00000000    ....    DCD    0
        0x08004710:    00000000    ....    DCD    0
        0x08004714:    00000000    ....    DCD    0
        0x08004718:    00000000    ....    DCD    0
        0x0800471c:    00000000    ....    DCD    0
        0x08004720:    00000000    ....    DCD    0
        0x08004724:    00000000    ....    DCD    0
        0x08004728:    00000000    ....    DCD    0
        0x0800472c:    00000000    ....    DCD    0
        0x08004730:    00000000    ....    DCD    0
        0x08004734:    00000000    ....    DCD    0
        0x08004738:    00000000    ....    DCD    0
        0x0800473c:    00000000    ....    DCD    0
        0x08004740:    00000000    ....    DCD    0
        0x08004744:    00000000    ....    DCD    0
        0x08004748:    00000000    ....    DCD    0
        0x0800474c:    00000000    ....    DCD    0
        0x08004750:    00000000    ....    DCD    0
        0x08004754:    00000000    ....    DCD    0
        0x08004758:    00000000    ....    DCD    0
        0x0800475c:    00000000    ....    DCD    0
        0x08004760:    00000000    ....    DCD    0
        0x08004764:    00000000    ....    DCD    0
        0x08004768:    00000000    ....    DCD    0
        0x0800476c:    00000000    ....    DCD    0
        0x08004770:    00000000    ....    DCD    0
        0x08004774:    00000000    ....    DCD    0
        0x08004778:    00000000    ....    DCD    0
        0x0800477c:    00000000    ....    DCD    0
        0x08004780:    00000000    ....    DCD    0
        0x08004784:    00000000    ....    DCD    0
        0x08004788:    00000000    ....    DCD    0
        0x0800478c:    00000000    ....    DCD    0
        0x08004790:    00000000    ....    DCD    0
        0x08004794:    00000000    ....    DCD    0
        0x08004798:    00000000    ....    DCD    0
        0x0800479c:    00000000    ....    DCD    0
        0x080047a0:    00000000    ....    DCD    0
        0x080047a4:    00000000    ....    DCD    0
        0x080047a8:    00000000    ....    DCD    0
        0x080047ac:    00000000    ....    DCD    0
        0x080047b0:    00000000    ....    DCD    0
        0x080047b4:    00000000    ....    DCD    0
        0x080047b8:    00000000    ....    DCD    0
        0x080047bc:    00000000    ....    DCD    0
        0x080047c0:    00000000    ....    DCD    0
        0x080047c4:    00000000    ....    DCD    0
        0x080047c8:    00000000    ....    DCD    0
        0x080047cc:    00000000    ....    DCD    0
        0x080047d0:    00000000    ....    DCD    0
        0x080047d4:    00000000    ....    DCD    0
        0x080047d8:    00000000    ....    DCD    0
        0x080047dc:    00000000    ....    DCD    0
        0x080047e0:    00000000    ....    DCD    0
        0x080047e4:    00000000    ....    DCD    0
        0x080047e8:    00000000    ....    DCD    0
        0x080047ec:    00000000    ....    DCD    0
        0x080047f0:    00000000    ....    DCD    0
        0x080047f4:    00000000    ....    DCD    0
        0x080047f8:    00000000    ....    DCD    0
        0x080047fc:    00000000    ....    DCD    0
        0x08004800:    00000000    ....    DCD    0
        0x08004804:    00000000    ....    DCD    0
        0x08004808:    00000000    ....    DCD    0
        0x0800480c:    00000000    ....    DCD    0
        0x08004810:    00000000    ....    DCD    0
        0x08004814:    00000000    ....    DCD    0
        0x08004818:    00000000    ....    DCD    0
        0x0800481c:    00000000    ....    DCD    0
        0x08004820:    00000000    ....    DCD    0
        0x08004824:    00000000    ....    DCD    0
        0x08004828:    00000000    ....    DCD    0
        0x0800482c:    00000000    ....    DCD    0
        0x08004830:    00000000    ....    DCD    0
        0x08004834:    00000000    ....    DCD    0
        0x08004838:    00000000    ....    DCD    0
        0x0800483c:    00000000    ....    DCD    0
        0x08004840:    00000000    ....    DCD    0
        0x08004844:    00000000    ....    DCD    0
        0x08004848:    00000000    ....    DCD    0
        0x0800484c:    00000000    ....    DCD    0
        0x08004850:    00000000    ....    DCD    0
        0x08004854:    00000000    ....    DCD    0
        0x08004858:    00000000    ....    DCD    0
        0x0800485c:    00000000    ....    DCD    0
        0x08004860:    00000000    ....    DCD    0
        0x08004864:    00000000    ....    DCD    0
        0x08004868:    00000000    ....    DCD    0
        0x0800486c:    00000000    ....    DCD    0
        0x08004870:    00000000    ....    DCD    0
        0x08004874:    00000000    ....    DCD    0
        0x08004878:    00000000    ....    DCD    0
        0x0800487c:    00000000    ....    DCD    0
        0x08004880:    00000000    ....    DCD    0
        0x08004884:    00000000    ....    DCD    0
        0x08004888:    00000000    ....    DCD    0
        0x0800488c:    00000000    ....    DCD    0
        0x08004890:    00000000    ....    DCD    0
        0x08004894:    00000000    ....    DCD    0
        0x08004898:    00000000    ....    DCD    0
        0x0800489c:    00000000    ....    DCD    0
        0x080048a0:    00000000    ....    DCD    0
        0x080048a4:    00000000    ....    DCD    0
        0x080048a8:    00000000    ....    DCD    0
        0x080048ac:    00000000    ....    DCD    0
        0x080048b0:    00000000    ....    DCD    0
        0x080048b4:    00000000    ....    DCD    0
        0x080048b8:    00000000    ....    DCD    0
        0x080048bc:    00000000    ....    DCD    0
        0x080048c0:    00000000    ....    DCD    0
        0x080048c4:    00000000    ....    DCD    0
        0x080048c8:    00000000    ....    DCD    0
        0x080048cc:    00000000    ....    DCD    0
        0x080048d0:    00000000    ....    DCD    0
        0x080048d4:    00000000    ....    DCD    0
        0x080048d8:    00000000    ....    DCD    0
        0x080048dc:    00000000    ....    DCD    0
        0x080048e0:    00000000    ....    DCD    0
        0x080048e4:    00000000    ....    DCD    0
        0x080048e8:    00000000    ....    DCD    0
        0x080048ec:    00000000    ....    DCD    0
        0x080048f0:    00000000    ....    DCD    0
        0x080048f4:    00000000    ....    DCD    0
        0x080048f8:    00000000    ....    DCD    0
        0x080048fc:    00000000    ....    DCD    0
        0x08004900:    00000000    ....    DCD    0
        0x08004904:    00000000    ....    DCD    0
        0x08004908:    00000000    ....    DCD    0
        0x0800490c:    00000000    ....    DCD    0
        0x08004910:    00000000    ....    DCD    0
        0x08004914:    00000000    ....    DCD    0
        0x08004918:    00000000    ....    DCD    0
        0x0800491c:    00000000    ....    DCD    0
        0x08004920:    00000000    ....    DCD    0
        0x08004924:    00000000    ....    DCD    0
        0x08004928:    00000000    ....    DCD    0
        0x0800492c:    00000000    ....    DCD    0
        0x08004930:    00000000    ....    DCD    0
        0x08004934:    00000000    ....    DCD    0
        0x08004938:    00000000    ....    DCD    0
        0x0800493c:    00000000    ....    DCD    0
        0x08004940:    00000000    ....    DCD    0
        0x08004944:    00000000    ....    DCD    0
        0x08004948:    00000000    ....    DCD    0
        0x0800494c:    00000000    ....    DCD    0
        0x08004950:    00000000    ....    DCD    0
        0x08004954:    00000000    ....    DCD    0
        0x08004958:    00000000    ....    DCD    0
        0x0800495c:    00000000    ....    DCD    0
        0x08004960:    00000000    ....    DCD    0
        0x08004964:    00000000    ....    DCD    0
        0x08004968:    00000000    ....    DCD    0
        0x0800496c:    00000000    ....    DCD    0
        0x08004970:    00000000    ....    DCD    0
        0x08004974:    00000000    ....    DCD    0
        0x08004978:    00000000    ....    DCD    0
        0x0800497c:    00000000    ....    DCD    0
        0x08004980:    00000000    ....    DCD    0
        0x08004984:    00000000    ....    DCD    0
        0x08004988:    00000000    ....    DCD    0
        0x0800498c:    00000000    ....    DCD    0
        0x08004990:    00000000    ....    DCD    0
        0x08004994:    00000000    ....    DCD    0
        0x08004998:    00000000    ....    DCD    0
        0x0800499c:    00000000    ....    DCD    0
        0x080049a0:    00000000    ....    DCD    0
        0x080049a4:    00000000    ....    DCD    0
        0x080049a8:    00000000    ....    DCD    0
        0x080049ac:    00000000    ....    DCD    0
        0x080049b0:    00000000    ....    DCD    0
        0x080049b4:    00000000    ....    DCD    0
        0x080049b8:    00000000    ....    DCD    0
        0x080049bc:    00000000    ....    DCD    0
        0x080049c0:    00000000    ....    DCD    0
        0x080049c4:    00000000    ....    DCD    0
        0x080049c8:    00000000    ....    DCD    0
        0x080049cc:    00000000    ....    DCD    0
        0x080049d0:    00000000    ....    DCD    0
        0x080049d4:    00000000    ....    DCD    0
        0x080049d8:    00000000    ....    DCD    0
        0x080049dc:    00000000    ....    DCD    0
        0x080049e0:    00000000    ....    DCD    0
        0x080049e4:    00000000    ....    DCD    0
        0x080049e8:    00000000    ....    DCD    0
        0x080049ec:    00000000    ....    DCD    0
        0x080049f0:    00000000    ....    DCD    0
        0x080049f4:    00000000    ....    DCD    0
        0x080049f8:    00000000    ....    DCD    0
        0x080049fc:    00000000    ....    DCD    0
        0x08004a00:    00000000    ....    DCD    0
        0x08004a04:    00000000    ....    DCD    0
        0x08004a08:    00000000    ....    DCD    0
        0x08004a0c:    00000000    ....    DCD    0
        0x08004a10:    00000000    ....    DCD    0
        0x08004a14:    00000000    ....    DCD    0
        0x08004a18:    00000000    ....    DCD    0
        0x08004a1c:    00000000    ....    DCD    0
        0x08004a20:    00000000    ....    DCD    0
        0x08004a24:    00000000    ....    DCD    0
        0x08004a28:    00000000    ....    DCD    0
        0x08004a2c:    00000000    ....    DCD    0
        0x08004a30:    00000000    ....    DCD    0
        0x08004a34:    00000000    ....    DCD    0
        0x08004a38:    00000000    ....    DCD    0
        0x08004a3c:    00000000    ....    DCD    0
        0x08004a40:    00000000    ....    DCD    0
        0x08004a44:    00000000    ....    DCD    0
        0x08004a48:    00000000    ....    DCD    0
        0x08004a4c:    00000000    ....    DCD    0
        0x08004a50:    00000000    ....    DCD    0
        0x08004a54:    00000000    ....    DCD    0
        0x08004a58:    00000000    ....    DCD    0
        0x08004a5c:    00000000    ....    DCD    0
        0x08004a60:    00000000    ....    DCD    0
        0x08004a64:    00000000    ....    DCD    0
        0x08004a68:    00000000    ....    DCD    0
        0x08004a6c:    00000000    ....    DCD    0
        0x08004a70:    00000000    ....    DCD    0
        0x08004a74:    00000000    ....    DCD    0
        0x08004a78:    00000000    ....    DCD    0
        0x08004a7c:    00000000    ....    DCD    0
        0x08004a80:    00000000    ....    DCD    0
        0x08004a84:    00000000    ....    DCD    0
        0x08004a88:    00000000    ....    DCD    0
        0x08004a8c:    00000000    ....    DCD    0
        0x08004a90:    00000000    ....    DCD    0
        0x08004a94:    00000000    ....    DCD    0
        0x08004a98:    00000000    ....    DCD    0
        0x08004a9c:    00000000    ....    DCD    0
        0x08004aa0:    00000000    ....    DCD    0
        0x08004aa4:    00000000    ....    DCD    0
        0x08004aa8:    00000000    ....    DCD    0
        0x08004aac:    00000000    ....    DCD    0
        0x08004ab0:    00000000    ....    DCD    0
        0x08004ab4:    00000000    ....    DCD    0
        0x08004ab8:    00000000    ....    DCD    0
        0x08004abc:    00000000    ....    DCD    0
        0x08004ac0:    00000000    ....    DCD    0
        0x08004ac4:    00000000    ....    DCD    0
        0x08004ac8:    00000000    ....    DCD    0
        0x08004acc:    00000000    ....    DCD    0
        0x08004ad0:    00000000    ....    DCD    0
        0x08004ad4:    00000000    ....    DCD    0
        0x08004ad8:    00000000    ....    DCD    0
        0x08004adc:    00000000    ....    DCD    0
        0x08004ae0:    00000000    ....    DCD    0
        0x08004ae4:    00000000    ....    DCD    0
        0x08004ae8:    00000000    ....    DCD    0
        0x08004aec:    00000000    ....    DCD    0
        0x08004af0:    00000000    ....    DCD    0
        0x08004af4:    00000000    ....    DCD    0
        0x08004af8:    00000000    ....    DCD    0
        0x08004afc:    00000000    ....    DCD    0
        0x08004b00:    00000000    ....    DCD    0
        0x08004b04:    00000000    ....    DCD    0
        0x08004b08:    00000000    ....    DCD    0
        0x08004b0c:    00000000    ....    DCD    0
        0x08004b10:    00000000    ....    DCD    0
        0x08004b14:    00000000    ....    DCD    0
        0x08004b18:    00000000    ....    DCD    0
        0x08004b1c:    00000000    ....    DCD    0
        0x08004b20:    00000000    ....    DCD    0
        0x08004b24:    00000000    ....    DCD    0
        0x08004b28:    00000000    ....    DCD    0
        0x08004b2c:    00000000    ....    DCD    0
        0x08004b30:    00000000    ....    DCD    0
        0x08004b34:    00000000    ....    DCD    0
        0x08004b38:    00000000    ....    DCD    0
        0x08004b3c:    00000000    ....    DCD    0
        0x08004b40:    00000000    ....    DCD    0
        0x08004b44:    00000000    ....    DCD    0
        0x08004b48:    00000000    ....    DCD    0
        0x08004b4c:    00000000    ....    DCD    0
        0x08004b50:    00000000    ....    DCD    0
        0x08004b54:    00000000    ....    DCD    0
        0x08004b58:    00000000    ....    DCD    0
        0x08004b5c:    00000000    ....    DCD    0
        0x08004b60:    00000000    ....    DCD    0
        0x08004b64:    00000000    ....    DCD    0
        0x08004b68:    00000000    ....    DCD    0
        0x08004b6c:    00000000    ....    DCD    0
        0x08004b70:    00000000    ....    DCD    0
        0x08004b74:    00000000    ....    DCD    0
        0x08004b78:    00000000    ....    DCD    0
        0x08004b7c:    00000000    ....    DCD    0
        0x08004b80:    00000000    ....    DCD    0
        0x08004b84:    00000000    ....    DCD    0
        0x08004b88:    00000000    ....    DCD    0
        0x08004b8c:    00000000    ....    DCD    0
        0x08004b90:    00000000    ....    DCD    0
        0x08004b94:    00000000    ....    DCD    0
        0x08004b98:    00000000    ....    DCD    0
        0x08004b9c:    00000000    ....    DCD    0
        0x08004ba0:    00000000    ....    DCD    0
        0x08004ba4:    00000000    ....    DCD    0
        0x08004ba8:    00000000    ....    DCD    0
        0x08004bac:    00000000    ....    DCD    0
        0x08004bb0:    00000000    ....    DCD    0
        0x08004bb4:    00000000    ....    DCD    0
        0x08004bb8:    00000000    ....    DCD    0
        0x08004bbc:    00000000    ....    DCD    0
        0x08004bc0:    00000000    ....    DCD    0
        0x08004bc4:    00000000    ....    DCD    0
        0x08004bc8:    00000000    ....    DCD    0
        0x08004bcc:    00000000    ....    DCD    0
        0x08004bd0:    00000000    ....    DCD    0
        0x08004bd4:    00000000    ....    DCD    0
        0x08004bd8:    00000000    ....    DCD    0
        0x08004bdc:    00000000    ....    DCD    0
        0x08004be0:    00000000    ....    DCD    0
        0x08004be4:    00000000    ....    DCD    0
        0x08004be8:    00000000    ....    DCD    0
        0x08004bec:    00000000    ....    DCD    0
        0x08004bf0:    00000000    ....    DCD    0
        0x08004bf4:    00000000    ....    DCD    0
        0x08004bf8:    00000000    ....    DCD    0
        0x08004bfc:    00000000    ....    DCD    0
        0x08004c00:    00000000    ....    DCD    0
        0x08004c04:    00000000    ....    DCD    0
        0x08004c08:    00000000    ....    DCD    0
        0x08004c0c:    00000000    ....    DCD    0
        0x08004c10:    00000000    ....    DCD    0
        0x08004c14:    00000000    ....    DCD    0
        0x08004c18:    00000000    ....    DCD    0
        0x08004c1c:    00000000    ....    DCD    0
        0x08004c20:    00000000    ....    DCD    0
        0x08004c24:    00000000    ....    DCD    0
        0x08004c28:    00000000    ....    DCD    0
        0x08004c2c:    00000000    ....    DCD    0
        0x08004c30:    00000000    ....    DCD    0
        0x08004c34:    00000000    ....    DCD    0
        0x08004c38:    00000000    ....    DCD    0
        0x08004c3c:    00000000    ....    DCD    0
        0x08004c40:    00000000    ....    DCD    0
        0x08004c44:    00000000    ....    DCD    0
        0x08004c48:    00000000    ....    DCD    0
        0x08004c4c:    00000000    ....    DCD    0
        0x08004c50:    00000000    ....    DCD    0
        0x08004c54:    00000000    ....    DCD    0
        0x08004c58:    00000000    ....    DCD    0
        0x08004c5c:    00000000    ....    DCD    0
        0x08004c60:    00000000    ....    DCD    0
        0x08004c64:    00000000    ....    DCD    0
        0x08004c68:    00000000    ....    DCD    0
        0x08004c6c:    00000000    ....    DCD    0
        0x08004c70:    00000000    ....    DCD    0
        0x08004c74:    00000000    ....    DCD    0
        0x08004c78:    00000000    ....    DCD    0
        0x08004c7c:    00000000    ....    DCD    0
        0x08004c80:    00000000    ....    DCD    0
        0x08004c84:    00000000    ....    DCD    0
        0x08004c88:    00000000    ....    DCD    0
        0x08004c8c:    00000000    ....    DCD    0
        0x08004c90:    00000000    ....    DCD    0
        0x08004c94:    00000000    ....    DCD    0
        0x08004c98:    00000000    ....    DCD    0
        0x08004c9c:    00000000    ....    DCD    0
        0x08004ca0:    00000000    ....    DCD    0
        0x08004ca4:    00000000    ....    DCD    0
        0x08004ca8:    00000000    ....    DCD    0
        0x08004cac:    00000000    ....    DCD    0
        0x08004cb0:    00000000    ....    DCD    0
        0x08004cb4:    00000000    ....    DCD    0
        0x08004cb8:    00000000    ....    DCD    0
        0x08004cbc:    00000000    ....    DCD    0
        0x08004cc0:    00000000    ....    DCD    0
        0x08004cc4:    00000000    ....    DCD    0
        0x08004cc8:    00000000    ....    DCD    0
        0x08004ccc:    00000000    ....    DCD    0
        0x08004cd0:    00000000    ....    DCD    0
        0x08004cd4:    00000000    ....    DCD    0
        0x08004cd8:    00000000    ....    DCD    0
        0x08004cdc:    00000000    ....    DCD    0
        0x08004ce0:    00000000    ....    DCD    0
        0x08004ce4:    00000000    ....    DCD    0
        0x08004ce8:    00000000    ....    DCD    0
        0x08004cec:    00000000    ....    DCD    0
        0x08004cf0:    00000000    ....    DCD    0
        0x08004cf4:    00000000    ....    DCD    0
        0x08004cf8:    00000000    ....    DCD    0
        0x08004cfc:    00000000    ....    DCD    0
        0x08004d00:    00000000    ....    DCD    0
        0x08004d04:    00000000    ....    DCD    0
        0x08004d08:    00000000    ....    DCD    0
        0x08004d0c:    00000000    ....    DCD    0
        0x08004d10:    00000000    ....    DCD    0
        0x08004d14:    00000000    ....    DCD    0
        0x08004d18:    00000000    ....    DCD    0
        0x08004d1c:    00000000    ....    DCD    0
        0x08004d20:    00000000    ....    DCD    0
        0x08004d24:    00000000    ....    DCD    0
        0x08004d28:    00000000    ....    DCD    0
        0x08004d2c:    00000000    ....    DCD    0
        0x08004d30:    00000000    ....    DCD    0
        0x08004d34:    00000000    ....    DCD    0
        0x08004d38:    00000000    ....    DCD    0
        0x08004d3c:    00000000    ....    DCD    0
        0x08004d40:    00000000    ....    DCD    0
        0x08004d44:    00000000    ....    DCD    0
        0x08004d48:    00000000    ....    DCD    0
        0x08004d4c:    00000000    ....    DCD    0
        0x08004d50:    00000000    ....    DCD    0
        0x08004d54:    00000000    ....    DCD    0
        0x08004d58:    00000000    ....    DCD    0
        0x08004d5c:    00000000    ....    DCD    0
        0x08004d60:    00000000    ....    DCD    0
        0x08004d64:    00000000    ....    DCD    0
        0x08004d68:    00000000    ....    DCD    0
        0x08004d6c:    00000000    ....    DCD    0
        0x08004d70:    00000000    ....    DCD    0
        0x08004d74:    00000000    ....    DCD    0
        0x08004d78:    00000000    ....    DCD    0
        0x08004d7c:    00000000    ....    DCD    0
        0x08004d80:    00000000    ....    DCD    0
        0x08004d84:    00000000    ....    DCD    0
        0x08004d88:    00000000    ....    DCD    0
        0x08004d8c:    00000000    ....    DCD    0
        0x08004d90:    00000000    ....    DCD    0
        0x08004d94:    00000000    ....    DCD    0
        0x08004d98:    00000000    ....    DCD    0
        0x08004d9c:    00000000    ....    DCD    0
        0x08004da0:    00000000    ....    DCD    0
        0x08004da4:    00000000    ....    DCD    0
        0x08004da8:    00000000    ....    DCD    0
        0x08004dac:    00000000    ....    DCD    0
        0x08004db0:    00000000    ....    DCD    0
        0x08004db4:    00000000    ....    DCD    0
        0x08004db8:    00000000    ....    DCD    0
        0x08004dbc:    00000000    ....    DCD    0
        0x08004dc0:    00000000    ....    DCD    0
        0x08004dc4:    00000000    ....    DCD    0
        0x08004dc8:    00000000    ....    DCD    0
        0x08004dcc:    00000000    ....    DCD    0
        0x08004dd0:    00000000    ....    DCD    0
        0x08004dd4:    00000000    ....    DCD    0
        0x08004dd8:    00000000    ....    DCD    0
        0x08004ddc:    00000000    ....    DCD    0
        0x08004de0:    00000000    ....    DCD    0
        0x08004de4:    00000000    ....    DCD    0
        0x08004de8:    00000000    ....    DCD    0
        0x08004dec:    00000000    ....    DCD    0
        0x08004df0:    00000000    ....    DCD    0
        0x08004df4:    00000000    ....    DCD    0
        0x08004df8:    00000000    ....    DCD    0
        0x08004dfc:    00000000    ....    DCD    0
        0x08004e00:    00000000    ....    DCD    0
        0x08004e04:    00000000    ....    DCD    0
        0x08004e08:    00000000    ....    DCD    0
        0x08004e0c:    00000000    ....    DCD    0
        0x08004e10:    00000000    ....    DCD    0
        0x08004e14:    00000000    ....    DCD    0
        0x08004e18:    00000000    ....    DCD    0
        0x08004e1c:    00000000    ....    DCD    0
        0x08004e20:    00000000    ....    DCD    0
        0x08004e24:    00000000    ....    DCD    0
        0x08004e28:    00000000    ....    DCD    0
        0x08004e2c:    00000000    ....    DCD    0
        0x08004e30:    00000000    ....    DCD    0
        0x08004e34:    00000000    ....    DCD    0
        0x08004e38:    00000000    ....    DCD    0
        0x08004e3c:    00000000    ....    DCD    0
        0x08004e40:    00000000    ....    DCD    0
        0x08004e44:    00000000    ....    DCD    0
        0x08004e48:    00000000    ....    DCD    0
        0x08004e4c:    00000000    ....    DCD    0
        0x08004e50:    00000000    ....    DCD    0
        0x08004e54:    00000000    ....    DCD    0
        0x08004e58:    00000000    ....    DCD    0
        0x08004e5c:    00000000    ....    DCD    0
        0x08004e60:    00000000    ....    DCD    0
        0x08004e64:    00000000    ....    DCD    0
        0x08004e68:    00000000    ....    DCD    0
        0x08004e6c:    00000000    ....    DCD    0
        0x08004e70:    00000000    ....    DCD    0
        0x08004e74:    00000000    ....    DCD    0
        0x08004e78:    00000000    ....    DCD    0
        0x08004e7c:    00000000    ....    DCD    0
        0x08004e80:    00000000    ....    DCD    0
        0x08004e84:    00000000    ....    DCD    0
        0x08004e88:    00000000    ....    DCD    0
        0x08004e8c:    00000000    ....    DCD    0
        0x08004e90:    00000000    ....    DCD    0
        0x08004e94:    00000000    ....    DCD    0
        0x08004e98:    00000000    ....    DCD    0
        0x08004e9c:    00000000    ....    DCD    0
        0x08004ea0:    00000000    ....    DCD    0
        0x08004ea4:    00000000    ....    DCD    0
        0x08004ea8:    00000000    ....    DCD    0
        0x08004eac:    00000000    ....    DCD    0
        0x08004eb0:    00000000    ....    DCD    0
        0x08004eb4:    00000000    ....    DCD    0
        0x08004eb8:    00000000    ....    DCD    0
        0x08004ebc:    00000000    ....    DCD    0
        0x08004ec0:    00000000    ....    DCD    0
        0x08004ec4:    00000000    ....    DCD    0
        0x08004ec8:    00000000    ....    DCD    0
        0x08004ecc:    00000000    ....    DCD    0
        0x08004ed0:    00000000    ....    DCD    0
        0x08004ed4:    00000000    ....    DCD    0
        0x08004ed8:    00000000    ....    DCD    0
        0x08004edc:    00000000    ....    DCD    0
        0x08004ee0:    00000000    ....    DCD    0
        0x08004ee4:    00000000    ....    DCD    0
        0x08004ee8:    00000000    ....    DCD    0
        0x08004eec:    00000000    ....    DCD    0
        0x08004ef0:    00000000    ....    DCD    0
        0x08004ef4:    00000000    ....    DCD    0
        0x08004ef8:    00000000    ....    DCD    0
        0x08004efc:    00000000    ....    DCD    0
        0x08004f00:    00000000    ....    DCD    0
        0x08004f04:    00000000    ....    DCD    0
        0x08004f08:    00000000    ....    DCD    0
        0x08004f0c:    00000000    ....    DCD    0
        0x08004f10:    00000000    ....    DCD    0
        0x08004f14:    00000000    ....    DCD    0
        0x08004f18:    00000000    ....    DCD    0
        0x08004f1c:    00000000    ....    DCD    0
        0x08004f20:    00000000    ....    DCD    0
        0x08004f24:    00000000    ....    DCD    0
        0x08004f28:    00000000    ....    DCD    0
        0x08004f2c:    00000000    ....    DCD    0
        0x08004f30:    00000000    ....    DCD    0
        0x08004f34:    00000000    ....    DCD    0
        0x08004f38:    00000000    ....    DCD    0
        0x08004f3c:    00000000    ....    DCD    0
        0x08004f40:    00000000    ....    DCD    0
        0x08004f44:    00000000    ....    DCD    0
        0x08004f48:    00000000    ....    DCD    0
        0x08004f4c:    00000000    ....    DCD    0
        0x08004f50:    00000000    ....    DCD    0
        0x08004f54:    00000000    ....    DCD    0
        0x08004f58:    00000000    ....    DCD    0
        0x08004f5c:    00000000    ....    DCD    0
        0x08004f60:    00000000    ....    DCD    0
        0x08004f64:    00000000    ....    DCD    0
        0x08004f68:    00000000    ....    DCD    0
        0x08004f6c:    00000000    ....    DCD    0
        0x08004f70:    00000000    ....    DCD    0
        0x08004f74:    00000000    ....    DCD    0
        0x08004f78:    00000000    ....    DCD    0
        0x08004f7c:    00000000    ....    DCD    0
        0x08004f80:    00000000    ....    DCD    0
        0x08004f84:    00000000    ....    DCD    0
        0x08004f88:    00000000    ....    DCD    0
        0x08004f8c:    00000000    ....    DCD    0
        0x08004f90:    00000000    ....    DCD    0
        0x08004f94:    00000000    ....    DCD    0
        0x08004f98:    00000000    ....    DCD    0
        0x08004f9c:    00000000    ....    DCD    0
        0x08004fa0:    00000000    ....    DCD    0
        0x08004fa4:    00000000    ....    DCD    0
        0x08004fa8:    00000000    ....    DCD    0
        0x08004fac:    00000000    ....    DCD    0
        0x08004fb0:    00000000    ....    DCD    0
        0x08004fb4:    00000000    ....    DCD    0
        0x08004fb8:    00000000    ....    DCD    0
        0x08004fbc:    00000000    ....    DCD    0
        0x08004fc0:    00000000    ....    DCD    0
        0x08004fc4:    00000000    ....    DCD    0
        0x08004fc8:    00000000    ....    DCD    0
        0x08004fcc:    00000000    ....    DCD    0
        0x08004fd0:    00000000    ....    DCD    0
        0x08004fd4:    00000000    ....    DCD    0
        0x08004fd8:    00000000    ....    DCD    0
        0x08004fdc:    00000000    ....    DCD    0
        0x08004fe0:    00000000    ....    DCD    0
        0x08004fe4:    00000000    ....    DCD    0
        0x08004fe8:    00000000    ....    DCD    0
        0x08004fec:    00000000    ....    DCD    0
        0x08004ff0:    00000000    ....    DCD    0
        0x08004ff4:    00000000    ....    DCD    0
        0x08004ff8:    00000000    ....    DCD    0
        0x08004ffc:    00000000    ....    DCD    0
        0x08005000:    00000000    ....    DCD    0
        0x08005004:    00000000    ....    DCD    0
        0x08005008:    00000000    ....    DCD    0
        0x0800500c:    00000000    ....    DCD    0
        0x08005010:    00000000    ....    DCD    0
        0x08005014:    00000000    ....    DCD    0
        0x08005018:    00000000    ....    DCD    0
        0x0800501c:    00000000    ....    DCD    0
        0x08005020:    00000000    ....    DCD    0
        0x08005024:    00000000    ....    DCD    0
        0x08005028:    00000000    ....    DCD    0
        0x0800502c:    00000000    ....    DCD    0
        0x08005030:    00000000    ....    DCD    0
        0x08005034:    00000000    ....    DCD    0
        0x08005038:    00000000    ....    DCD    0
        0x0800503c:    00000000    ....    DCD    0
        0x08005040:    00000000    ....    DCD    0
        0x08005044:    00000000    ....    DCD    0
        0x08005048:    00000000    ....    DCD    0
        0x0800504c:    00000000    ....    DCD    0
        0x08005050:    00000000    ....    DCD    0
        0x08005054:    00000000    ....    DCD    0
        0x08005058:    00000000    ....    DCD    0
        0x0800505c:    00000000    ....    DCD    0
        0x08005060:    00000000    ....    DCD    0
        0x08005064:    00000000    ....    DCD    0
        0x08005068:    00000000    ....    DCD    0
        0x0800506c:    00000000    ....    DCD    0
        0x08005070:    00000000    ....    DCD    0
        0x08005074:    00000000    ....    DCD    0
        0x08005078:    00000000    ....    DCD    0
        0x0800507c:    00000000    ....    DCD    0
        0x08005080:    00000000    ....    DCD    0
        0x08005084:    00000000    ....    DCD    0
        0x08005088:    00000000    ....    DCD    0
        0x0800508c:    00000000    ....    DCD    0
        0x08005090:    00000000    ....    DCD    0
        0x08005094:    00000000    ....    DCD    0
        0x08005098:    00000000    ....    DCD    0
        0x0800509c:    00000000    ....    DCD    0
        0x080050a0:    00000000    ....    DCD    0
        0x080050a4:    00000000    ....    DCD    0
        0x080050a8:    00000000    ....    DCD    0
        0x080050ac:    00000000    ....    DCD    0
        0x080050b0:    00000000    ....    DCD    0
        0x080050b4:    00000000    ....    DCD    0
        0x080050b8:    00000000    ....    DCD    0
        0x080050bc:    00000000    ....    DCD    0
        0x080050c0:    00000000    ....    DCD    0
        0x080050c4:    00000000    ....    DCD    0
        0x080050c8:    00000000    ....    DCD    0
        0x080050cc:    00000000    ....    DCD    0
        0x080050d0:    00000000    ....    DCD    0
        0x080050d4:    00000000    ....    DCD    0
        0x080050d8:    00000000    ....    DCD    0
        0x080050dc:    00000000    ....    DCD    0
        0x080050e0:    00000000    ....    DCD    0
        0x080050e4:    00000000    ....    DCD    0
        0x080050e8:    00000000    ....    DCD    0
        0x080050ec:    00000000    ....    DCD    0
        0x080050f0:    00000000    ....    DCD    0
        0x080050f4:    00000000    ....    DCD    0
        0x080050f8:    00000000    ....    DCD    0
        0x080050fc:    00000000    ....    DCD    0
        0x08005100:    00000000    ....    DCD    0
        0x08005104:    00000000    ....    DCD    0
        0x08005108:    00000000    ....    DCD    0
        0x0800510c:    00000000    ....    DCD    0
        0x08005110:    00000000    ....    DCD    0
        0x08005114:    00000000    ....    DCD    0
        0x08005118:    00000000    ....    DCD    0
        0x0800511c:    00000000    ....    DCD    0
        0x08005120:    00000000    ....    DCD    0
        0x08005124:    00000000    ....    DCD    0
        0x08005128:    00000000    ....    DCD    0
        0x0800512c:    00000000    ....    DCD    0
        0x08005130:    00000000    ....    DCD    0
        0x08005134:    00000000    ....    DCD    0
        0x08005138:    00000000    ....    DCD    0
        0x0800513c:    00000000    ....    DCD    0
        0x08005140:    00000000    ....    DCD    0
        0x08005144:    00000000    ....    DCD    0
        0x08005148:    00000000    ....    DCD    0
        0x0800514c:    00000000    ....    DCD    0
        0x08005150:    00000000    ....    DCD    0
        0x08005154:    00000000    ....    DCD    0
        0x08005158:    00000000    ....    DCD    0
        0x0800515c:    00000000    ....    DCD    0
        0x08005160:    00000000    ....    DCD    0
        0x08005164:    00000000    ....    DCD    0
        0x08005168:    00000000    ....    DCD    0
        0x0800516c:    00000000    ....    DCD    0
        0x08005170:    00000000    ....    DCD    0
        0x08005174:    00000000    ....    DCD    0
        0x08005178:    00000000    ....    DCD    0
        0x0800517c:    00000000    ....    DCD    0
        0x08005180:    00000000    ....    DCD    0
        0x08005184:    00000000    ....    DCD    0
        0x08005188:    00000000    ....    DCD    0
        0x0800518c:    00000000    ....    DCD    0
        0x08005190:    00000000    ....    DCD    0
        0x08005194:    00000000    ....    DCD    0
        0x08005198:    00000000    ....    DCD    0
        0x0800519c:    00000000    ....    DCD    0
        0x080051a0:    00000000    ....    DCD    0
        0x080051a4:    00000000    ....    DCD    0
        0x080051a8:    00000000    ....    DCD    0
        0x080051ac:    00000000    ....    DCD    0
        0x080051b0:    00000000    ....    DCD    0
        0x080051b4:    00000000    ....    DCD    0
        0x080051b8:    00000000    ....    DCD    0
        0x080051bc:    00000000    ....    DCD    0
        0x080051c0:    00000000    ....    DCD    0
        0x080051c4:    00000000    ....    DCD    0
        0x080051c8:    00000000    ....    DCD    0
        0x080051cc:    00000000    ....    DCD    0
        0x080051d0:    00000000    ....    DCD    0
        0x080051d4:    00000000    ....    DCD    0
        0x080051d8:    00000000    ....    DCD    0
        0x080051dc:    00000000    ....    DCD    0
        0x080051e0:    00000000    ....    DCD    0
        0x080051e4:    00000000    ....    DCD    0
        0x080051e8:    00000000    ....    DCD    0
        0x080051ec:    00000000    ....    DCD    0
        0x080051f0:    00000000    ....    DCD    0
        0x080051f4:    00000000    ....    DCD    0
        0x080051f8:    00000000    ....    DCD    0
        0x080051fc:    00000000    ....    DCD    0
        0x08005200:    00000000    ....    DCD    0
        0x08005204:    00000000    ....    DCD    0
        0x08005208:    00000000    ....    DCD    0
        0x0800520c:    00000000    ....    DCD    0
        0x08005210:    00000000    ....    DCD    0
        0x08005214:    00000000    ....    DCD    0
        0x08005218:    00000000    ....    DCD    0
        0x0800521c:    00000000    ....    DCD    0
        0x08005220:    00000000    ....    DCD    0
        0x08005224:    00000000    ....    DCD    0
        0x08005228:    00000000    ....    DCD    0
        0x0800522c:    00000000    ....    DCD    0
        0x08005230:    00000000    ....    DCD    0
        0x08005234:    00000000    ....    DCD    0
        0x08005238:    00000000    ....    DCD    0
        0x0800523c:    00000000    ....    DCD    0
        0x08005240:    00000000    ....    DCD    0
        0x08005244:    00000000    ....    DCD    0
        0x08005248:    00000000    ....    DCD    0
        0x0800524c:    00000000    ....    DCD    0
        0x08005250:    00000000    ....    DCD    0
        0x08005254:    00000000    ....    DCD    0
        0x08005258:    00000000    ....    DCD    0
        0x0800525c:    00000000    ....    DCD    0
        0x08005260:    00000000    ....    DCD    0
        0x08005264:    00000000    ....    DCD    0
        0x08005268:    00000000    ....    DCD    0
        0x0800526c:    00000000    ....    DCD    0
        0x08005270:    00000000    ....    DCD    0
        0x08005274:    00000000    ....    DCD    0
        0x08005278:    00000000    ....    DCD    0
        0x0800527c:    00000000    ....    DCD    0
        0x08005280:    00000000    ....    DCD    0
        0x08005284:    00000000    ....    DCD    0
        0x08005288:    00000000    ....    DCD    0
        0x0800528c:    00000000    ....    DCD    0
        0x08005290:    00000000    ....    DCD    0
        0x08005294:    00000000    ....    DCD    0
        0x08005298:    00000000    ....    DCD    0
        0x0800529c:    00000000    ....    DCD    0
        0x080052a0:    00000000    ....    DCD    0
        0x080052a4:    00000000    ....    DCD    0
        0x080052a8:    00000000    ....    DCD    0
        0x080052ac:    00000000    ....    DCD    0
        0x080052b0:    00000000    ....    DCD    0
        0x080052b4:    00000000    ....    DCD    0
        0x080052b8:    00000000    ....    DCD    0
        0x080052bc:    00000000    ....    DCD    0
        0x080052c0:    00000000    ....    DCD    0
        0x080052c4:    00000000    ....    DCD    0
        0x080052c8:    00000000    ....    DCD    0
        0x080052cc:    00000000    ....    DCD    0
        0x080052d0:    00000000    ....    DCD    0
        0x080052d4:    00000000    ....    DCD    0
        0x080052d8:    00000000    ....    DCD    0
        0x080052dc:    00000000    ....    DCD    0
        0x080052e0:    00000000    ....    DCD    0
        0x080052e4:    00000000    ....    DCD    0
        0x080052e8:    00000000    ....    DCD    0
        0x080052ec:    00000000    ....    DCD    0
        0x080052f0:    00000000    ....    DCD    0
        0x080052f4:    00000000    ....    DCD    0
        0x080052f8:    00000000    ....    DCD    0
        0x080052fc:    00000000    ....    DCD    0
        0x08005300:    00000000    ....    DCD    0
        0x08005304:    00000000    ....    DCD    0
        0x08005308:    00000000    ....    DCD    0
        0x0800530c:    00000000    ....    DCD    0
        0x08005310:    00000000    ....    DCD    0
        0x08005314:    00000000    ....    DCD    0
        0x08005318:    00000000    ....    DCD    0
        0x0800531c:    00000000    ....    DCD    0
        0x08005320:    00000000    ....    DCD    0
        0x08005324:    00000000    ....    DCD    0
        0x08005328:    00000000    ....    DCD    0
        0x0800532c:    00000000    ....    DCD    0
        0x08005330:    00000000    ....    DCD    0
        0x08005334:    00000000    ....    DCD    0
        0x08005338:    00000000    ....    DCD    0
        0x0800533c:    00000000    ....    DCD    0
        0x08005340:    00000000    ....    DCD    0
        0x08005344:    00000000    ....    DCD    0
        0x08005348:    00000000    ....    DCD    0
        0x0800534c:    00000000    ....    DCD    0
        0x08005350:    00000000    ....    DCD    0
        0x08005354:    00000000    ....    DCD    0
        0x08005358:    00000000    ....    DCD    0
        0x0800535c:    00000000    ....    DCD    0
        0x08005360:    00000000    ....    DCD    0
        0x08005364:    00000000    ....    DCD    0
        0x08005368:    00000000    ....    DCD    0
        0x0800536c:    00000000    ....    DCD    0
        0x08005370:    00000000    ....    DCD    0
        0x08005374:    00000000    ....    DCD    0
        0x08005378:    00000000    ....    DCD    0
        0x0800537c:    00000000    ....    DCD    0
        0x08005380:    00000000    ....    DCD    0
        0x08005384:    00000000    ....    DCD    0
        0x08005388:    00000000    ....    DCD    0
        0x0800538c:    00000000    ....    DCD    0
        0x08005390:    00000000    ....    DCD    0
        0x08005394:    00000000    ....    DCD    0
        0x08005398:    00000000    ....    DCD    0
        0x0800539c:    00000000    ....    DCD    0
        0x080053a0:    00000000    ....    DCD    0
        0x080053a4:    00000000    ....    DCD    0
        0x080053a8:    00000000    ....    DCD    0
        0x080053ac:    00000000    ....    DCD    0
        0x080053b0:    00000000    ....    DCD    0
        0x080053b4:    00000000    ....    DCD    0
        0x080053b8:    00000000    ....    DCD    0
        0x080053bc:    00000000    ....    DCD    0
        0x080053c0:    00000000    ....    DCD    0
        0x080053c4:    00000000    ....    DCD    0
        0x080053c8:    00000000    ....    DCD    0
        0x080053cc:    00000000    ....    DCD    0
        0x080053d0:    00000000    ....    DCD    0
        0x080053d4:    00000000    ....    DCD    0
        0x080053d8:    00000000    ....    DCD    0
        0x080053dc:    00000000    ....    DCD    0
        0x080053e0:    00000000    ....    DCD    0
        0x080053e4:    00000000    ....    DCD    0
        0x080053e8:    00000000    ....    DCD    0
        0x080053ec:    00000000    ....    DCD    0
        0x080053f0:    00000000    ....    DCD    0
        0x080053f4:    00000000    ....    DCD    0
        0x080053f8:    00000000    ....    DCD    0
        0x080053fc:    00000000    ....    DCD    0
        0x08005400:    00000000    ....    DCD    0
        0x08005404:    00000000    ....    DCD    0
        0x08005408:    00000000    ....    DCD    0
        0x0800540c:    00000000    ....    DCD    0
        0x08005410:    00000000    ....    DCD    0
        0x08005414:    00000000    ....    DCD    0
        0x08005418:    00000000    ....    DCD    0
        0x0800541c:    00000000    ....    DCD    0
        0x08005420:    00000000    ....    DCD    0
        0x08005424:    00000000    ....    DCD    0
        0x08005428:    00000000    ....    DCD    0
        0x0800542c:    00000000    ....    DCD    0
        0x08005430:    00000000    ....    DCD    0
        0x08005434:    00000000    ....    DCD    0
        0x08005438:    00000000    ....    DCD    0
        0x0800543c:    00000000    ....    DCD    0
        0x08005440:    00000000    ....    DCD    0
        0x08005444:    00000000    ....    DCD    0
        0x08005448:    00000000    ....    DCD    0
        0x0800544c:    00000000    ....    DCD    0
        0x08005450:    00000000    ....    DCD    0
        0x08005454:    00000000    ....    DCD    0
        0x08005458:    00000000    ....    DCD    0
        0x0800545c:    00000000    ....    DCD    0
        0x08005460:    00000000    ....    DCD    0
        0x08005464:    00000000    ....    DCD    0
        0x08005468:    00000000    ....    DCD    0
        0x0800546c:    00000000    ....    DCD    0
        0x08005470:    00000000    ....    DCD    0
        0x08005474:    00000000    ....    DCD    0
        0x08005478:    00000000    ....    DCD    0
        0x0800547c:    00000000    ....    DCD    0
        0x08005480:    00000000    ....    DCD    0
        0x08005484:    00000000    ....    DCD    0
        0x08005488:    00000000    ....    DCD    0
        0x0800548c:    00000000    ....    DCD    0
        0x08005490:    00000000    ....    DCD    0
        0x08005494:    00000000    ....    DCD    0
        0x08005498:    00000000    ....    DCD    0
        0x0800549c:    00000000    ....    DCD    0
        0x080054a0:    00000000    ....    DCD    0
        0x080054a4:    00000000    ....    DCD    0
        0x080054a8:    00000000    ....    DCD    0
        0x080054ac:    00000000    ....    DCD    0
        0x080054b0:    00000000    ....    DCD    0
        0x080054b4:    00000000    ....    DCD    0
        0x080054b8:    00000000    ....    DCD    0
        0x080054bc:    00000000    ....    DCD    0
        0x080054c0:    00000000    ....    DCD    0
        0x080054c4:    00000000    ....    DCD    0
        0x080054c8:    00000000    ....    DCD    0
        0x080054cc:    00000000    ....    DCD    0
        0x080054d0:    00000000    ....    DCD    0
        0x080054d4:    00000000    ....    DCD    0
        0x080054d8:    00000000    ....    DCD    0
        0x080054dc:    00000000    ....    DCD    0
        0x080054e0:    00000000    ....    DCD    0
        0x080054e4:    00000000    ....    DCD    0
        0x080054e8:    00000000    ....    DCD    0
        0x080054ec:    00000000    ....    DCD    0
        0x080054f0:    00000000    ....    DCD    0
        0x080054f4:    00000000    ....    DCD    0
        0x080054f8:    00000000    ....    DCD    0
        0x080054fc:    00000000    ....    DCD    0
        0x08005500:    00000000    ....    DCD    0
        0x08005504:    00000000    ....    DCD    0
        0x08005508:    00000000    ....    DCD    0
        0x0800550c:    00000000    ....    DCD    0
        0x08005510:    00000000    ....    DCD    0
        0x08005514:    00000000    ....    DCD    0
        0x08005518:    00000000    ....    DCD    0
        0x0800551c:    00000000    ....    DCD    0
        0x08005520:    00000000    ....    DCD    0
        0x08005524:    00000000    ....    DCD    0
        0x08005528:    00000000    ....    DCD    0
        0x0800552c:    00000000    ....    DCD    0
        0x08005530:    00000000    ....    DCD    0
        0x08005534:    00000000    ....    DCD    0
        0x08005538:    00000000    ....    DCD    0
        0x0800553c:    00000000    ....    DCD    0
        0x08005540:    00000000    ....    DCD    0
        0x08005544:    00000000    ....    DCD    0
        0x08005548:    00000000    ....    DCD    0
        0x0800554c:    00000000    ....    DCD    0
        0x08005550:    00000000    ....    DCD    0
        0x08005554:    00000000    ....    DCD    0
        0x08005558:    00000000    ....    DCD    0
        0x0800555c:    00000000    ....    DCD    0
        0x08005560:    00000000    ....    DCD    0
        0x08005564:    00000000    ....    DCD    0
        0x08005568:    00000000    ....    DCD    0
        0x0800556c:    00000000    ....    DCD    0
        0x08005570:    00000000    ....    DCD    0
        0x08005574:    00000000    ....    DCD    0
        0x08005578:    00000000    ....    DCD    0
        0x0800557c:    00000000    ....    DCD    0
        0x08005580:    00000000    ....    DCD    0
        0x08005584:    00000000    ....    DCD    0
        0x08005588:    00000000    ....    DCD    0
        0x0800558c:    00000000    ....    DCD    0
        0x08005590:    00000000    ....    DCD    0
        0x08005594:    00000000    ....    DCD    0
        0x08005598:    00000000    ....    DCD    0
        0x0800559c:    00000000    ....    DCD    0
        0x080055a0:    00000000    ....    DCD    0
        0x080055a4:    00000000    ....    DCD    0
        0x080055a8:    00000000    ....    DCD    0
        0x080055ac:    00000000    ....    DCD    0
        0x080055b0:    00000000    ....    DCD    0
        0x080055b4:    00000000    ....    DCD    0
        0x080055b8:    00000000    ....    DCD    0
        0x080055bc:    00000000    ....    DCD    0
        0x080055c0:    00000000    ....    DCD    0
        0x080055c4:    00000000    ....    DCD    0
        0x080055c8:    00000000    ....    DCD    0
        0x080055cc:    00000000    ....    DCD    0
        0x080055d0:    00000000    ....    DCD    0
        0x080055d4:    00000000    ....    DCD    0
        0x080055d8:    00000000    ....    DCD    0
        0x080055dc:    00000000    ....    DCD    0
        0x080055e0:    00000000    ....    DCD    0
        0x080055e4:    00000000    ....    DCD    0
        0x080055e8:    00000000    ....    DCD    0
        0x080055ec:    00000000    ....    DCD    0
        0x080055f0:    00000000    ....    DCD    0
        0x080055f4:    00000000    ....    DCD    0
        0x080055f8:    00000000    ....    DCD    0
        0x080055fc:    00000000    ....    DCD    0
        0x08005600:    00000000    ....    DCD    0
        0x08005604:    00000000    ....    DCD    0
        0x08005608:    00000000    ....    DCD    0
        0x0800560c:    00000000    ....    DCD    0
        0x08005610:    00000000    ....    DCD    0
        0x08005614:    00000000    ....    DCD    0
        0x08005618:    00000000    ....    DCD    0
        0x0800561c:    00000000    ....    DCD    0
        0x08005620:    00000000    ....    DCD    0
        0x08005624:    00000000    ....    DCD    0
        0x08005628:    00000000    ....    DCD    0
        0x0800562c:    00000000    ....    DCD    0
        0x08005630:    00000000    ....    DCD    0
        0x08005634:    00000000    ....    DCD    0
        0x08005638:    00000000    ....    DCD    0
        0x0800563c:    00000000    ....    DCD    0
        0x08005640:    00000000    ....    DCD    0
        0x08005644:    00000000    ....    DCD    0
        0x08005648:    00000000    ....    DCD    0
        0x0800564c:    00000000    ....    DCD    0
        0x08005650:    00000000    ....    DCD    0
        0x08005654:    00000000    ....    DCD    0
        0x08005658:    00000000    ....    DCD    0
        0x0800565c:    00000000    ....    DCD    0
        0x08005660:    00000000    ....    DCD    0
        0x08005664:    00000000    ....    DCD    0
        0x08005668:    00000000    ....    DCD    0
        0x0800566c:    00000000    ....    DCD    0
        0x08005670:    00000000    ....    DCD    0
        0x08005674:    00000000    ....    DCD    0
        0x08005678:    00000000    ....    DCD    0
        0x0800567c:    00000000    ....    DCD    0
        0x08005680:    00000000    ....    DCD    0
        0x08005684:    00000000    ....    DCD    0
        0x08005688:    00000000    ....    DCD    0
        0x0800568c:    00000000    ....    DCD    0
        0x08005690:    00000000    ....    DCD    0
        0x08005694:    00000000    ....    DCD    0
        0x08005698:    00000000    ....    DCD    0
        0x0800569c:    00000000    ....    DCD    0
        0x080056a0:    00000000    ....    DCD    0
        0x080056a4:    00000000    ....    DCD    0
        0x080056a8:    00000000    ....    DCD    0
        0x080056ac:    00000000    ....    DCD    0
        0x080056b0:    00000000    ....    DCD    0
        0x080056b4:    00000000    ....    DCD    0
        0x080056b8:    00000000    ....    DCD    0
        0x080056bc:    00000000    ....    DCD    0
        0x080056c0:    00000000    ....    DCD    0
        0x080056c4:    00000000    ....    DCD    0
        0x080056c8:    00000000    ....    DCD    0
        0x080056cc:    00000000    ....    DCD    0
        0x080056d0:    00000000    ....    DCD    0
        0x080056d4:    00000000    ....    DCD    0
        0x080056d8:    00000000    ....    DCD    0
        0x080056dc:    00000000    ....    DCD    0
        0x080056e0:    00000000    ....    DCD    0
        0x080056e4:    00000000    ....    DCD    0
        0x080056e8:    00000000    ....    DCD    0
        0x080056ec:    00000000    ....    DCD    0
        0x080056f0:    00000000    ....    DCD    0
        0x080056f4:    00000000    ....    DCD    0
        0x080056f8:    00000000    ....    DCD    0
        0x080056fc:    00000000    ....    DCD    0
        0x08005700:    00000000    ....    DCD    0
        0x08005704:    00000000    ....    DCD    0
        0x08005708:    00000000    ....    DCD    0
        0x0800570c:    00000000    ....    DCD    0
        0x08005710:    00000000    ....    DCD    0
        0x08005714:    00000000    ....    DCD    0
        0x08005718:    00000000    ....    DCD    0
        0x0800571c:    00000000    ....    DCD    0
        0x08005720:    00000000    ....    DCD    0
        0x08005724:    00000000    ....    DCD    0
        0x08005728:    00000000    ....    DCD    0
        0x0800572c:    00000000    ....    DCD    0
        0x08005730:    00000000    ....    DCD    0
        0x08005734:    00000000    ....    DCD    0
        0x08005738:    00000000    ....    DCD    0
        0x0800573c:    00000000    ....    DCD    0
        0x08005740:    00000000    ....    DCD    0
        0x08005744:    00000000    ....    DCD    0
        0x08005748:    00000000    ....    DCD    0
        0x0800574c:    00000000    ....    DCD    0
        0x08005750:    00000000    ....    DCD    0
        0x08005754:    00000000    ....    DCD    0
        0x08005758:    00000000    ....    DCD    0
        0x0800575c:    00000000    ....    DCD    0
        0x08005760:    00000000    ....    DCD    0
        0x08005764:    00000000    ....    DCD    0
        0x08005768:    00000000    ....    DCD    0
        0x0800576c:    00000000    ....    DCD    0
        0x08005770:    00000000    ....    DCD    0
        0x08005774:    00000000    ....    DCD    0
        0x08005778:    00000000    ....    DCD    0
        0x0800577c:    00000000    ....    DCD    0
        0x08005780:    00000000    ....    DCD    0
        0x08005784:    00000000    ....    DCD    0
        0x08005788:    00000000    ....    DCD    0
        0x0800578c:    00000000    ....    DCD    0
        0x08005790:    00000000    ....    DCD    0
        0x08005794:    00000000    ....    DCD    0
        0x08005798:    00000000    ....    DCD    0
        0x0800579c:    00000000    ....    DCD    0
        0x080057a0:    00000000    ....    DCD    0
        0x080057a4:    00000000    ....    DCD    0
        0x080057a8:    00000000    ....    DCD    0
        0x080057ac:    00000000    ....    DCD    0
        0x080057b0:    00000000    ....    DCD    0
        0x080057b4:    00000000    ....    DCD    0
        0x080057b8:    00000000    ....    DCD    0
        0x080057bc:    00000000    ....    DCD    0
        0x080057c0:    00000000    ....    DCD    0
        0x080057c4:    00000000    ....    DCD    0
        0x080057c8:    00000000    ....    DCD    0
        0x080057cc:    00000000    ....    DCD    0
        0x080057d0:    00000000    ....    DCD    0
        0x080057d4:    00000000    ....    DCD    0
        0x080057d8:    00000000    ....    DCD    0
        0x080057dc:    00000000    ....    DCD    0
        0x080057e0:    00000000    ....    DCD    0
        0x080057e4:    00000000    ....    DCD    0
        0x080057e8:    00000000    ....    DCD    0
        0x080057ec:    00000000    ....    DCD    0
        0x080057f0:    00000000    ....    DCD    0
        0x080057f4:    00000000    ....    DCD    0
        0x080057f8:    00000000    ....    DCD    0
        0x080057fc:    00000000    ....    DCD    0
        0x08005800:    00000000    ....    DCD    0
        0x08005804:    00000000    ....    DCD    0
        0x08005808:    00000000    ....    DCD    0
        0x0800580c:    00000000    ....    DCD    0
        0x08005810:    00000000    ....    DCD    0
        0x08005814:    00000000    ....    DCD    0
        0x08005818:    00000000    ....    DCD    0
        0x0800581c:    00000000    ....    DCD    0
        0x08005820:    00000000    ....    DCD    0
        0x08005824:    00000000    ....    DCD    0
        0x08005828:    00000000    ....    DCD    0
        0x0800582c:    00000000    ....    DCD    0
        0x08005830:    00000000    ....    DCD    0
        0x08005834:    00000000    ....    DCD    0
        0x08005838:    00000000    ....    DCD    0
        0x0800583c:    00000000    ....    DCD    0
        0x08005840:    00000000    ....    DCD    0
        0x08005844:    00000000    ....    DCD    0
        0x08005848:    00000000    ....    DCD    0
        0x0800584c:    00000000    ....    DCD    0
        0x08005850:    00000000    ....    DCD    0
        0x08005854:    00000000    ....    DCD    0
        0x08005858:    00000000    ....    DCD    0
        0x0800585c:    00000000    ....    DCD    0
        0x08005860:    00000000    ....    DCD    0
        0x08005864:    00000000    ....    DCD    0
        0x08005868:    00000000    ....    DCD    0
        0x0800586c:    00000000    ....    DCD    0
        0x08005870:    00000000    ....    DCD    0
        0x08005874:    00000000    ....    DCD    0
        0x08005878:    00000000    ....    DCD    0
        0x0800587c:    00000000    ....    DCD    0
        0x08005880:    00000000    ....    DCD    0
        0x08005884:    00000000    ....    DCD    0
        0x08005888:    00000000    ....    DCD    0
        0x0800588c:    00000000    ....    DCD    0
        0x08005890:    00000000    ....    DCD    0
        0x08005894:    00000000    ....    DCD    0
        0x08005898:    00000000    ....    DCD    0
        0x0800589c:    00000000    ....    DCD    0
        0x080058a0:    00000000    ....    DCD    0
        0x080058a4:    00000000    ....    DCD    0
        0x080058a8:    00000000    ....    DCD    0
        0x080058ac:    00000000    ....    DCD    0
        0x080058b0:    00000000    ....    DCD    0
        0x080058b4:    00000000    ....    DCD    0
        0x080058b8:    00000000    ....    DCD    0
        0x080058bc:    00000000    ....    DCD    0
        0x080058c0:    00000000    ....    DCD    0
        0x080058c4:    00000000    ....    DCD    0
        0x080058c8:    00000000    ....    DCD    0
        0x080058cc:    00000000    ....    DCD    0
        0x080058d0:    00000000    ....    DCD    0
        0x080058d4:    00000000    ....    DCD    0
        0x080058d8:    00000000    ....    DCD    0
        0x080058dc:    00000000    ....    DCD    0
        0x080058e0:    00000000    ....    DCD    0
        0x080058e4:    00000000    ....    DCD    0
        0x080058e8:    00000000    ....    DCD    0
        0x080058ec:    00000000    ....    DCD    0
        0x080058f0:    00000000    ....    DCD    0
        0x080058f4:    00000000    ....    DCD    0
        0x080058f8:    00000000    ....    DCD    0
        0x080058fc:    00000000    ....    DCD    0
        0x08005900:    00000000    ....    DCD    0
        0x08005904:    00000000    ....    DCD    0
        0x08005908:    00000000    ....    DCD    0
        0x0800590c:    00000000    ....    DCD    0
        0x08005910:    00000000    ....    DCD    0
        0x08005914:    00000000    ....    DCD    0
        0x08005918:    00000000    ....    DCD    0
        0x0800591c:    00000000    ....    DCD    0
        0x08005920:    00000000    ....    DCD    0
        0x08005924:    00000000    ....    DCD    0
        0x08005928:    00000000    ....    DCD    0
        0x0800592c:    00000000    ....    DCD    0
        0x08005930:    00000000    ....    DCD    0
        0x08005934:    00000000    ....    DCD    0
        0x08005938:    00000000    ....    DCD    0
        0x0800593c:    00000000    ....    DCD    0
        0x08005940:    00000000    ....    DCD    0
        0x08005944:    00000000    ....    DCD    0
        0x08005948:    00000000    ....    DCD    0
        0x0800594c:    00000000    ....    DCD    0
        0x08005950:    00000000    ....    DCD    0
        0x08005954:    00000000    ....    DCD    0
        0x08005958:    00000000    ....    DCD    0
        0x0800595c:    00000000    ....    DCD    0
        0x08005960:    00000000    ....    DCD    0
        0x08005964:    00000000    ....    DCD    0
        0x08005968:    00000000    ....    DCD    0
        0x0800596c:    00000000    ....    DCD    0
        0x08005970:    00000000    ....    DCD    0
        0x08005974:    00000000    ....    DCD    0
        0x08005978:    00000000    ....    DCD    0
        0x0800597c:    00000000    ....    DCD    0
        0x08005980:    00000000    ....    DCD    0
        0x08005984:    00000000    ....    DCD    0
        0x08005988:    00000000    ....    DCD    0
        0x0800598c:    00000000    ....    DCD    0
        0x08005990:    00000000    ....    DCD    0
        0x08005994:    00000000    ....    DCD    0
        0x08005998:    00000000    ....    DCD    0
        0x0800599c:    00000000    ....    DCD    0
        0x080059a0:    00000000    ....    DCD    0
        0x080059a4:    00000000    ....    DCD    0
        0x080059a8:    00000000    ....    DCD    0
        0x080059ac:    00000000    ....    DCD    0
        0x080059b0:    00000000    ....    DCD    0
        0x080059b4:    00000000    ....    DCD    0
        0x080059b8:    00000000    ....    DCD    0
        0x080059bc:    00000000    ....    DCD    0
        0x080059c0:    00000000    ....    DCD    0
        0x080059c4:    00000000    ....    DCD    0
        0x080059c8:    00000000    ....    DCD    0
        0x080059cc:    00000000    ....    DCD    0
        0x080059d0:    00000000    ....    DCD    0
        0x080059d4:    00000000    ....    DCD    0
        0x080059d8:    00000000    ....    DCD    0
        0x080059dc:    00000000    ....    DCD    0
        0x080059e0:    00000000    ....    DCD    0
        0x080059e4:    00000000    ....    DCD    0
        0x080059e8:    00000000    ....    DCD    0
        0x080059ec:    00000000    ....    DCD    0
        0x080059f0:    00000000    ....    DCD    0
        0x080059f4:    00000000    ....    DCD    0
        0x080059f8:    00000000    ....    DCD    0
        0x080059fc:    00000000    ....    DCD    0
        0x08005a00:    00000000    ....    DCD    0
        0x08005a04:    00000000    ....    DCD    0
        0x08005a08:    00000000    ....    DCD    0
        0x08005a0c:    00000000    ....    DCD    0
        0x08005a10:    00000000    ....    DCD    0
        0x08005a14:    00000000    ....    DCD    0
        0x08005a18:    00000000    ....    DCD    0
        0x08005a1c:    00000000    ....    DCD    0
        0x08005a20:    00000000    ....    DCD    0
        0x08005a24:    00000000    ....    DCD    0
        0x08005a28:    00000000    ....    DCD    0
        0x08005a2c:    00000000    ....    DCD    0
        0x08005a30:    00000000    ....    DCD    0
        0x08005a34:    00000000    ....    DCD    0
        0x08005a38:    00000000    ....    DCD    0
        0x08005a3c:    00000000    ....    DCD    0
        0x08005a40:    00000000    ....    DCD    0
        0x08005a44:    00000000    ....    DCD    0
        0x08005a48:    00000000    ....    DCD    0
        0x08005a4c:    00000000    ....    DCD    0
        0x08005a50:    00000000    ....    DCD    0
        0x08005a54:    00000000    ....    DCD    0
        0x08005a58:    00000000    ....    DCD    0
        0x08005a5c:    00000000    ....    DCD    0
        0x08005a60:    00000000    ....    DCD    0
        0x08005a64:    00000000    ....    DCD    0
        0x08005a68:    00000000    ....    DCD    0
        0x08005a6c:    00000000    ....    DCD    0
        0x08005a70:    00000000    ....    DCD    0
        0x08005a74:    00000000    ....    DCD    0
        0x08005a78:    00000000    ....    DCD    0
        0x08005a7c:    00000000    ....    DCD    0
        0x08005a80:    00000000    ....    DCD    0
        0x08005a84:    00000000    ....    DCD    0
        0x08005a88:    00000000    ....    DCD    0
        0x08005a8c:    00000000    ....    DCD    0
        0x08005a90:    00000000    ....    DCD    0
        0x08005a94:    00000000    ....    DCD    0
        0x08005a98:    00000000    ....    DCD    0
        0x08005a9c:    00000000    ....    DCD    0
        0x08005aa0:    00000000    ....    DCD    0
        0x08005aa4:    00000000    ....    DCD    0
        0x08005aa8:    00000000    ....    DCD    0
        0x08005aac:    00000000    ....    DCD    0
        0x08005ab0:    00000000    ....    DCD    0
        0x08005ab4:    00000000    ....    DCD    0
        0x08005ab8:    00000000    ....    DCD    0
        0x08005abc:    00000000    ....    DCD    0
        0x08005ac0:    00000000    ....    DCD    0
        0x08005ac4:    00000000    ....    DCD    0
        0x08005ac8:    00000000    ....    DCD    0
        0x08005acc:    00000000    ....    DCD    0
        0x08005ad0:    00000000    ....    DCD    0
        0x08005ad4:    00000000    ....    DCD    0
        0x08005ad8:    00000000    ....    DCD    0
        0x08005adc:    00000000    ....    DCD    0
        0x08005ae0:    00000000    ....    DCD    0
        0x08005ae4:    00000000    ....    DCD    0
        0x08005ae8:    00000000    ....    DCD    0
        0x08005aec:    00000000    ....    DCD    0
        0x08005af0:    00000000    ....    DCD    0
        0x08005af4:    00000000    ....    DCD    0
        0x08005af8:    00000000    ....    DCD    0
        0x08005afc:    00000000    ....    DCD    0
        0x08005b00:    00000000    ....    DCD    0
        0x08005b04:    00000000    ....    DCD    0
        0x08005b08:    00000000    ....    DCD    0
        0x08005b0c:    00000000    ....    DCD    0
        0x08005b10:    00000000    ....    DCD    0
        0x08005b14:    00000000    ....    DCD    0
        0x08005b18:    00000000    ....    DCD    0
        0x08005b1c:    00000000    ....    DCD    0
        0x08005b20:    00000000    ....    DCD    0
        0x08005b24:    00000000    ....    DCD    0
        0x08005b28:    00000000    ....    DCD    0
        0x08005b2c:    00000000    ....    DCD    0
        0x08005b30:    00000000    ....    DCD    0
        0x08005b34:    00000000    ....    DCD    0
        0x08005b38:    00000000    ....    DCD    0
        0x08005b3c:    00000000    ....    DCD    0
        0x08005b40:    00000000    ....    DCD    0
        0x08005b44:    00000000    ....    DCD    0
        0x08005b48:    00000000    ....    DCD    0
        0x08005b4c:    00000000    ....    DCD    0
        0x08005b50:    00000000    ....    DCD    0
        0x08005b54:    00000000    ....    DCD    0
        0x08005b58:    00000000    ....    DCD    0
        0x08005b5c:    00000000    ....    DCD    0
        0x08005b60:    00000000    ....    DCD    0
        0x08005b64:    00000000    ....    DCD    0
        0x08005b68:    00000000    ....    DCD    0
        0x08005b6c:    00000000    ....    DCD    0
        0x08005b70:    00000000    ....    DCD    0
        0x08005b74:    00000000    ....    DCD    0
        0x08005b78:    00000000    ....    DCD    0
        0x08005b7c:    00000000    ....    DCD    0
        0x08005b80:    00000000    ....    DCD    0
        0x08005b84:    00000000    ....    DCD    0
        0x08005b88:    00000000    ....    DCD    0
        0x08005b8c:    00000000    ....    DCD    0
        0x08005b90:    00000000    ....    DCD    0
        0x08005b94:    00000000    ....    DCD    0
        0x08005b98:    00000000    ....    DCD    0
        0x08005b9c:    00000000    ....    DCD    0
        0x08005ba0:    00000000    ....    DCD    0
        0x08005ba4:    00000000    ....    DCD    0
        0x08005ba8:    00000000    ....    DCD    0
        0x08005bac:    00000000    ....    DCD    0
        0x08005bb0:    00000000    ....    DCD    0
        0x08005bb4:    00000000    ....    DCD    0
        0x08005bb8:    00000000    ....    DCD    0
        0x08005bbc:    00000000    ....    DCD    0
        0x08005bc0:    00000000    ....    DCD    0
        0x08005bc4:    00000000    ....    DCD    0
        0x08005bc8:    00000000    ....    DCD    0
        0x08005bcc:    00000000    ....    DCD    0
        0x08005bd0:    00000000    ....    DCD    0
        0x08005bd4:    00000000    ....    DCD    0
        0x08005bd8:    00000000    ....    DCD    0
        0x08005bdc:    00000000    ....    DCD    0
        0x08005be0:    00000000    ....    DCD    0
        0x08005be4:    00000000    ....    DCD    0
        0x08005be8:    00000000    ....    DCD    0
        0x08005bec:    00000000    ....    DCD    0
        0x08005bf0:    00000000    ....    DCD    0
        0x08005bf4:    00000000    ....    DCD    0
        0x08005bf8:    00000000    ....    DCD    0
        0x08005bfc:    00000000    ....    DCD    0
        0x08005c00:    00000000    ....    DCD    0
        0x08005c04:    00000000    ....    DCD    0
        0x08005c08:    00000000    ....    DCD    0
        0x08005c0c:    00000000    ....    DCD    0
        0x08005c10:    00000000    ....    DCD    0
        0x08005c14:    00000000    ....    DCD    0
        0x08005c18:    00000000    ....    DCD    0
        0x08005c1c:    00000000    ....    DCD    0
        0x08005c20:    00000000    ....    DCD    0
        0x08005c24:    00000000    ....    DCD    0
        0x08005c28:    00000000    ....    DCD    0
        0x08005c2c:    00000000    ....    DCD    0
        0x08005c30:    00000000    ....    DCD    0
        0x08005c34:    00000000    ....    DCD    0
        0x08005c38:    00000000    ....    DCD    0
        0x08005c3c:    00000000    ....    DCD    0
        0x08005c40:    00000000    ....    DCD    0
        0x08005c44:    00000000    ....    DCD    0
        0x08005c48:    00000000    ....    DCD    0
        0x08005c4c:    00000000    ....    DCD    0
        0x08005c50:    00000000    ....    DCD    0
        0x08005c54:    00000000    ....    DCD    0
        0x08005c58:    00000000    ....    DCD    0
        0x08005c5c:    00000000    ....    DCD    0
        0x08005c60:    00000000    ....    DCD    0
        0x08005c64:    00000000    ....    DCD    0
        0x08005c68:    00000000    ....    DCD    0
        0x08005c6c:    00000000    ....    DCD    0
        0x08005c70:    00000000    ....    DCD    0
        0x08005c74:    00000000    ....    DCD    0
        0x08005c78:    00000000    ....    DCD    0
        0x08005c7c:    00000000    ....    DCD    0
        0x08005c80:    00000000    ....    DCD    0
        0x08005c84:    00000000    ....    DCD    0
        0x08005c88:    00000000    ....    DCD    0
        0x08005c8c:    00000000    ....    DCD    0
        0x08005c90:    00000000    ....    DCD    0
        0x08005c94:    00000000    ....    DCD    0
        0x08005c98:    00000000    ....    DCD    0
        0x08005c9c:    00000000    ....    DCD    0
        0x08005ca0:    00000000    ....    DCD    0
        0x08005ca4:    00000000    ....    DCD    0
        0x08005ca8:    00000000    ....    DCD    0
        0x08005cac:    00000000    ....    DCD    0
        0x08005cb0:    00000000    ....    DCD    0
        0x08005cb4:    00000000    ....    DCD    0
        0x08005cb8:    00000000    ....    DCD    0
        0x08005cbc:    00000000    ....    DCD    0
        0x08005cc0:    00000000    ....    DCD    0
        0x08005cc4:    00000000    ....    DCD    0
        0x08005cc8:    00000000    ....    DCD    0
        0x08005ccc:    00000000    ....    DCD    0
        0x08005cd0:    00000000    ....    DCD    0
        0x08005cd4:    00000000    ....    DCD    0
        0x08005cd8:    00000000    ....    DCD    0
        0x08005cdc:    00000000    ....    DCD    0
        0x08005ce0:    00000000    ....    DCD    0
        0x08005ce4:    00000000    ....    DCD    0
        0x08005ce8:    00000000    ....    DCD    0
        0x08005cec:    00000000    ....    DCD    0
        0x08005cf0:    00000000    ....    DCD    0
        0x08005cf4:    00000000    ....    DCD    0
        0x08005cf8:    00000000    ....    DCD    0
        0x08005cfc:    00000000    ....    DCD    0
        0x08005d00:    00000000    ....    DCD    0
        0x08005d04:    00000000    ....    DCD    0
        0x08005d08:    00000000    ....    DCD    0
        0x08005d0c:    00000000    ....    DCD    0
        0x08005d10:    00000000    ....    DCD    0
        0x08005d14:    00000000    ....    DCD    0
        0x08005d18:    00000000    ....    DCD    0
        0x08005d1c:    00000000    ....    DCD    0
        0x08005d20:    00000000    ....    DCD    0
        0x08005d24:    00000000    ....    DCD    0
        0x08005d28:    00000000    ....    DCD    0
        0x08005d2c:    00000000    ....    DCD    0
        0x08005d30:    00000000    ....    DCD    0
        0x08005d34:    00000000    ....    DCD    0
        0x08005d38:    00000000    ....    DCD    0
        0x08005d3c:    00000000    ....    DCD    0
        0x08005d40:    00000000    ....    DCD    0
        0x08005d44:    00000000    ....    DCD    0
        0x08005d48:    00000000    ....    DCD    0
        0x08005d4c:    00000000    ....    DCD    0
        0x08005d50:    00000000    ....    DCD    0
        0x08005d54:    00000000    ....    DCD    0
        0x08005d58:    00000000    ....    DCD    0
        0x08005d5c:    00000000    ....    DCD    0
        0x08005d60:    00000000    ....    DCD    0
        0x08005d64:    00000000    ....    DCD    0
        0x08005d68:    00000000    ....    DCD    0
        0x08005d6c:    00000000    ....    DCD    0
        0x08005d70:    00000000    ....    DCD    0
        0x08005d74:    00000000    ....    DCD    0
        0x08005d78:    00000000    ....    DCD    0
        0x08005d7c:    00000000    ....    DCD    0
        0x08005d80:    00000000    ....    DCD    0
        0x08005d84:    00000000    ....    DCD    0
        0x08005d88:    00000000    ....    DCD    0
        0x08005d8c:    00000000    ....    DCD    0
        0x08005d90:    00000000    ....    DCD    0
        0x08005d94:    00000000    ....    DCD    0
        0x08005d98:    00000000    ....    DCD    0
        0x08005d9c:    00000000    ....    DCD    0
        0x08005da0:    00000000    ....    DCD    0
        0x08005da4:    00000000    ....    DCD    0
        0x08005da8:    00000000    ....    DCD    0
        0x08005dac:    00000000    ....    DCD    0
        0x08005db0:    00000000    ....    DCD    0
        0x08005db4:    00000000    ....    DCD    0
        0x08005db8:    00000000    ....    DCD    0
        0x08005dbc:    00000000    ....    DCD    0
        0x08005dc0:    00000000    ....    DCD    0
        0x08005dc4:    00000000    ....    DCD    0
        0x08005dc8:    00000000    ....    DCD    0
        0x08005dcc:    00000000    ....    DCD    0
        0x08005dd0:    00000000    ....    DCD    0
        0x08005dd4:    00000000    ....    DCD    0
        0x08005dd8:    00000000    ....    DCD    0
        0x08005ddc:    00000000    ....    DCD    0
        0x08005de0:    00000000    ....    DCD    0
        0x08005de4:    00000000    ....    DCD    0
        0x08005de8:    00000000    ....    DCD    0
        0x08005dec:    00000000    ....    DCD    0
        0x08005df0:    00000000    ....    DCD    0
        0x08005df4:    00000000    ....    DCD    0
        0x08005df8:    00000000    ....    DCD    0
        0x08005dfc:    00000000    ....    DCD    0
        0x08005e00:    00000000    ....    DCD    0
        0x08005e04:    00000000    ....    DCD    0
        0x08005e08:    00000000    ....    DCD    0
        0x08005e0c:    00000000    ....    DCD    0
        0x08005e10:    00000000    ....    DCD    0
        0x08005e14:    00000000    ....    DCD    0
        0x08005e18:    00000000    ....    DCD    0
        0x08005e1c:    00000000    ....    DCD    0
        0x08005e20:    00000000    ....    DCD    0
        0x08005e24:    00000000    ....    DCD    0
        0x08005e28:    00000000    ....    DCD    0
        0x08005e2c:    00000000    ....    DCD    0
        0x08005e30:    00000000    ....    DCD    0
        0x08005e34:    00000000    ....    DCD    0
        0x08005e38:    00000000    ....    DCD    0
        0x08005e3c:    00000000    ....    DCD    0
        0x08005e40:    00000000    ....    DCD    0
        0x08005e44:    00000000    ....    DCD    0
        0x08005e48:    00000000    ....    DCD    0
        0x08005e4c:    00000000    ....    DCD    0
        0x08005e50:    00000000    ....    DCD    0
        0x08005e54:    00000000    ....    DCD    0
        0x08005e58:    00000000    ....    DCD    0
        0x08005e5c:    00000000    ....    DCD    0
        0x08005e60:    00000000    ....    DCD    0
        0x08005e64:    00000000    ....    DCD    0
        0x08005e68:    00000000    ....    DCD    0
        0x08005e6c:    00000000    ....    DCD    0
        0x08005e70:    00000000    ....    DCD    0
        0x08005e74:    00000000    ....    DCD    0
        0x08005e78:    00000000    ....    DCD    0
        0x08005e7c:    00000000    ....    DCD    0
        0x08005e80:    00000000    ....    DCD    0
        0x08005e84:    00000000    ....    DCD    0
        0x08005e88:    00000000    ....    DCD    0
        0x08005e8c:    00000000    ....    DCD    0
        0x08005e90:    00000000    ....    DCD    0
        0x08005e94:    00000000    ....    DCD    0
        0x08005e98:    00000000    ....    DCD    0
        0x08005e9c:    00000000    ....    DCD    0
        0x08005ea0:    00000000    ....    DCD    0
        0x08005ea4:    00000000    ....    DCD    0
        0x08005ea8:    00000000    ....    DCD    0
        0x08005eac:    00000000    ....    DCD    0
        0x08005eb0:    00000000    ....    DCD    0
        0x08005eb4:    00000000    ....    DCD    0
        0x08005eb8:    00000000    ....    DCD    0
        0x08005ebc:    00000000    ....    DCD    0
        0x08005ec0:    00000000    ....    DCD    0
        0x08005ec4:    00000000    ....    DCD    0
        0x08005ec8:    00000000    ....    DCD    0
        0x08005ecc:    00000000    ....    DCD    0
        0x08005ed0:    00000000    ....    DCD    0
        0x08005ed4:    00000000    ....    DCD    0
        0x08005ed8:    00000000    ....    DCD    0
        0x08005edc:    00000000    ....    DCD    0
        0x08005ee0:    00000000    ....    DCD    0
        0x08005ee4:    00000000    ....    DCD    0
        0x08005ee8:    00000000    ....    DCD    0
        0x08005eec:    00000000    ....    DCD    0
        0x08005ef0:    00000000    ....    DCD    0
        0x08005ef4:    00000000    ....    DCD    0
        0x08005ef8:    00000000    ....    DCD    0
        0x08005efc:    00000000    ....    DCD    0
        0x08005f00:    00000000    ....    DCD    0
        0x08005f04:    00000000    ....    DCD    0
        0x08005f08:    00000000    ....    DCD    0
        0x08005f0c:    00000000    ....    DCD    0
        0x08005f10:    00000000    ....    DCD    0
        0x08005f14:    00000000    ....    DCD    0
        0x08005f18:    00000000    ....    DCD    0
        0x08005f1c:    00000000    ....    DCD    0
        0x08005f20:    00000000    ....    DCD    0
        0x08005f24:    00000000    ....    DCD    0
        0x08005f28:    00000000    ....    DCD    0
        0x08005f2c:    00000000    ....    DCD    0
        0x08005f30:    00000000    ....    DCD    0
        0x08005f34:    00000000    ....    DCD    0
        0x08005f38:    00000000    ....    DCD    0
        0x08005f3c:    00000000    ....    DCD    0
        0x08005f40:    00000000    ....    DCD    0
        0x08005f44:    00000000    ....    DCD    0
        0x08005f48:    00000000    ....    DCD    0
        0x08005f4c:    00000000    ....    DCD    0
        0x08005f50:    00000000    ....    DCD    0
        0x08005f54:    00000000    ....    DCD    0
        0x08005f58:    00000000    ....    DCD    0
        0x08005f5c:    00000000    ....    DCD    0
        0x08005f60:    00000000    ....    DCD    0
        0x08005f64:    00000000    ....    DCD    0
        0x08005f68:    00000000    ....    DCD    0
        0x08005f6c:    00000000    ....    DCD    0
        0x08005f70:    00000000    ....    DCD    0
        0x08005f74:    00000000    ....    DCD    0
        0x08005f78:    00000000    ....    DCD    0
        0x08005f7c:    00000000    ....    DCD    0
        0x08005f80:    00000000    ....    DCD    0
        0x08005f84:    00000000    ....    DCD    0
        0x08005f88:    00000000    ....    DCD    0
        0x08005f8c:    00000000    ....    DCD    0
        0x08005f90:    00000000    ....    DCD    0
        0x08005f94:    00000000    ....    DCD    0
        0x08005f98:    00000000    ....    DCD    0
        0x08005f9c:    00000000    ....    DCD    0
        0x08005fa0:    00000000    ....    DCD    0
        0x08005fa4:    00000000    ....    DCD    0
        0x08005fa8:    00000000    ....    DCD    0
        0x08005fac:    00000000    ....    DCD    0
        0x08005fb0:    00000000    ....    DCD    0
        0x08005fb4:    00000000    ....    DCD    0
        0x08005fb8:    00000000    ....    DCD    0
        0x08005fbc:    00000000    ....    DCD    0
        0x08005fc0:    00000000    ....    DCD    0
        0x08005fc4:    00000000    ....    DCD    0
        0x08005fc8:    00000000    ....    DCD    0
        0x08005fcc:    00000000    ....    DCD    0
        0x08005fd0:    00000000    ....    DCD    0
        0x08005fd4:    00000000    ....    DCD    0
        0x08005fd8:    00000000    ....    DCD    0
        0x08005fdc:    00000000    ....    DCD    0
        0x08005fe0:    00000000    ....    DCD    0
        0x08005fe4:    00000000    ....    DCD    0
        0x08005fe8:    00000000    ....    DCD    0
        0x08005fec:    00000000    ....    DCD    0
        0x08005ff0:    00000000    ....    DCD    0
        0x08005ff4:    00000000    ....    DCD    0
        0x08005ff8:    00000000    ....    DCD    0
        0x08005ffc:    00000000    ....    DCD    0
        0x08006000:    00000000    ....    DCD    0
        0x08006004:    00000000    ....    DCD    0
        0x08006008:    00000000    ....    DCD    0
        0x0800600c:    00000000    ....    DCD    0
        0x08006010:    00000000    ....    DCD    0
        0x08006014:    00000000    ....    DCD    0
        0x08006018:    00000000    ....    DCD    0
        0x0800601c:    00000000    ....    DCD    0
        0x08006020:    00000000    ....    DCD    0
        0x08006024:    00000000    ....    DCD    0
        0x08006028:    00000000    ....    DCD    0
        0x0800602c:    00000000    ....    DCD    0
        0x08006030:    00000000    ....    DCD    0
        0x08006034:    00000000    ....    DCD    0
        0x08006038:    00000000    ....    DCD    0
        0x0800603c:    00000000    ....    DCD    0
        0x08006040:    00000000    ....    DCD    0
        0x08006044:    00000000    ....    DCD    0
        0x08006048:    00000000    ....    DCD    0
        0x0800604c:    00000000    ....    DCD    0
        0x08006050:    00000000    ....    DCD    0
        0x08006054:    00000000    ....    DCD    0
        0x08006058:    00000000    ....    DCD    0
        0x0800605c:    00000000    ....    DCD    0
        0x08006060:    00000000    ....    DCD    0
        0x08006064:    00000000    ....    DCD    0
        0x08006068:    00000000    ....    DCD    0
        0x0800606c:    00000000    ....    DCD    0
        0x08006070:    00000000    ....    DCD    0
        0x08006074:    00000000    ....    DCD    0
        0x08006078:    00000000    ....    DCD    0
        0x0800607c:    00000000    ....    DCD    0
        0x08006080:    00000000    ....    DCD    0
        0x08006084:    00000000    ....    DCD    0
        0x08006088:    00000000    ....    DCD    0
        0x0800608c:    00000000    ....    DCD    0
        0x08006090:    00000000    ....    DCD    0
        0x08006094:    00000000    ....    DCD    0
        0x08006098:    00000000    ....    DCD    0
        0x0800609c:    00000000    ....    DCD    0
        0x080060a0:    00000000    ....    DCD    0
        0x080060a4:    00000000    ....    DCD    0
        0x080060a8:    00000000    ....    DCD    0
        0x080060ac:    00000000    ....    DCD    0
        0x080060b0:    00000000    ....    DCD    0
        0x080060b4:    00000000    ....    DCD    0
        0x080060b8:    00000000    ....    DCD    0
        0x080060bc:    00000000    ....    DCD    0
        0x080060c0:    00000000    ....    DCD    0
        0x080060c4:    00000000    ....    DCD    0
        0x080060c8:    00000000    ....    DCD    0
        0x080060cc:    00000000    ....    DCD    0
        0x080060d0:    00000000    ....    DCD    0
        0x080060d4:    00000000    ....    DCD    0
        0x080060d8:    00000000    ....    DCD    0
        0x080060dc:    00000000    ....    DCD    0
        0x080060e0:    00000000    ....    DCD    0
        0x080060e4:    00000000    ....    DCD    0
        0x080060e8:    00000000    ....    DCD    0
        0x080060ec:    00000000    ....    DCD    0
        0x080060f0:    00000000    ....    DCD    0
        0x080060f4:    00000000    ....    DCD    0
        0x080060f8:    00000000    ....    DCD    0
        0x080060fc:    00000000    ....    DCD    0
        0x08006100:    00000000    ....    DCD    0
        0x08006104:    00000000    ....    DCD    0
        0x08006108:    00000000    ....    DCD    0
        0x0800610c:    00000000    ....    DCD    0
        0x08006110:    00000000    ....    DCD    0
        0x08006114:    00000000    ....    DCD    0
        0x08006118:    00000000    ....    DCD    0
        0x0800611c:    00000000    ....    DCD    0
        0x08006120:    00000000    ....    DCD    0
        0x08006124:    00000000    ....    DCD    0
        0x08006128:    00000000    ....    DCD    0
        0x0800612c:    00000000    ....    DCD    0
        0x08006130:    00000000    ....    DCD    0
        0x08006134:    00000000    ....    DCD    0
        0x08006138:    00000000    ....    DCD    0
        0x0800613c:    00000000    ....    DCD    0
        0x08006140:    00000000    ....    DCD    0
        0x08006144:    00000000    ....    DCD    0
        0x08006148:    00000000    ....    DCD    0
        0x0800614c:    00000000    ....    DCD    0
        0x08006150:    00000000    ....    DCD    0
        0x08006154:    00000000    ....    DCD    0
        0x08006158:    00000000    ....    DCD    0
        0x0800615c:    00000000    ....    DCD    0
        0x08006160:    00000000    ....    DCD    0
        0x08006164:    00000000    ....    DCD    0
        0x08006168:    00000000    ....    DCD    0
        0x0800616c:    00000000    ....    DCD    0
        0x08006170:    00000000    ....    DCD    0
        0x08006174:    00000000    ....    DCD    0
        0x08006178:    00000000    ....    DCD    0
        0x0800617c:    00000000    ....    DCD    0
        0x08006180:    00000000    ....    DCD    0
        0x08006184:    00000000    ....    DCD    0
        0x08006188:    00000000    ....    DCD    0
        0x0800618c:    00000000    ....    DCD    0
        0x08006190:    00000000    ....    DCD    0
        0x08006194:    00000000    ....    DCD    0
        0x08006198:    00000000    ....    DCD    0
        0x0800619c:    00000000    ....    DCD    0
        0x080061a0:    00000000    ....    DCD    0
        0x080061a4:    00000000    ....    DCD    0
        0x080061a8:    00000000    ....    DCD    0
        0x080061ac:    00000000    ....    DCD    0
        0x080061b0:    00000000    ....    DCD    0
        0x080061b4:    00000000    ....    DCD    0
        0x080061b8:    00000000    ....    DCD    0
        0x080061bc:    00000000    ....    DCD    0
        0x080061c0:    00000000    ....    DCD    0
        0x080061c4:    00000000    ....    DCD    0
        0x080061c8:    00000000    ....    DCD    0
        0x080061cc:    00000000    ....    DCD    0
        0x080061d0:    00000000    ....    DCD    0
        0x080061d4:    00000000    ....    DCD    0
        0x080061d8:    00000000    ....    DCD    0
        0x080061dc:    00000000    ....    DCD    0
        0x080061e0:    00000000    ....    DCD    0
        0x080061e4:    00000000    ....    DCD    0
        0x080061e8:    00000000    ....    DCD    0
        0x080061ec:    00000000    ....    DCD    0
        0x080061f0:    00000000    ....    DCD    0
        0x080061f4:    00000000    ....    DCD    0
        0x080061f8:    00000000    ....    DCD    0
        0x080061fc:    00000000    ....    DCD    0
        0x08006200:    00000000    ....    DCD    0
        0x08006204:    00000000    ....    DCD    0
        0x08006208:    00000000    ....    DCD    0
        0x0800620c:    00000000    ....    DCD    0
        0x08006210:    00000000    ....    DCD    0
        0x08006214:    00000000    ....    DCD    0
        0x08006218:    00000000    ....    DCD    0
        0x0800621c:    00000000    ....    DCD    0
        0x08006220:    00000000    ....    DCD    0
        0x08006224:    00000000    ....    DCD    0
        0x08006228:    00000000    ....    DCD    0
        0x0800622c:    00000000    ....    DCD    0
        0x08006230:    00000000    ....    DCD    0
        0x08006234:    00000000    ....    DCD    0
        0x08006238:    00000000    ....    DCD    0
        0x0800623c:    00000000    ....    DCD    0
        0x08006240:    00000000    ....    DCD    0
        0x08006244:    00000000    ....    DCD    0
        0x08006248:    00000000    ....    DCD    0
        0x0800624c:    00000000    ....    DCD    0
        0x08006250:    00000000    ....    DCD    0
        0x08006254:    00000000    ....    DCD    0
        0x08006258:    00000000    ....    DCD    0
        0x0800625c:    00000000    ....    DCD    0
        0x08006260:    00000000    ....    DCD    0
        0x08006264:    00000000    ....    DCD    0
        0x08006268:    00000000    ....    DCD    0
        0x0800626c:    00000000    ....    DCD    0
        0x08006270:    00000000    ....    DCD    0
        0x08006274:    00000000    ....    DCD    0
        0x08006278:    00000000    ....    DCD    0
        0x0800627c:    00000000    ....    DCD    0
        0x08006280:    00000000    ....    DCD    0
        0x08006284:    00000000    ....    DCD    0
        0x08006288:    00000000    ....    DCD    0
        0x0800628c:    00000000    ....    DCD    0
        0x08006290:    00000000    ....    DCD    0
        0x08006294:    00000000    ....    DCD    0
        0x08006298:    00000000    ....    DCD    0
        0x0800629c:    00000000    ....    DCD    0
        0x080062a0:    00000000    ....    DCD    0
        0x080062a4:    00000000    ....    DCD    0
        0x080062a8:    00000000    ....    DCD    0
        0x080062ac:    00000000    ....    DCD    0
        0x080062b0:    00000000    ....    DCD    0
        0x080062b4:    00000000    ....    DCD    0
        0x080062b8:    00000000    ....    DCD    0
        0x080062bc:    00000000    ....    DCD    0
        0x080062c0:    00000000    ....    DCD    0
        0x080062c4:    00000000    ....    DCD    0
        0x080062c8:    00000000    ....    DCD    0
        0x080062cc:    00000000    ....    DCD    0
        0x080062d0:    00000000    ....    DCD    0
        0x080062d4:    00000000    ....    DCD    0
        0x080062d8:    00000000    ....    DCD    0
        0x080062dc:    00000000    ....    DCD    0
        0x080062e0:    00000000    ....    DCD    0
        0x080062e4:    00000000    ....    DCD    0
        0x080062e8:    00000000    ....    DCD    0
        0x080062ec:    00000000    ....    DCD    0
        0x080062f0:    00000000    ....    DCD    0
        0x080062f4:    00000000    ....    DCD    0
        0x080062f8:    00000000    ....    DCD    0
        0x080062fc:    00000000    ....    DCD    0
        0x08006300:    00000000    ....    DCD    0
        0x08006304:    00000000    ....    DCD    0
        0x08006308:    00000000    ....    DCD    0
        0x0800630c:    00000000    ....    DCD    0
        0x08006310:    00000000    ....    DCD    0
        0x08006314:    00000000    ....    DCD    0
        0x08006318:    00000000    ....    DCD    0
        0x0800631c:    00000000    ....    DCD    0
        0x08006320:    00000000    ....    DCD    0
        0x08006324:    00000000    ....    DCD    0
        0x08006328:    00000000    ....    DCD    0
        0x0800632c:    00000000    ....    DCD    0
        0x08006330:    00000000    ....    DCD    0
        0x08006334:    00000000    ....    DCD    0
        0x08006338:    00000000    ....    DCD    0
        0x0800633c:    00000000    ....    DCD    0
        0x08006340:    00000000    ....    DCD    0
        0x08006344:    00000000    ....    DCD    0
        0x08006348:    00000000    ....    DCD    0
        0x0800634c:    00000000    ....    DCD    0
        0x08006350:    00000000    ....    DCD    0
        0x08006354:    00000000    ....    DCD    0
        0x08006358:    00000000    ....    DCD    0
        0x0800635c:    00000000    ....    DCD    0
        0x08006360:    00000000    ....    DCD    0
        0x08006364:    00000000    ....    DCD    0
        0x08006368:    00000000    ....    DCD    0
        0x0800636c:    00000000    ....    DCD    0
        0x08006370:    00000000    ....    DCD    0
        0x08006374:    00000000    ....    DCD    0
        0x08006378:    00000000    ....    DCD    0
        0x0800637c:    00000000    ....    DCD    0
        0x08006380:    00000000    ....    DCD    0
        0x08006384:    00000000    ....    DCD    0
        0x08006388:    00000000    ....    DCD    0
        0x0800638c:    00000000    ....    DCD    0
        0x08006390:    00000000    ....    DCD    0
        0x08006394:    00000000    ....    DCD    0
        0x08006398:    00000000    ....    DCD    0
        0x0800639c:    00000000    ....    DCD    0
        0x080063a0:    00000000    ....    DCD    0
        0x080063a4:    00000000    ....    DCD    0
        0x080063a8:    00000000    ....    DCD    0
        0x080063ac:    00000000    ....    DCD    0
        0x080063b0:    00000000    ....    DCD    0
        0x080063b4:    00000000    ....    DCD    0
        0x080063b8:    00000000    ....    DCD    0
        0x080063bc:    00000000    ....    DCD    0
        0x080063c0:    00000000    ....    DCD    0
        0x080063c4:    00000000    ....    DCD    0
        0x080063c8:    00000000    ....    DCD    0
        0x080063cc:    00000000    ....    DCD    0
        0x080063d0:    00000000    ....    DCD    0
        0x080063d4:    00000000    ....    DCD    0
        0x080063d8:    00000000    ....    DCD    0
        0x080063dc:    00000000    ....    DCD    0
        0x080063e0:    00000000    ....    DCD    0
        0x080063e4:    00000000    ....    DCD    0
        0x080063e8:    00000000    ....    DCD    0
        0x080063ec:    00000000    ....    DCD    0
        0x080063f0:    00000000    ....    DCD    0
        0x080063f4:    00000000    ....    DCD    0
        0x080063f8:    00000000    ....    DCD    0
        0x080063fc:    00000000    ....    DCD    0
        0x08006400:    00000000    ....    DCD    0
        0x08006404:    00000000    ....    DCD    0
        0x08006408:    00000000    ....    DCD    0
        0x0800640c:    00000000    ....    DCD    0
        0x08006410:    00000000    ....    DCD    0
        0x08006414:    00000000    ....    DCD    0
        0x08006418:    00000000    ....    DCD    0
        0x0800641c:    00000000    ....    DCD    0
        0x08006420:    00000000    ....    DCD    0
        0x08006424:    00000000    ....    DCD    0
        0x08006428:    00000000    ....    DCD    0
        0x0800642c:    00000000    ....    DCD    0
        0x08006430:    00000000    ....    DCD    0
        0x08006434:    00000000    ....    DCD    0
        0x08006438:    00000000    ....    DCD    0
        0x0800643c:    00000000    ....    DCD    0
        0x08006440:    00000000    ....    DCD    0
        0x08006444:    00000000    ....    DCD    0
        0x08006448:    00000000    ....    DCD    0
        0x0800644c:    00000000    ....    DCD    0
        0x08006450:    00000000    ....    DCD    0
        0x08006454:    00000000    ....    DCD    0
        0x08006458:    00000000    ....    DCD    0
        0x0800645c:    00000000    ....    DCD    0
        0x08006460:    00000000    ....    DCD    0
        0x08006464:    00000000    ....    DCD    0
        0x08006468:    00000000    ....    DCD    0
        0x0800646c:    00000000    ....    DCD    0
        0x08006470:    00000000    ....    DCD    0
        0x08006474:    00000000    ....    DCD    0
        0x08006478:    00000000    ....    DCD    0
        0x0800647c:    00000000    ....    DCD    0
        0x08006480:    00000000    ....    DCD    0
        0x08006484:    00000000    ....    DCD    0
        0x08006488:    00000000    ....    DCD    0
        0x0800648c:    00000000    ....    DCD    0
        0x08006490:    00000000    ....    DCD    0
        0x08006494:    00000000    ....    DCD    0
        0x08006498:    00000000    ....    DCD    0
        0x0800649c:    00000000    ....    DCD    0
        0x080064a0:    00000000    ....    DCD    0
        0x080064a4:    00000000    ....    DCD    0
        0x080064a8:    00000000    ....    DCD    0
        0x080064ac:    00000000    ....    DCD    0
        0x080064b0:    00000000    ....    DCD    0
        0x080064b4:    00000000    ....    DCD    0
        0x080064b8:    00000000    ....    DCD    0
        0x080064bc:    00000000    ....    DCD    0
        0x080064c0:    00000000    ....    DCD    0
        0x080064c4:    00000000    ....    DCD    0
        0x080064c8:    00000000    ....    DCD    0
        0x080064cc:    00000000    ....    DCD    0
        0x080064d0:    00000000    ....    DCD    0
        0x080064d4:    00000000    ....    DCD    0
        0x080064d8:    00000000    ....    DCD    0
        0x080064dc:    00000000    ....    DCD    0
        0x080064e0:    00000000    ....    DCD    0
        0x080064e4:    00000000    ....    DCD    0
        0x080064e8:    00000000    ....    DCD    0
        0x080064ec:    00000000    ....    DCD    0
        0x080064f0:    00000000    ....    DCD    0
        0x080064f4:    00000000    ....    DCD    0
        0x080064f8:    00000000    ....    DCD    0
        0x080064fc:    00000000    ....    DCD    0
        0x08006500:    00000000    ....    DCD    0
        0x08006504:    00000000    ....    DCD    0
        0x08006508:    00000000    ....    DCD    0
        0x0800650c:    00000000    ....    DCD    0
        0x08006510:    00000000    ....    DCD    0
        0x08006514:    00000000    ....    DCD    0
        0x08006518:    00000000    ....    DCD    0
        0x0800651c:    00000000    ....    DCD    0
        0x08006520:    00000000    ....    DCD    0
        0x08006524:    00000000    ....    DCD    0
        0x08006528:    00000000    ....    DCD    0
        0x0800652c:    00000000    ....    DCD    0
        0x08006530:    00000000    ....    DCD    0
        0x08006534:    00000000    ....    DCD    0
        0x08006538:    00000000    ....    DCD    0
        0x0800653c:    00000000    ....    DCD    0
        0x08006540:    00000000    ....    DCD    0
        0x08006544:    00000000    ....    DCD    0
        0x08006548:    00000000    ....    DCD    0
        0x0800654c:    00000000    ....    DCD    0
        0x08006550:    00000000    ....    DCD    0
        0x08006554:    00000000    ....    DCD    0
        0x08006558:    00000000    ....    DCD    0
        0x0800655c:    00000000    ....    DCD    0
        0x08006560:    00000000    ....    DCD    0
        0x08006564:    00000000    ....    DCD    0
        0x08006568:    00000000    ....    DCD    0
        0x0800656c:    00000000    ....    DCD    0
        0x08006570:    00000000    ....    DCD    0
        0x08006574:    00000000    ....    DCD    0
        0x08006578:    00000000    ....    DCD    0
        0x0800657c:    00000000    ....    DCD    0
        0x08006580:    00000000    ....    DCD    0
        0x08006584:    00000000    ....    DCD    0
        0x08006588:    00000000    ....    DCD    0
        0x0800658c:    00000000    ....    DCD    0
        0x08006590:    00000000    ....    DCD    0
        0x08006594:    00000000    ....    DCD    0
        0x08006598:    00000000    ....    DCD    0
        0x0800659c:    00000000    ....    DCD    0
        0x080065a0:    00000000    ....    DCD    0
        0x080065a4:    00000000    ....    DCD    0
        0x080065a8:    00000000    ....    DCD    0
        0x080065ac:    00000000    ....    DCD    0
        0x080065b0:    00000000    ....    DCD    0
        0x080065b4:    00000000    ....    DCD    0
        0x080065b8:    00000000    ....    DCD    0
        0x080065bc:    00000000    ....    DCD    0
        0x080065c0:    00000000    ....    DCD    0
        0x080065c4:    00000000    ....    DCD    0
        0x080065c8:    00000000    ....    DCD    0
        0x080065cc:    00000000    ....    DCD    0
        0x080065d0:    00000000    ....    DCD    0
        0x080065d4:    00000000    ....    DCD    0
        0x080065d8:    00000000    ....    DCD    0
        0x080065dc:    00000000    ....    DCD    0
        0x080065e0:    00000000    ....    DCD    0
        0x080065e4:    00000000    ....    DCD    0
        0x080065e8:    00000000    ....    DCD    0
        0x080065ec:    00000000    ....    DCD    0
        0x080065f0:    00000000    ....    DCD    0
        0x080065f4:    00000000    ....    DCD    0
        0x080065f8:    00000000    ....    DCD    0
        0x080065fc:    00000000    ....    DCD    0
        0x08006600:    00000000    ....    DCD    0
        0x08006604:    00000000    ....    DCD    0
        0x08006608:    00000000    ....    DCD    0
        0x0800660c:    00000000    ....    DCD    0
        0x08006610:    00000000    ....    DCD    0
        0x08006614:    00000000    ....    DCD    0
        0x08006618:    00000000    ....    DCD    0
        0x0800661c:    00000000    ....    DCD    0
        0x08006620:    00000000    ....    DCD    0
        0x08006624:    00000000    ....    DCD    0
        0x08006628:    00000000    ....    DCD    0
        0x0800662c:    00000000    ....    DCD    0
        0x08006630:    00000000    ....    DCD    0
        0x08006634:    00000000    ....    DCD    0
        0x08006638:    00000000    ....    DCD    0
        0x0800663c:    00000000    ....    DCD    0
        0x08006640:    00000000    ....    DCD    0
        0x08006644:    00000000    ....    DCD    0
        0x08006648:    00000000    ....    DCD    0
        0x0800664c:    00000000    ....    DCD    0
        0x08006650:    00000000    ....    DCD    0
        0x08006654:    00000000    ....    DCD    0
        0x08006658:    00000000    ....    DCD    0
        0x0800665c:    00000000    ....    DCD    0
        0x08006660:    00000000    ....    DCD    0
        0x08006664:    00000000    ....    DCD    0
        0x08006668:    00000000    ....    DCD    0
        0x0800666c:    00000000    ....    DCD    0
        0x08006670:    00000000    ....    DCD    0
        0x08006674:    00000000    ....    DCD    0
        0x08006678:    00000000    ....    DCD    0
        0x0800667c:    00000000    ....    DCD    0
        0x08006680:    00000000    ....    DCD    0
        0x08006684:    00000000    ....    DCD    0
        0x08006688:    200013e0    ...     DCD    536876000
        0x0800668c:    080041b1    .A..    DCD    134234545
        0x08006690:    08007931    1y..    DCD    134248753
        0x08006694:    08007935    5y..    DCD    134248757
        0x08006698:    08007939    9y..    DCD    134248761
        0x0800669c:    0800793d    =y..    DCD    134248765
        0x080066a0:    08007941    Ay..    DCD    134248769
        0x080066a4:    00000000    ....    DCD    0
        0x080066a8:    00000000    ....    DCD    0
        0x080066ac:    00000000    ....    DCD    0
        0x080066b0:    00000000    ....    DCD    0
        0x080066b4:    08007949    Iy..    DCD    134248777
        0x080066b8:    08007945    Ey..    DCD    134248773
        0x080066bc:    00000000    ....    DCD    0
        0x080066c0:    080075cd    .u..    DCD    134247885
        0x080066c4:    0800769d    .v..    DCD    134248093
        0x080066c8:    0800794d    My..    DCD    134248781
        0x080066cc:    08007951    Qy..    DCD    134248785
        0x080066d0:    08007955    Uy..    DCD    134248789
        0x080066d4:    08007959    Yy..    DCD    134248793
        0x080066d8:    0800795d    ]y..    DCD    134248797
        0x080066dc:    08007961    ay..    DCD    134248801
        0x080066e0:    08007965    ey..    DCD    134248805
        0x080066e4:    08007969    iy..    DCD    134248809
        0x080066e8:    0800796d    my..    DCD    134248813
        0x080066ec:    08007971    qy..    DCD    134248817
        0x080066f0:    08007975    uy..    DCD    134248821
        0x080066f4:    08007979    yy..    DCD    134248825
        0x080066f8:    0800797d    }y..    DCD    134248829
        0x080066fc:    08007981    .y..    DCD    134248833
        0x08006700:    08007985    .y..    DCD    134248837
        0x08006704:    08007989    .y..    DCD    134248841
        0x08006708:    0800798d    .y..    DCD    134248845
        0x0800670c:    08007991    .y..    DCD    134248849
        0x08006710:    08007995    .y..    DCD    134248853
        0x08006714:    08008025    %...    DCD    134250533
        0x08006718:    08008025    %...    DCD    134250533
        0x0800671c:    08007999    .y..    DCD    134248857
        0x08006720:    0800799d    .y..    DCD    134248861
        0x08006724:    080079a1    .y..    DCD    134248865
        0x08006728:    080079a5    .y..    DCD    134248869
        0x0800672c:    080079a9    .y..    DCD    134248873
        0x08006730:    080079ad    .y..    DCD    134248877
        0x08006734:    080079b1    .y..    DCD    134248881
        0x08006738:    080079b5    .y..    DCD    134248885
        0x0800673c:    080079b9    .y..    DCD    134248889
        0x08006740:    080079bd    .y..    DCD    134248893
        0x08006744:    080079c1    .y..    DCD    134248897
        0x08006748:    080079c5    .y..    DCD    134248901
        0x0800674c:    080079c9    .y..    DCD    134248905
        0x08006750:    080079cd    .y..    DCD    134248909
        0x08006754:    080079d1    .y..    DCD    134248913
        0x08006758:    080079d5    .y..    DCD    134248917
        0x0800675c:    080068a9    .h..    DCD    134244521
        0x08006760:    080079d9    .y..    DCD    134248921
        0x08006764:    080079dd    .y..    DCD    134248925
        0x08006768:    080079e1    .y..    DCD    134248929
        0x0800676c:    080079e5    .y..    DCD    134248933
        0x08006770:    080079e9    .y..    DCD    134248937
        0x08006774:    ffffffff    ....    DCD    4294967295
        0x08006778:    ffffffff    ....    DCD    4294967295
        0x0800677c:    ffffffff    ....    DCD    4294967295
        0x08006780:    ffffffff    ....    DCD    4294967295
        0x08006784:    ffffffff    ....    DCD    4294967295
        0x08006788:    00000000    ....    DCD    0
        0x0800678c:    00000000    ....    DCD    0
        0x08006790:    00000000    ....    DCD    0
        0x08006794:    00000000    ....    DCD    0
        0x08006798:    694c2d4a    J-Li    DCD    1766600010
        0x0800679c:    41206b6e    nk A    DCD    1092643694
        0x080067a0:    4f2d4d52    RM-O    DCD    1328368978
        0x080067a4:    54532042    B ST    DCD    1414733890
        0x080067a8:    2032334d    M32     DCD    540160845
        0x080067ac:    706d6f63    comp    DCD    1886220131
        0x080067b0:    64656c69    iled    DCD    1684368489
        0x080067b4:    67754120     Aug    DCD    1735737632
        0x080067b8:    20323220     22     DCD    540160544
        0x080067bc:    32313032    2012    DCD    842084402
        0x080067c0:    3a393120     19:    DCD    976826656
        0x080067c4:    303a3235    52:0    DCD    809120309
        0x080067c8:    6f430034    4.Co    DCD    1866661940
        0x080067cc:    69727970    pyri    DCD    1769109872
        0x080067d0:    20746867    ght     DCD    544499815
        0x080067d4:    33303032    2003    DCD    858796082
        0x080067d8:    3030322d    -200    DCD    808464941
        0x080067dc:    45532038    8 SE    DCD    1163075640
        0x080067e0:    52454747    GGER    DCD    1380271943
        0x080067e4:    7777203a    : ww    DCD    2004295738
        0x080067e8:    65732e77    w.se    DCD    1702047351
        0x080067ec:    72656767    gger    DCD    1919248231
        0x080067f0:    6d6f632e    .com    DCD    1836016430
        0x080067f4:    00000000    ....    DCD    0
        0x080067f8:    00000000    ....    DCD    0
        0x080067fc:    00000000    ....    DCD    0
        0x08006800:    00000000    ....    DCD    0
        0x08006804:    00000000    ....    DCD    0
        0x08006808:    4c09b510    ...L    DCD    1275704592
        0x0800680c:    f005e002    ....    DCD    4026916866
        0x08006810:    340cfa3b    ;..4    DCD    873265723
        0x08006814:    42844807    .H.B    DCD    1115965447
        0x08006818:    6860d208    ..`h    DCD    1751175688
        0x0800681c:    682268a1    .h"h    DCD    1747085473
        0x08006820:    d1f44281    .B..    DCD    3522445953
        0x08006824:    f0052100    .!..    DCD    4026867968
        0x08006828:    e7f2fa3b    ;...    DCD    3891460667
        0x0800682c:    bf00bd10    ....    DCD    3204496656
        0x08006830:    08009824    $...    DCD    134256676
        0x08006834:    08009848    H...    DCD    134256712
        0x08006838:    47a04c02    .L.G    DCD    1201687554
        0x0800683c:    4c02b130    0..L    DCD    1275244848
        0x08006840:    e00347a0    .G..    DCD    3758311328
        0x08006844:    080077fd    .w..    DCD    134248445
        0x08006848:    08004181    .A..    DCD    134234497
        0x0800684c:    f04f4c03    .LO.    DCD    4031728643
        0x08006850:    47a00000    ...G    DCD    1201668096
        0x08006854:    4d034c02    .L.M    DCD    1292061698
        0x08006858:    472046ae    .F G    DCD    1193297582
        0x0800685c:    0800957d    }...    DCD    134255997
        0x08006860:    080095d9    ....    DCD    134256089
        0x08006864:    0800962d    -...    DCD    134256173
        0x08006868:    0e006800    .h..    DCD    234907648
        0x0800686c:    d00528ff    .(..    DCD    3489999103
        0x08006870:    d0012803    .(..    DCD    3489736707
        0x08006874:    d101280e    .(..    DCD    3506513934
        0x08006878:    47704801    .HpG    DCD    1198540801
        0x0800687c:    47704801    .HpG    DCD    1198540801
        0x08006880:    00000fff    ....    DCD    4095
        0x08006884:    000003ff    ....    DCD    1023
        0x08006888:    4c0bb531    1..L    DCD    1275835697
        0x0800688c:    fe90f003    ....    DCD    4270911491
        0x08006890:    1cad6825    %h..    DCD    481126437
        0x08006894:    20074669    iF.     DCD    537347689
        0x08006898:    fe3ef003    ..>.    DCD    4265537539
        0x0800689c:    d5022800    .(..    DCD    3573688320
        0x080068a0:    30fff05f    _..0    DCD    822079583
        0x080068a4:    9800bd32    2...    DCD    2550185266
        0x080068a8:    20010c41    A..     DCD    536939585
        0x080068ac:    d1024008    .@..    DCD    3506585608
        0x080068b0:    1a696821    !hi.    DCD    443115553
        0x080068b4:    bd32d5ee    ..2.    DCD    3174225390
        0x080068b8:    20000174    t..     DCD    536871284
        0x080068bc:    7900b570    p..y    DCD    2030089584
        0x080068c0:    000d0014    ....    DCD    851988
        0x080068c4:    20020601    ...     DCD    537003521
        0x080068c8:    fddaf003    ....    DCD    4258983939
        0x080068cc:    00290006    ..).    DCD    2686982
        0x080068d0:    f0032005    . ..    DCD    4026736645
        0x080068d4:    4907fdd5    ...I    DCD    1225260501
        0x080068d8:    680a4330    0C.h    DCD    1745503024
        0x080068dc:    d00742a2    .B..    DCD    3490136738
        0x080068e0:    0005600c    .`..    DCD    352268
        0x080068e4:    510cf054    T..Q    DCD    1359802452
        0x080068e8:    f0032004    . ..    DCD    4026736644
        0x080068ec:    4328fdc9    ..(C    DCD    1126759881
        0x080068f0:    0000bd70    p...    DCD    48496
        0x080068f4:    2000006c    l..     DCD    536871020
        0x080068f8:    2212b570    p.."    DCD    571651440
        0x080068fc:    4909000c    ...I    DCD    1225326604
        0x08006900:    35fff05f    _..5    DCD    905965663
        0x08006904:    ffdaf7ff    ....    DCD    4292540415
        0x08006908:    f003b948    H...    DCD    4026775880
        0x0800690c:    0006fe51    Q...    DCD    458321
        0x08006910:    20030021    !..     DCD    537067553
        0x08006914:    fe00f003    ....    DCD    4261474307
        0x08006918:    bf584330    0CX.    DCD    3210232624
        0x0800691c:    00282500    .%(.    DCD    2630912
        0x08006920:    0000bd70    p...    DCD    48496
        0x08006924:    e000edf0    ....    DCD    3758157296
        0x08006928:    0002b500    ....    DCD    177408
        0x0800692c:    6890d008    ...h    DCD    1754320904
        0x08006930:    60901840    @..`    DCD    1620056128
        0x08006934:    428868d1    .h.B    DCD    1116235985
        0x08006938:    4610bf22    "..F    DCD    1175502626
        0x0800693c:    47886811    .h.G    DCD    1200121873
        0x08006940:    0000bd00    ....    DCD    48384
        0x08006944:    f003b500    ....    DCD    4026774784
        0x08006948:    2100fd67    g..!    DCD    553712999
        0x0800694c:    f85d2003    . ].    DCD    4166852611
        0x08006950:    f003eb04    ....    DCD    4026788612
        0x08006954:    0000bde1    ....    DCD    48609
        0x08006958:    000cb5f1    ....    DCD    833009
        0x0800695c:    22110015    ..."    DCD    571539477
        0x08006960:    f7ff001f    ....    DCD    4160684063
        0x08006964:    b110ffab    ....    DCD    2970681259
        0x08006968:    30fff05f    _..0    DCD    822079583
        0x0800696c:    f003bdf2    ....    DCD    4026777074
        0x08006970:    b110fe1f    ....    DCD    2970680863
        0x08006974:    30fff05f    _..0    DCD    822079583
        0x08006978:    2d02bdf2    ...-    DCD    755154418
        0x0800697c:    1e6ed319    ..n.    DCD    510579481
        0x08006980:    20074669    iF.     DCD    537347689
        0x08006984:    fdc8f003    ....    DCD    4257804291
        0x08006988:    f003b120     ...    DCD    4026773792
        0x0800698c:    f05ffd5b    [._.    DCD    4032822619
        0x08006990:    bdf230ff    .0..    DCD    3186766079
        0x08006994:    22029800    ..."    DCD    570595328
        0x08006998:    00d14022    "@..    DCD    13713442
        0x0800699c:    900040c8    .@..    DCD    2415935688
        0x080069a0:    1ca49800    ....    DCD    480548864
        0x080069a4:    98007038    8p..    DCD    2550165560
        0x080069a8:    70780a00    ..xp    DCD    1886915072
        0x080069ac:    1e761cbf    ..v.    DCD    511057087
        0x080069b0:    4669d1e6    ..iF    DCD    1181340134
        0x080069b4:    f0032003    . ..    DCD    4026736643
        0x080069b8:    b110fdaf    ....    DCD    2970680751
        0x080069bc:    30fff05f    _..0    DCD    822079583
        0x080069c0:    9800bdf2    ....    DCD    2550185458
        0x080069c4:    40212102    .!!@    DCD    1075912962
        0x080069c8:    40c800c9    ...@    DCD    1086849225
        0x080069cc:    98009000    ....    DCD    2550173696
        0x080069d0:    0b01f807    ....    DCD    184678407
        0x080069d4:    0a009800    ....    DCD    167811072
        0x080069d8:    00287038    8p(.    DCD    2650168
        0x080069dc:    0000bdf2    ....    DCD    48626
        0x080069e0:    43f1e92d    -..C    DCD    1139927341
        0x080069e4:    001c4690    .F..    DCD    1853072
        0x080069e8:    07a22600    .&..    DCD    128067072
        0x080069ec:    2601bf08    ...&    DCD    637648648
        0x080069f0:    f7ff2212    ."..    DCD    4160692754
        0x080069f4:    b110ff63    c...    DCD    2970681187
        0x080069f8:    30fff05f    _..0    DCD    822079583
        0x080069fc:    f003e028    (...    DCD    4026785832
        0x08006a00:    2800fdd7    ...(    DCD    671153623
        0x08006a04:    4640d1f8    ..@F    DCD    1178653176
        0x08006a08:    d3172802    .(..    DCD    3541510146
        0x08006a0c:    1e6d4645    EFm.    DCD    510477893
        0x08006a10:    4669bb56    V.iF    DCD    1181334358
        0x08006a14:    f0032007    . ..    DCD    4026736647
        0x08006a18:    2800fd7f    ...(    DCD    671153535
        0x08006a1c:    9800d134    4...    DCD    2550190388
        0x08006a20:    0a017020     p..    DCD    167866400
        0x08006a24:    0c017061    ap..    DCD    201420897
        0x08006a28:    0e0070a1    .p..    DCD    234909857
        0x08006a2c:    980870e0    .p..    DCD    2550690016
        0x08006a30:    21041d24    $..!    DCD    553917732
        0x08006a34:    ff78f7ff    ..x.    DCD    4286117887
        0x08006a38:    d1ea1e6d    m...    DCD    3521781357
        0x08006a3c:    20034669    iF.     DCD    537085545
        0x08006a40:    fd6af003    ..j.    DCD    4251643907
        0x08006a44:    9900bb00    ....    DCD    2566961920
        0x08006a48:    f0050020     ...    DCD    4026859552
        0x08006a4c:    4640f88d    ..@F    DCD    1178663053
        0x08006a50:    83f2e8bd    ....    DCD    2213734589
        0x08006a54:    1c761d24    $.v.    DCD    477502756
        0x08006a58:    d30f42be    .B..    DCD    3540992702
        0x08006a5c:    00399808    ..9.    DCD    3774472
        0x08006a60:    ff62f7ff    ..b.    DCD    4284676095
        0x08006a64:    d0e91bed    ....    DCD    3504937965
        0x08006a68:    b1289808    ..(.    DCD    2972227592
        0x08006a6c:    68c09908    ...h    DCD    1757452552
        0x08006a70:    1a476889    .hG.    DCD    440887433
        0x08006a74:    d20042bd    .B..    DCD    3523232445
        0x08006a78:    2600002f    /..&    DCD    637534255
        0x08006a7c:    20070021    !..     DCD    537329697
        0x08006a80:    fd4af003    ..J.    DCD    4249546755
        0x08006a84:    d0e52800    .(..    DCD    3504678912
        0x08006a88:    fcdcf003    ....    DCD    4242337795
        0x08006a8c:    0000e7b4    ....    DCD    59316
        0x08006a90:    4ff3e92d    -..O    DCD    1341385005
        0x08006a94:    20004680    .F.     DCD    536888960
        0x08006a98:    9001000c    ....    DCD    2415984652
        0x08006a9c:    469a4691    .F.F    DCD    1184515729
        0x08006aa0:    980be007    ....    DCD    2550915079
        0x08006aa4:    090bebb9    ....    DCD    151776185
        0x08006aa8:    f000fa1b    ....    DCD    4026595867
        0x08006aac:    eb101824    $...    DCD    3943700516
        0x08006ab0:    46480a0a    ..HF    DCD    1179126282
        0x08006ab4:    d0612800    .(a.    DCD    3496028160
        0x08006ab8:    f7ff4640    @F..    DCD    4160702016
        0x08006abc:    990bfed5    ....    DCD    2567700181
        0x08006ac0:    40c843a0    .C.@    DCD    1086866336
        0x08006ac4:    45811c40    @..E    DCD    1166089280
        0x08006ac8:    4683bf2c    ,..F    DCD    1183039276
        0x08006acc:    290046cb    .F.)    DCD    687883979
        0x08006ad0:    0026d139    9.&.    DCD    2543929
        0x08006ad4:    00312210    ."1.    DCD    3219984
        0x08006ad8:    f7ff4640    @F..    DCD    4160702016
        0x08006adc:    4655feef    ..UF    DCD    1180040943
        0x08006ae0:    f05fb110    .._.    DCD    4032803088
        0x08006ae4:    e04230ff    .0B.    DCD    3762434303
        0x08006ae8:    fd62f003    ..b.    DCD    4251119619
        0x08006aec:    f05fb110    .._.    DCD    4032803088
        0x08006af0:    e03c30ff    .0<.    DCD    3762041087
        0x08006af4:    28024658    XF.(    DCD    671237720
        0x08006af8:    465fd316    .._F    DCD    1180685078
        0x08006afc:    46691e7f    ..iF    DCD    1181294207
        0x08006b00:    f0032007    . ..    DCD    4026736647
        0x08006b04:    b120fd09    .. .    DCD    2971729161
        0x08006b08:    fc9cf003    ....    DCD    4238143491
        0x08006b0c:    30fff05f    _..0    DCD    822079583
        0x08006b10:    9800e02d    -...    DCD    2550194221
        0x08006b14:    0ec907b1    ....    DCD    248055729
        0x08006b18:    900040c8    .@..    DCD    2415935688
        0x08006b1c:    1c769800    ..v.    DCD    477534208
        0x08006b20:    f8051e7f    ....    DCD    4161085055
        0x08006b24:    d1ea0b01    ....    DCD    3521776385
        0x08006b28:    20034669    iF.     DCD    537085545
        0x08006b2c:    fcf4f003    ....    DCD    4243910659
        0x08006b30:    f05fb110    .._.    DCD    4032803088
        0x08006b34:    e01a30ff    .0..    DCD    3759812863
        0x08006b38:    07b19800    ....    DCD    129079296
        0x08006b3c:    40c80ec9    ...@    DCD    1086852809
        0x08006b40:    46587028    (pXF    DCD    1180201000
        0x08006b44:    2901e011    ...)    DCD    687988753
        0x08006b48:    4653d106    ..SF    DCD    1179898118
        0x08006b4c:    0021465a    ZF!.    DCD    2180698
        0x08006b50:    f7ff4640    @F..    DCD    4160702016
        0x08006b54:    e008ff01    ....    DCD    3758685953
        0x08006b58:    4653980c    ..SF    DCD    1179883532
        0x08006b5c:    b401465a    ZF..    DCD    3019982426
        0x08006b60:    46400021    !.@F    DCD    1178599457
        0x08006b64:    ff3cf7ff    ..<.    DCD    4282185727
        0x08006b68:    2800b001    ...(    DCD    671133697
        0x08006b6c:    9001d501    ....    DCD    2416039169
        0x08006b70:    9901e004    ....    DCD    2567036932
        0x08006b74:    91011809    ....    DCD    2432768009
        0x08006b78:    d0924558    XE..    DCD    3499246936
        0x08006b7c:    e8bd9801    ....    DCD    3904739329
        0x08006b80:    00008ff6    ....    DCD    36854
        0x08006b84:    0004b530    0...    DCD    308528
        0x08006b88:    f855000d    ..U.    DCD    4166320141
        0x08006b8c:    20071b04    ...     DCD    537336580
        0x08006b90:    fc76f003    ..v.    DCD    4235653123
        0x08006b94:    d5042800    .(..    DCD    3573819392
        0x08006b98:    fc54f003    ..T.    DCD    4233424899
        0x08006b9c:    30fff05f    _..0    DCD    822079583
        0x08006ba0:    1e64bd30    0.d.    DCD    509918512
        0x08006ba4:    2000d1f1    ...     DCD    536924657
        0x08006ba8:    0000bd30    0...    DCD    48432
        0x08006bac:    41f1e92d    -..A    DCD    1106372909
        0x08006bb0:    000c9f07    ....    DCD    827143
        0x08006bb4:    001e0015    ....    DCD    1966101
        0x08006bb8:    ea512110    .!Q.    DCD    3931185424
        0x08006bbc:    00210267    g.!.    DCD    2163303
        0x08006bc0:    fe7cf7ff    ..|.    DCD    4269602815
        0x08006bc4:    f05fb110    .._.    DCD    4032803088
        0x08006bc8:    e06330ff    .0c.    DCD    3764596991
        0x08006bcc:    d10807b0    ....    DCD    3506964400
        0x08006bd0:    d1062f04    ./..    DCD    3506843396
        0x08006bd4:    00280031    1.(.    DCD    2621489
        0x08006bd8:    ffd4f7ff    ....    DCD    4292147199
        0x08006bdc:    d02e2800    .(..    DCD    3492685824
        0x08006be0:    2f01e058    X../    DCD    788652120
        0x08006be4:    f05fd102    .._.    DCD    4032811266
        0x08006be8:    e0053001    .0..    DCD    3758436353
        0x08006bec:    d1022f02    ./..    DCD    3506581250
        0x08006bf0:    1001f05f    _...    DCD    268562527
        0x08006bf4:    2001e000    ...     DCD    536993792
        0x08006bf8:    78304680    .F0x    DCD    2016429696
        0x08006bfc:    90002f02    ./..    DCD    2415931138
        0x08006c00:    7871db0d    ..qx    DCD    2020727565
        0x08006c04:    2001ea50    P..     DCD    536996432
        0x08006c08:    2f039000    .../    DCD    788762624
        0x08006c0c:    78b1db07    ...x    DCD    2024921863
        0x08006c10:    4001ea50    P..@    DCD    1073867344
        0x08006c14:    78f19000    ...x    DCD    2029096960
        0x08006c18:    6001ea50    P..`    DCD    1610738256
        0x08006c1c:    98009000    ....    DCD    2550173696
        0x08006c20:    f008fb00    ....    DCD    4027120384
        0x08006c24:    46019000    ...F    DCD    1174507520
        0x08006c28:    f0032007    . ..    DCD    4026736647
        0x08006c2c:    2800fc29    )..(    DCD    671153193
        0x08006c30:    f003d502    ....    DCD    4026782978
        0x08006c34:    e7c6fc07    ....    DCD    3888577543
        0x08006c38:    1e6d19f6    ..m.    DCD    510466550
        0x08006c3c:    f003d1dd    ....    DCD    4026782173
        0x08006c40:    4815fbeb    ...H    DCD    1209400299
        0x08006c44:    d1204284    .B .    DCD    3508552324
        0x08006c48:    07407830    0x@.    DCD    121665584
        0x08006c4c:    2002d51d    ...     DCD    537056541
        0x08006c50:    fec8f002    ....    DCD    4274581506
        0x08006c54:    20032100    .!.     DCD    537075968
        0x08006c58:    fc5ef003    ..^.    DCD    4234080259
        0x08006c5c:    4c10b1c8    ...L    DCD    1276162504
        0x08006c60:    f5106820     h..    DCD    4111493152
        0x08006c64:    20646596    .ed     DCD    543450518
        0x08006c68:    febcf002    ....    DCD    4273795074
        0x08006c6c:    20004669    iF.     DCD    536888937
        0x08006c70:    fc52f003    ..R.    DCD    4233293827
        0x08006c74:    9800b928    (...    DCD    2550184232
        0x08006c78:    05004908    .I..    DCD    83904776
        0x08006c7c:    42880d00    ...B    DCD    1116212480
        0x08006c80:    6820d007    .. h    DCD    1746980871
        0x08006c84:    d5ee1a28    (...    DCD    3589151272
        0x08006c88:    2100e003    ...!    DCD    553705475
        0x08006c8c:    f0032003    . ..    DCD    4026736643
        0x08006c90:    2000fc43    C..     DCD    536935491
        0x08006c94:    81f2e8bd    ....    DCD    2180180157
        0x08006c98:    e000ed0c    ....    DCD    3758157068
        0x08006c9c:    00000477    w...    DCD    1143
        0x08006ca0:    20000174    t..     DCD    536871284
        0x08006ca4:    43f0e92d    -..C    DCD    1139861805
        0x08006ca8:    24004680    .F.$    DCD    603997824
        0x08006cac:    0016000d    ....    DCD    1441805
        0x08006cb0:    e0074699    .F..    DCD    3758573209
        0x08006cb4:    19e49807    ....    DCD    434411527
        0x08006cb8:    fa171bf6    ....    DCD    4195818486
        0x08006cbc:    182df000    ..-.    DCD    405663744
        0x08006cc0:    0909eb10    ....    DCD    151644944
        0x08006cc4:    4640b1c6    ..@F    DCD    1178644934
        0x08006cc8:    fdcef7ff    ....    DCD    4258199551
        0x08006ccc:    98070007    ....    DCD    2550595591
        0x08006cd0:    40c743af    .C.@    DCD    1086800815
        0x08006cd4:    42be1c7f    ...B    DCD    1119755391
        0x08006cd8:    4637bf38    8.7F    DCD    1178058552
        0x08006cdc:    20019907    ...     DCD    536975623
        0x08006ce0:    4088464b    KF.@    DCD    1082672715
        0x08006ce4:    003ab401    ..:.    DCD    3847169
        0x08006ce8:    46400029    ).@F    DCD    1178599465
        0x08006cec:    ff5ef7ff    ..^.    DCD    4284413951
        0x08006cf0:    2800b001    ...(    DCD    671133697
        0x08006cf4:    0004d5de    ....    DCD    316894
        0x08006cf8:    e8bd0020     ...    DCD    3904700448
        0x08006cfc:    000083f0    ....    DCD    33776
        0x08006d00:    41f0e92d    -..A    DCD    1106307373
        0x08006d04:    4963000c    ..cI    DCD    1231224844
        0x08006d08:    46800015    ...F    DCD    1182793749
        0x08006d0c:    2212001e    ..."    DCD    571605022
        0x08006d10:    fdd4f7ff    ....    DCD    4258592767
        0x08006d14:    f8980007    ....    DCD    4170711047
        0x08006d18:    21100004    ...!    DCD    554696708
        0x08006d1c:    6100ea51    Q..a    DCD    1627449937
        0x08006d20:    f0032002    . ..    DCD    4026736642
        0x08006d24:    f814fbad    ....    DCD    4162124717
        0x08006d28:    20051b01    ...     DCD    537205505
        0x08006d2c:    fba8f003    ....    DCD    4222152707
        0x08006d30:    20062100    .!.     DCD    537272576
        0x08006d34:    fbf0f003    ....    DCD    4226871299
        0x08006d38:    20030029    )..     DCD    537067561
        0x08006d3c:    fbecf003    ....    DCD    4226609155
        0x08006d40:    1e761d2d    -.v.    DCD    511057197
        0x08006d44:    0038d1ef    ..8.    DCD    3723759
        0x08006d48:    81f0e8bd    ....    DCD    2180049085
        0x08006d4c:    000db5f0    ....    DCD    898544
        0x08006d50:    00044950    PI..    DCD    280912
        0x08006d54:    001f0016    ....    DCD    2031638
        0x08006d58:    f7ff2212    ."..    DCD    4160692754
        0x08006d5c:    b401fdaf    ....    DCD    3020029359
        0x08006d60:    21107920     y.!    DCD    554727712
        0x08006d64:    6100ea51    Q..a    DCD    1627449937
        0x08006d68:    f0032002    . ..    DCD    4026736642
        0x08006d6c:    0001fb89    ....    DCD    129929
        0x08006d70:    4301bc01    ...C    DCD    1124187137
        0x08006d74:    f856000c    ..V.    DCD    4166385676
        0x08006d78:    20061b04    ...     DCD    537271044
        0x08006d7c:    fb80f003    ....    DCD    4219531267
        0x08006d80:    0b01f815    ....    DCD    184678421
        0x08006d84:    3180f450    P..1    DCD    830534736
        0x08006d88:    f0032005    . ..    DCD    4026736645
        0x08006d8c:    1e7ffb79    y...    DCD    511703929
        0x08006d90:    f7ffd1f1    ....    DCD    4160737777
        0x08006d94:    0020fdd7    .. .    DCD    2162135
        0x08006d98:    0000bdf0    ....    DCD    48624
        0x08006d9c:    4669b511    ..iF    DCD    1181332753
        0x08006da0:    f7ff0004    ....    DCD    4160684036
        0x08006da4:    b138fda9    ..8.    DCD    2973302185
        0x08006da8:    00204669    iF .    DCD    2115177
        0x08006dac:    fda4f7ff    ....    DCD    4255447039
        0x08006db0:    f05fb110    .._.    DCD    4032803088
        0x08006db4:    bd1230ff    .0..    DCD    3172086015
        0x08006db8:    03009800    ....    DCD    50370560
        0x08006dbc:    4935d510    ..5I    DCD    1228264720
        0x08006dc0:    00202212    ." .    DCD    2105874
        0x08006dc4:    fd7af7ff    ..z.    DCD    4252694527
        0x08006dc8:    4933b930    0.3I    DCD    1228126512
        0x08006dcc:    f0032007    . ..    DCD    4026736647
        0x08006dd0:    b908fb57    W...    DCD    3104373591
        0x08006dd4:    fb20f003    .. .    DCD    4213239811
        0x08006dd8:    00204669    iF .    DCD    2115177
        0x08006ddc:    fd8cf7ff    ....    DCD    4253874175
        0x08006de0:    0c419800    ..A.    DCD    205625344
        0x08006de4:    40082001    . .@    DCD    1074274305
        0x08006de8:    0000bd12    ....    DCD    48402
        0x08006dec:    b5004929    )I..    DCD    3036694825
        0x08006df0:    f7ff2202    ."..    DCD    4160692738
        0x08006df4:    4928fd63    c.(I    DCD    1227423075
        0x08006df8:    f0032007    . ..    DCD    4026736647
        0x08006dfc:    f85dfb41    A.].    DCD    4166908737
        0x08006e00:    e541eb04    ..A.    DCD    3846302468
        0x08006e04:    2900b510    ...)    DCD    687912208
        0x08006e08:    4c23bf0c    ..#L    DCD    1277411084
        0x08006e0c:    49114c10    .L.I    DCD    1225870352
        0x08006e10:    f7ff2202    ."..    DCD    4160692738
        0x08006e14:    211ffd53    S..!    DCD    555744595
        0x08006e18:    f0032007    . ..    DCD    4026736647
        0x08006e1c:    491dfb31    1..I    DCD    1226701617
        0x08006e20:    f0032005    . ..    DCD    4026736645
        0x08006e24:    0021fb2d    -.!.    DCD    2226989
        0x08006e28:    f0032007    . ..    DCD    4026736647
        0x08006e2c:    2002fb29    )..     DCD    537066281
        0x08006e30:    00214384    .C!.    DCD    2179972
        0x08006e34:    f0032007    . ..    DCD    4026736647
        0x08006e38:    f003fb23    #...    DCD    4026792739
        0x08006e3c:    4806faed    ...H    DCD    1208417005
        0x08006e40:    b1086800    .h..    DCD    2970118144
        0x08006e44:    f89cf002    ....    DCD    4171034626
        0x08006e48:    4010e8bd    ...@    DCD    1074849981
        0x08006e4c:    bf00e57a    z...    DCD    3204507002
        0x08006e50:    a05f000b    .._.    DCD    2690580491
        0x08006e54:    e000ed30    0...    DCD    3758157104
        0x08006e58:    2000054c    L..     DCD    536872268
        0x08006e5c:    b510490d    .I..    DCD    3037743373
        0x08006e60:    f7ff2202    ."..    DCD    4160692738
        0x08006e64:    4909fd2b    +..I    DCD    1225391403
        0x08006e68:    f0032007    . ..    DCD    4026736647
        0x08006e6c:    4908fb09    ...I    DCD    1225325321
        0x08006e70:    f0032007    . ..    DCD    4026736647
        0x08006e74:    f7fffb05    ....    DCD    4160748293
        0x08006e78:    4907fd07    ...I    DCD    1225260295
        0x08006e7c:    20070004    ...     DCD    537329668
        0x08006e80:    fafef003    ....    DCD    4211011587
        0x08006e84:    fd5ef7ff    ..^.    DCD    4250859519
        0x08006e88:    bd100020     ...    DCD    3171942432
        0x08006e8c:    a05f000f    .._.    DCD    2690580495
        0x08006e90:    a05f000d    .._.    DCD    2690580493
        0x08006e94:    e000edf0    ....    DCD    3758157296
        0x08006e98:    a05f0003    .._.    DCD    2690580483
        0x08006e9c:    2301b503    ...#    DCD    587314435
        0x08006ea0:    210faa01    ...!    DCD    554674689
        0x08006ea4:    1000f88d    ....    DCD    268499085
        0x08006ea8:    f7ff4669    iF..    DCD    4160702057
        0x08006eac:    bd06ff4f    O...    DCD    3171352399
        0x08006eb0:    4c11b531    1..L    DCD    1276228913
        0x08006eb4:    b1894d11    .M..    DCD    2978565393
        0x08006eb8:    fabef003    ....    DCD    4206817283
        0x08006ebc:    21004817    .H.!    DCD    553666583
        0x08006ec0:    68286001    .`(h    DCD    1747476481
        0x08006ec4:    d21642a0    .B..    DCD    3524674208
        0x08006ec8:    20014669    iF.     DCD    536954473
        0x08006ecc:    fb24f003    ..$.    DCD    4213501955
        0x08006ed0:    20019900    ...     DCD    536975616
        0x08006ed4:    f0034381    .C..    DCD    4026745729
        0x08006ed8:    bd31fad3    ..1.    DCD    3174169299
        0x08006edc:    42a06828    (h.B    DCD    1117808680
        0x08006ee0:    4669d209    ..iF    DCD    1181340169
        0x08006ee4:    f0032001    . ..    DCD    4026736641
        0x08006ee8:    9800fb17    ....    DCD    2550201111
        0x08006eec:    0101f050    P...    DCD    16904272
        0x08006ef0:    f0032001    . ..    DCD    4026736641
        0x08006ef4:    bd31fac5    ..1.    DCD    3174169285
        0x08006ef8:    0000aea6    ....    DCD    44710
        0x08006efc:    20000548    H..     DCD    536872264
        0x08006f00:    b5104b06    .K..    DCD    3037743878
        0x08006f04:    601c2400    .$.`    DCD    1612456960
        0x08006f08:    600b6803    .h.`    DCD    1611360259
        0x08006f0c:    4b42b90b    ..BK    DCD    1262663947
        0x08006f10:    7b00600b    .`.{    DCD    2063622155
        0x08006f14:    71083a08    .:.q    DCD    1896364552
        0x08006f18:    bd100010    ....    DCD    3171942416
        0x08006f1c:    2000006c    l..     DCD    536871020
        0x08006f20:    2908b500    ...)    DCD    688436480
        0x08006f24:    4802bf04    ...H    DCD    1208139524
        0x08006f28:    2000bd00    ...     DCD    536919296
        0x08006f2c:    bf00bd00    ....    DCD    3204496640
        0x08006f30:    80000037    7...    DCD    2147483703
        0x08006f34:    b0abb530    0...    DCD    2964043056
        0x08006f38:    21020004    ...!    DCD    553779204
        0x08006f3c:    f0024668    hF..    DCD    4026680936
        0x08006f40:    f8bdf949    I...    DCD    4173199689
        0x08006f44:    a80b1000    ....    DCD    2819297280
        0x08006f48:    f944f002    ..D.    DCD    4182044674
        0x08006f4c:    0000f8bd    ....    DCD    63677
        0x08006f50:    d3042804    .(..    DCD    3540264964
        0x08006f54:    f004a80b    ....    DCD    4026837003
        0x08006f58:    0005fe11    ....    DCD    392721
        0x08006f5c:    4d2ee000    ...M    DCD    1294917632
        0x08006f60:    21002228    (".!    DCD    553656872
        0x08006f64:    f004a801    ....    DCD    4026836993
        0x08006f68:    2001fe15    ...     DCD    537001493
        0x08006f6c:    f88d9501    ....    DCD    4170028289
        0x08006f70:    20000008    ...     DCD    536870920
        0x08006f74:    0009f88d    ....    DCD    653453
        0x08006f78:    22404826    &H@"    DCD    574638118
        0x08006f7c:    9006a91b    ....    DCD    2416355611
        0x08006f80:    f7ffa801    ....    DCD    4160727041
        0x08006f84:    2101ffbd    ...!    DCD    553779133
        0x08006f88:    f7ffa80b    ....    DCD    4160727051
        0x08006f8c:    2c64ff91    ..d,    DCD    744816529
        0x08006f90:    2c65d012    ..e,    DCD    744869906
        0x08006f94:    2c6ed014    ..n,    DCD    745459732
        0x08006f98:    2c6fd016    ..o,    DCD    745525270
        0x08006f9c:    2c79d018    ..y,    DCD    746180632
        0x08006fa0:    2c7ad01a    ..z,    DCD    746246170
        0x08006fa4:    2c7bd01c    ..{,    DCD    746311708
        0x08006fa8:    2c7cd01e    ..|,    DCD    746377246
        0x08006fac:    2c82d020     ..,    DCD    746770464
        0x08006fb0:    2c83d022    "..,    DCD    746836002
        0x08006fb4:    e026d024    $.&.    DCD    3760640036
        0x08006fb8:    f000a801    ....    DCD    4026574849
        0x08006fbc:    e022fde1    ..".    DCD    3760389601
        0x08006fc0:    f000a801    ....    DCD    4026574849
        0x08006fc4:    e01efd7f    ....    DCD    3760127359
        0x08006fc8:    f000a801    ....    DCD    4026574849
        0x08006fcc:    e01afe95    ....    DCD    3759865493
        0x08006fd0:    f000a801    ....    DCD    4026574849
        0x08006fd4:    e016febd    ....    DCD    3759603389
        0x08006fd8:    f000a801    ....    DCD    4026574849
        0x08006fdc:    e012fedf    ....    DCD    3759341279
        0x08006fe0:    f000a801    ....    DCD    4026574849
        0x08006fe4:    e00efee9    ....    DCD    3759079145
        0x08006fe8:    f000a801    ....    DCD    4026574849
        0x08006fec:    e00afeef    ....    DCD    3758817007
        0x08006ff0:    f000a801    ....    DCD    4026574849
        0x08006ff4:    e006fef5    ....    DCD    3758554869
        0x08006ff8:    f000a801    ....    DCD    4026574849
        0x08006ffc:    e002fefb    ....    DCD    3758292731
        0x08007000:    f000a801    ....    DCD    4026574849
        0x08007004:    2100ff2f    /..!    DCD    553713455
        0x08007008:    f7ffa80b    ....    DCD    4160727051
        0x0800700c:    b02bff51    Q.+.    DCD    2955673425
        0x08007010:    bf00bd30    0...    DCD    3204496688
        0x08007014:    080098b4    ....    DCD    134256820
        0x08007018:    030000ff    ....    DCD    50331903
        0x0800701c:    f001b510    ....    DCD    4026643728
        0x08007020:    0004fb93    ....    DCD    326547
        0x08007024:    f0022070    p ..    DCD    4026671216
        0x08007028:    2170f8bf    ..p!    DCD    561051839
        0x0800702c:    e8bd0020     ...    DCD    3904700448
        0x08007030:    f0024010    .@..    DCD    4026679312
        0x08007034:    0000b88f    ....    DCD    47247
        0x08007038:    00004770    pG..    DCD    18288
        0x0800703c:    4ff3e92d    -..O    DCD    1341385005
        0x08007040:    20004680    .F.     DCD    536888960
        0x08007044:    0000f88d    ....    DCD    63629
        0x08007048:    f05f2600    .&_.    DCD    4032767488
        0x0800704c:    f00130ff    .0..    DCD    4026609919
        0x08007050:    4640f92d    -.@F    DCD    1178663213
        0x08007054:    d10a28cd    .(..    DCD    3507103949
        0x08007058:    a8012102    .!..    DCD    2818646274
        0x0800705c:    f8baf002    ....    DCD    4173000706
        0x08007060:    1005f89d    ....    DCD    268826781
        0x08007064:    0004f89d    ....    DCD    325789
        0x08007068:    2401eb10    ...$    DCD    604105488
        0x0800706c:    2103e009    ...!    DCD    553902089
        0x08007070:    f002a801    ....    DCD    4026705921
        0x08007074:    f89df8af    ....    DCD    4171102383
        0x08007078:    f89d1006    ....    DCD    4171042822
        0x0800707c:    eb100005    ....    DCD    3943694341
        0x08007080:    b2a42401    .$..    DCD    2997101569
        0x08007084:    10c01de0    ....    DCD    281026016
        0x08007088:    00474681    .FG.    DCD    4671105
        0x0800708c:    f0011c78    x...    DCD    4026604664
        0x08007090:    4682ffd3    ...F    DCD    1182990291
        0x08007094:    eb194840    @H..    DCD    3944302656
        0x08007098:    4683050a    ...F    DCD    1182991626
        0x0800709c:    b9684650    PFh.    DCD    3110618704
        0x080070a0:    f0020038    8...    DCD    4026662968
        0x080070a4:    4648f89f    ..HF    DCD    1179187359
        0x080070a8:    f860f002    ..`.    DCD    4167102466
        0x080070ac:    f88d2006    . ..    DCD    4169998342
        0x080070b0:    21010000    ...!    DCD    553713664
        0x080070b4:    f0024668    hF..    DCD    4026680936
        0x080070b8:    e050f84d    M.P.    DCD    3763402829
        0x080070bc:    00284649    IF(.    DCD    2639433
        0x080070c0:    f888f002    ....    DCD    4169723906
        0x080070c4:    46504649    IFPF    DCD    1179665993
        0x080070c8:    f89cf002    ....    DCD    4171034626
        0x080070cc:    f8b8f002    ....    DCD    4172869634
        0x080070d0:    0100ebb9    ....    DCD    16837561
        0x080070d4:    b1181b8f    ....    DCD    2971147151
        0x080070d8:    ddf72fff    ./..    DCD    3723964415
        0x080070dc:    4387203f    ? .C    DCD    1132929087
        0x080070e0:    454900fb    ..IE    DCD    1162412283
        0x080070e4:    1de0d104    ....    DCD    501272836
        0x080070e8:    0f400740    @.@.    DCD    255854400
        0x080070ec:    181b1fc0    ....    DCD    404430784
        0x080070f0:    0000f89d    ....    DCD    63645
        0x080070f4:    4829b9b0    ..)H    DCD    1210694064
        0x080070f8:    b9407800    .x@.    DCD    3108009984
        0x080070fc:    19a919aa    ....    DCD    430512554
        0x08007100:    19804650    PF..    DCD    427837008
        0x08007104:    fd60f001    ..`.    DCD    4250988545
        0x08007108:    0000f88d    ....    DCD    63629
        0x0800710c:    2801e010    ...(    DCD    671211536
        0x08007110:    19aad10e    ....    DCD    430625038
        0x08007114:    465019a9    ..PF    DCD    1179654569
        0x08007118:    f0011980    ....    DCD    4026603904
        0x0800711c:    f88dfe55    U...    DCD    4170055253
        0x08007120:    e0050000    ....    DCD    3758424064
        0x08007124:    10da1ddb    ....    DCD    282729947
        0x08007128:    19a82100    .!..    DCD    430448896
        0x0800712c:    fd32f004    ..2.    DCD    4247973892
        0x08007130:    28d54640    @F.(    DCD    685065792
        0x08007134:    0039d010    ..9.    DCD    3788816
        0x08007138:    d10a28cf    .(..    DCD    3507103951
        0x0800713c:    0000f89b    ....    DCD    63643
        0x08007140:    19f0b138    8...    DCD    435204408
        0x08007144:    d1044548    HE..    DCD    3506718024
        0x08007148:    2000f89d    ...     DCD    536934557
        0x0800714c:    1c4919a8    ..I.    DCD    474552744
        0x08007150:    19a855c2    .U..    DCD    430462402
        0x08007154:    f820f002    .. .    DCD    4162908162
        0x08007158:    454e19f6    ..NE    DCD    1162746358
        0x0800715c:    480dd1b6    ...H    DCD    1208865206
        0x08007160:    b9117801    .x..    DCD    3104929793
        0x08007164:    1000f89d    ....    DCD    268499101
        0x08007168:    46407001    .p@F    DCD    1178628097
        0x0800716c:    d00b28d5    .(..    DCD    3490392277
        0x08007170:    f82cf002    ..,.    DCD    4163694594
        0x08007174:    28cf4640    @F.(    DCD    684672576
        0x08007178:    f89bd106    ....    DCD    4170961158
        0x0800717c:    b9180000    ....    DCD    3105357824
        0x08007180:    0000f89d    ....    DCD    63645
        0x08007184:    f80cf002    ....    DCD    4161597442
        0x08007188:    f0014650    PF..    DCD    4026615376
        0x0800718c:    e8bdff77    w...    DCD    3904765815
        0x08007190:    bf008ff3    ....    DCD    3204485107
        0x08007194:    20000fe0    ...     DCD    536874976
        0x08007198:    20000fe1    ...     DCD    536874977
        0x0800719c:    20000fef    ...     DCD    536874991
        0x080071a0:    4ff0e92d    -..O    DCD    1341188397
        0x080071a4:    2102b085    ...!    DCD    553824389
        0x080071a8:    f0024668    hF..    DCD    4026680936
        0x080071ac:    2102f813    ...!    DCD    553842707
        0x080071b0:    f002a801    ....    DCD    4026705921
        0x080071b4:    2102f80f    ...!    DCD    553842703
        0x080071b8:    f002a802    ....    DCD    4026705922
        0x080071bc:    2102f80b    ...!    DCD    553842699
        0x080071c0:    f002a803    ....    DCD    4026705923
        0x080071c4:    2102f807    ...!    DCD    553842695
        0x080071c8:    f002a804    ....    DCD    4026705924
        0x080071cc:    f8bdf803    ....    DCD    4173199363
        0x080071d0:    21030000    ...!    DCD    553844736
        0x080071d4:    30094348    HC.0    DCD    805913416
        0x080071d8:    ff2ef001    ....    DCD    4281266177
        0x080071dc:    f8bd0004    ....    DCD    4173135876
        0x080071e0:    18210000    ..!.    DCD    404815872
        0x080071e4:    eb104688    .F..    DCD    3943712392
        0x080071e8:    46010508    ...F    DCD    1174471944
        0x080071ec:    f0010020     ...    DCD    4026597408
        0x080071f0:    f8bdfff1    ....    DCD    4173201393
        0x080071f4:    46401000    ..@F    DCD    1178603520
        0x080071f8:    ffecf001    ....    DCD    4293718017
        0x080071fc:    9f019804    ....    DCD    2667681796
        0x08007200:    b000f8bd    ....    DCD    2952853693
        0x08007204:    98034681    .F..    DCD    2550351489
        0x08007208:    98024682    .F..    DCD    2550285954
        0x0800720c:    182eb280    ....    DCD    405713536
        0x08007210:    fd71f002    ..q.    DCD    4252102658
        0x08007214:    f9b2f001    ....    DCD    4189253633
        0x08007218:    f9b4f001    ....    DCD    4189384705
        0x0800721c:    1e470038    8.G.    DCD    507969592
        0x08007220:    d0100400    ....    DCD    3490710528
        0x08007224:    00c34658    XF..    DCD    12797528
        0x08007228:    0021002a    *.!.    DCD    2162730
        0x0800722c:    f0014640    @F..    DCD    4026615360
        0x08007230:    7871fccb    ..qx    DCD    2020736203
        0x08007234:    ea507830    0xP.    DCD    3931142192
        0x08007238:    46512001    . QF    DCD    1179721729
        0x0800723c:    46484001    .@HF    DCD    1179140097
        0x08007240:    4281b280    ...B    DCD    1115796096
        0x08007244:    f002d1ea    ....    DCD    4026716650
        0x08007248:    f8bdf9d3    ....    DCD    4173199827
        0x0800724c:    00281000    ..(.    DCD    2625536
        0x08007250:    ff80f001    ....    DCD    4286640129
        0x08007254:    f0010020     ...    DCD    4026597408
        0x08007258:    b005ff11    ....    DCD    2953182993
        0x0800725c:    8ff0e8bd    ....    DCD    2414930109
        0x08007260:    47f0e92d    -..G    DCD    1206970669
        0x08007264:    f8bd4e14    .N..    DCD    4173155860
        0x08007268:    00147020     p..    DCD    1339424
        0x0800726c:    f8bd4680    .F..    DCD    4173153920
        0x08007270:    46890024    $..F    DCD    1183383588
        0x08007274:    1825469a    .F%.    DCD    405096090
        0x08007278:    f0022001    . ..    DCD    4026671105
        0x0800727c:    f001fbb3    ....    DCD    4026661811
        0x08007280:    f001f97d    }...    DCD    4026661245
        0x08007284:    6830f97f    ..0h    DCD    1748040063
        0x08007288:    465019c7    ..PF    DCD    1179654599
        0x0800728c:    002200c3    ..".    DCD    2228419
        0x08007290:    46404649    IF@F    DCD    1178617417
        0x08007294:    fc98f001    ....    DCD    4237881345
        0x08007298:    78287869    ix(x    DCD    2015918185
        0x0800729c:    2001ea50    P..     DCD    536996432
        0x080072a0:    1028f8bd    ..(.    DCD    271120573
        0x080072a4:    f8bd4001    .@..    DCD    4173152257
        0x080072a8:    4281002c    ,..B    DCD    1115750444
        0x080072ac:    6830d002    ..0h    DCD    1748029442
        0x080072b0:    d5ea1a38    8...    DCD    3588889144
        0x080072b4:    87f0e8bd    ....    DCD    2280712381
        0x080072b8:    20000174    t..     DCD    536871284
        0x080072bc:    b085b570    p...    DCD    2961552752
        0x080072c0:    46682102    .!hF    DCD    1181229314
        0x080072c4:    ff86f001    ....    DCD    4287033345
        0x080072c8:    a8012102    .!..    DCD    2818646274
        0x080072cc:    ff82f001    ....    DCD    4286771201
        0x080072d0:    a8022102    .!..    DCD    2818711810
        0x080072d4:    ff7ef001    ..~.    DCD    4286509057
        0x080072d8:    a8032102    .!..    DCD    2818777346
        0x080072dc:    ff7af001    ..z.    DCD    4286246913
        0x080072e0:    a8042102    .!..    DCD    2818842882
        0x080072e4:    ff76f001    ..v.    DCD    4285984769
        0x080072e8:    0000f8bd    ....    DCD    63677
        0x080072ec:    43482103    .!HC    DCD    1128800515
        0x080072f0:    f0013009    .0..    DCD    4026609673
        0x080072f4:    0004fea1    ....    DCD    327329
        0x080072f8:    0000f8bd    ....    DCD    63677
        0x080072fc:    182e1825    %...    DCD    405674021
        0x08007300:    00204601    .F .    DCD    2115073
        0x08007304:    ff66f001    ..f.    DCD    4284936193
        0x08007308:    1000f8bd    ....    DCD    268499133
        0x0800730c:    f0010028    (...    DCD    4026597416
        0x08007310:    9b04ff61    a...    DCD    2600796001
        0x08007314:    99029a03    ....    DCD    2567084547
        0x08007318:    b2929801    ....    DCD    2995951617
        0x0800731c:    b280b289    ....    DCD    2994778761
        0x08007320:    b40fb29b    ....    DCD    3020927643
        0x08007324:    3010f8bd    ...0    DCD    806418621
        0x08007328:    00320028    (.2.    DCD    3276840
        0x0800732c:    f7ff0021    !...    DCD    4160684065
        0x08007330:    f8bdff97    ....    DCD    4173201303
        0x08007334:    00301010    ..0.    DCD    3149840
        0x08007338:    ff0cf001    ....    DCD    4279037953
        0x0800733c:    f0010020     ...    DCD    4026597408
        0x08007340:    b009fe9d    ....    DCD    2953445021
        0x08007344:    0000bd70    p...    DCD    48496
        0x08007348:    f001b503    ....    DCD    4026643715
        0x0800734c:    f8adfb39    9...    DCD    4172151609
        0x08007350:    f0010000    ....    DCD    4026597376
        0x08007354:    f88dfb3f    ?...    DCD    4170054463
        0x08007358:    f0010002    ....    DCD    4026597378
        0x0800735c:    f88dfb43    C...    DCD    4170054467
        0x08007360:    f0010003    ....    DCD    4026597379
        0x08007364:    f88dfb43    C...    DCD    4170054467
        0x08007368:    f0010004    ....    DCD    4026597380
        0x0800736c:    f88dfb2d    -...    DCD    4170054445
        0x08007370:    f0010005    ....    DCD    4026597381
        0x08007374:    f88dfb41    A...    DCD    4170054465
        0x08007378:    f0010006    ....    DCD    4026597382
        0x0800737c:    2108fb45    E..!    DCD    554236741
        0x08007380:    0007f88d    ....    DCD    522381
        0x08007384:    0000e07e    ~...    DCD    57470
        0x08007388:    2004b500    ...     DCD    537179392
        0x0800738c:    ff0cf001    ....    DCD    4279037953
        0x08007390:    f0014804    .H..    DCD    4026615812
        0x08007394:    f45fff09    .._.    DCD    4099931913
        0x08007398:    f85d6000    .`].    DCD    4166868992
        0x0800739c:    f001eb04    ....    DCD    4026657540
        0x080073a0:    bf00bf03    ....    DCD    3204497155
        0x080073a4:    00002ee3    ....    DCD    12003
        0x080073a8:    b0c0b500    ....    DCD    2965419264
        0x080073ac:    7280f45f    _..r    DCD    1921053791
        0x080073b0:    46682100    .!hF    DCD    1181229312
        0x080073b4:    f9fef001    ....    DCD    4194234369
        0x080073b8:    7180f45f    _..q    DCD    1904276575
        0x080073bc:    0000e0f0    ....    DCD    57584
        0x080073c0:    f5adb510    ....    DCD    4121802000
        0x080073c4:    f45f7d01    .}_.    DCD    4099898625
        0x080073c8:    a8017180    .q..    DCD    2818666880
        0x080073cc:    ff02f001    ....    DCD    4278382593
        0x080073d0:    d42a2800    .(*.    DCD    3559532544
        0x080073d4:    7280f45f    _..r    DCD    1921053791
        0x080073d8:    a8412100    .!A.    DCD    2822840576
        0x080073dc:    f9eaf001    ....    DCD    4192923649
        0x080073e0:    7080f45f    _..p    DCD    1887499359
        0x080073e4:    aa41a901    ..A.    DCD    2856429825
        0x080073e8:    7814780b    .x.x    DCD    2014607371
        0x080073ec:    429c401c    .@.B    DCD    1117536284
        0x080073f0:    1c49d11b    ..I.    DCD    474599707
        0x080073f4:    1e401c52    R.@.    DCD    507518034
        0x080073f8:    9809d1f6    ....    DCD    2550780406
        0x080073fc:    9801b1a8    ....    DCD    2550247848
        0x08007400:    2204b198    ..."    DCD    570732952
        0x08007404:    46682100    .!hF    DCD    1181229312
        0x08007408:    f9d4f001    ....    DCD    4191481857
        0x0800740c:    f05f9800    .._.    DCD    4032796672
        0x08007410:    428831ff    .1.B    DCD    1116221951
        0x08007414:    9801d003    ....    DCD    2550255619
        0x08007418:    42889900    ...B    DCD    1116248320
        0x0800741c:    f45fd105    .._.    DCD    4099920133
        0x08007420:    21007280    .r.!    DCD    553677440
        0x08007424:    f001a801    ....    DCD    4026640385
        0x08007428:    2000f9d1    ...     DCD    536934865
        0x0800742c:    feb8f001    ....    DCD    4273532929
        0x08007430:    7d01f50d    ...}    DCD    2097280269
        0x08007434:    0000bd10    ....    DCD    48400
        0x08007438:    21044801    .H.!    DCD    553928705
        0x0800743c:    be8af001    ....    DCD    3196776449
        0x08007440:    08009904    ....    DCD    134256900
        0x08007444:    b088b500    ....    DCD    2961749248
        0x08007448:    21002220     ".!    DCD    553656864
        0x0800744c:    f0044668    hF..    DCD    4026812008
        0x08007450:    4908fba1    ...I    DCD    1225325473
        0x08007454:    f0044668    hF..    DCD    4026812008
        0x08007458:    200cfb87    ...     DCD    537721735
        0x0800745c:    0004f88d    ....    DCD    325773
        0x08007460:    f88d2028    ( ..    DCD    4169998376
        0x08007464:    21200005    .. !    DCD    555745285
        0x08007468:    f0014668    hF..    DCD    4026615400
        0x0800746c:    b008fe73    s...    DCD    2953379443
        0x08007470:    bf00bd00    ....    DCD    3204496640
        0x08007474:    88ea5833    3X..    DCD    2297059379
        0x08007478:    4668b503    ..hF    DCD    1181267203
        0x0800747c:    fbc2f001    ....    DCD    4223856641
        0x08007480:    bf002106    .!..    DCD    3204456710
        0x08007484:    f0014668    hF..    DCD    4026615400
        0x08007488:    bd03fe65    e...    DCD    3171155557
        0x0800748c:    f001b500    ....    DCD    4026643712
        0x08007490:    f85dfa3f    ?.].    DCD    4166908479
        0x08007494:    f001eb04    ....    DCD    4026657540
        0x08007498:    0000be8d    ....    DCD    48781
        0x0800749c:    b0a2b5f0    ....    DCD    2963453424
        0x080074a0:    a8012104    .!..    DCD    2818646276
        0x080074a4:    fe96f001    ....    DCD    4271304705
        0x080074a8:    26002400    .$.&    DCD    637543424
        0x080074ac:    e00e4625    %F..    DCD    3759031845
        0x080074b0:    f45f9800    .._.    DCD    4099905536
        0x080074b4:    1a38717a    zq8.    DCD    439906682
        0x080074b8:    fb96f004    ....    DCD    4220973060
        0x080074bc:    a8020007    ....    DCD    2818703367
        0x080074c0:    7025f840    @.%p    DCD    1881536576
        0x080074c4:    98011c6d    m...    DCD    2550209645
        0x080074c8:    08401c76    v.@.    DCD    138419318
        0x080074cc:    98019001    ....    DCD    2550239233
        0x080074d0:    07c0b1d8    ....    DCD    130068952
        0x080074d4:    2e0dd5f7    ....    DCD    772658679
        0x080074d8:    2002d103    ...     DCD    537055491
        0x080074dc:    fb9cf001    ....    DCD    4221366273
        0x080074e0:    0030e7ec    ..0.    DCD    3205100
        0x080074e4:    fb98f001    ....    DCD    4221104129
        0x080074e8:    1eb00007    ....    DCD    514850823
        0x080074ec:    d8e62802    .(..    DCD    3638962178
        0x080074f0:    21802204    .".!    DCD    562045444
        0x080074f4:    f0014668    hF..    DCD    4026615400
        0x080074f8:    9800f931    1...    DCD    2550200625
        0x080074fc:    bf5d2800    .(].    DCD    3210553344
        0x08007500:    10400040    @.@.    DCD    272629824
        0x08007504:    94009000    ....    DCD    2483064832
        0x08007508:    00a9e7d2    ....    DCD    11134930
        0x0800750c:    f001a802    ....    DCD    4026640386
        0x08007510:    b022fe21    !.".    DCD    2955083297
        0x08007514:    0000bdf0    ....    DCD    48624
        0x08007518:    b0a1b530    0...    DCD    2963387696
        0x0800751c:    25002400    .$.%    DCD    620766208
        0x08007520:    46682104    .!hF    DCD    1181229316
        0x08007524:    fe56f001    ..V.    DCD    4267110401
        0x08007528:    e00fa901    ....    DCD    3759122689
        0x0800752c:    d50907c0    ....    DCD    3574138816
        0x08007530:    30fff05f    _..0    DCD    822079583
        0x08007534:    bfbc2d04    .-..    DCD    3216780548
        0x08007538:    f8504809    .HP.    DCD    4166010889
        0x0800753c:    f8410025    %.A.    DCD    4165009445
        0x08007540:    1c640024    $.d.    DCD    476315684
        0x08007544:    1c6d9800    ..m.    DCD    476944384
        0x08007548:    90000840    @...    DCD    2415921216
        0x0800754c:    28009800    ...(    DCD    671127552
        0x08007550:    00a1d1ec    ....    DCD    10605036
        0x08007554:    f001a801    ....    DCD    4026640385
        0x08007558:    b021fdfd    ..!.    DCD    2955017725
        0x0800755c:    0000bd30    0...    DCD    48432
        0x08007560:    20000070    p..     DCD    536871024
        0x08007564:    2104b503    ...!    DCD    553956611
        0x08007568:    f0014668    hF..    DCD    4026615400
        0x0800756c:    2104fe33    3..!    DCD    553975347
        0x08007570:    f001a801    ....    DCD    4026640385
        0x08007574:    9901fe2f    /...    DCD    2567044655
        0x08007578:    e7849800    ....    DCD    3884226560
        0x0800757c:    f001b500    ....    DCD    4026643712
        0x08007580:    f85dfd4d    M.].    DCD    4166909261
        0x08007584:    f001eb04    ....    DCD    4026657540
        0x08007588:    0000be15    ....    DCD    48661
        0x0800758c:    b0c0b500    ....    DCD    2965419264
        0x08007590:    7280f45f    _..r    DCD    1921053791
        0x08007594:    46682100    .!hF    DCD    1181229312
        0x08007598:    f8e0f001    ....    DCD    4175491073
        0x0800759c:    7180f45f    _..q    DCD    1904276575
        0x080075a0:    f0014668    hF..    DCD    4026615400
        0x080075a4:    b040fdd7    ..@.    DCD    2957049303
        0x080075a8:    0000bd00    ....    DCD    48384
        0x080075ac:    b0c0b500    ....    DCD    2965419264
        0x080075b0:    7180f45f    _..q    DCD    1904276575
        0x080075b4:    f0014668    hF..    DCD    4026615400
        0x080075b8:    f45ffe0d    .._.    DCD    4099931661
        0x080075bc:    21007280    .r.!    DCD    553677440
        0x080075c0:    f0014668    hF..    DCD    4026615400
        0x080075c4:    b040f8d7    ..@.    DCD    2957048023
        0x080075c8:    0000bd00    ....    DCD    48384
        0x080075cc:    2101b503    ...!    DCD    553760003
        0x080075d0:    f001a801    ....    DCD    4026640385
        0x080075d4:    9000fdff    ....    DCD    2415984127
        0x080075d8:    f89db988    ....    DCD    4171086216
        0x080075dc:    28fe0004    ...(    DCD    687734788
        0x080075e0:    28ffd003    ...(    DCD    687853571
        0x080075e4:    2003d104    ...     DCD    537121028
        0x080075e8:    4805e004    ...H    DCD    1208344580
        0x080075ec:    e0017800    .x..    DCD    3758192640
        0x080075f0:    ffaef000    ....    DCD    4289654784
        0x080075f4:    21049000    ...!    DCD    553947136
        0x080075f8:    f0014668    hF..    DCD    4026615400
        0x080075fc:    bd03fdab    ....    DCD    3171155371
        0x08007600:    20000fef    ...     DCD    536874991
        0x08007604:    2102b501    ...!    DCD    553825537
        0x08007608:    f0014668    hF..    DCD    4026615400
        0x0800760c:    4908fde3    ...I    DCD    1225326051
        0x08007610:    0000f8bd    ....    DCD    63677
        0x08007614:    bf044288    .B..    DCD    3204727432
        0x08007618:    f8ad2000    . ..    DCD    4172095488
        0x0800761c:    f8bd0000    ....    DCD    4173135872
        0x08007620:    f45f0000    .._.    DCD    4099866624
        0x08007624:    4348717a    zqHC    DCD    1128821114
        0x08007628:    fa50f001    ..P.    DCD    4199608321
        0x0800762c:    bf00bd01    ....    DCD    3204496641
        0x08007630:    0000ffff    ....    DCD    65535
        0x08007634:    bfa4f000    ....    DCD    3215257600
        0x08007638:    bfa4f000    ....    DCD    3215257600
        0x0800763c:    2101b511    ...!    DCD    553760017
        0x08007640:    24014668    hF.$    DCD    604063336
        0x08007644:    fdc6f001    ....    DCD    4257673217
        0x08007648:    a8004621    !F..    DCD    2818590241
        0x0800764c:    f0011c40    @...    DCD    4026604608
        0x08007650:    2002fdc1    ...     DCD    537066945
        0x08007654:    fdc6f001    ....    DCD    4257673217
        0x08007658:    f89db990    ....    DCD    4171086224
        0x0800765c:    f89d0000    ....    DCD    4171038720
        0x08007660:    ea511001    ..Q.    DCD    3931181057
        0x08007664:    49152000    . .I    DCD    1226121216
        0x08007668:    d0054288    .B..    DCD    3490005640
        0x0800766c:    42884914    .I.B    DCD    1116227860
        0x08007670:    4914d002    ...I    DCD    1226100738
        0x08007674:    d1004288    .B..    DCD    3506455176
        0x08007678:    00204c02    .L .    DCD    2116610
        0x0800767c:    fd9af001    ....    DCD    4254789633
        0x08007680:    bf00bd11    ....    DCD    3204496657
        0x08007684:    000005ff    ....    DCD    1535
        0x08007688:    2104b501    ...!    DCD    553956609
        0x0800768c:    f0014668    hF..    DCD    4026615400
        0x08007690:    f89dfda1    ....    DCD    4171103649
        0x08007694:    f89d0002    ....    DCD    4171038722
        0x08007698:    ea511003    ..Q.    DCD    3931181059
        0x0800769c:    49072000    . .I    DCD    1225203712
        0x080076a0:    d0054288    .B..    DCD    3490005640
        0x080076a4:    42884906    .I.B    DCD    1116227846
        0x080076a8:    4906d002    ...I    DCD    1225183234
        0x080076ac:    d1034288    .B..    DCD    3506651784
        0x080076b0:    0000f89d    ....    DCD    63645
        0x080076b4:    fc3ef7ff    ..>.    DCD    4231985151
        0x080076b8:    0000bd01    ....    DCD    48385
        0x080076bc:    00000101    ....    DCD    257
        0x080076c0:    00000301    ....    DCD    769
        0x080076c4:    00000601    ....    DCD    1537
        0x080076c8:    20004b76    vK.     DCD    536890230
        0x080076cc:    22142100    .!."    DCD    571744512
        0x080076d0:    3202fb01    ...2    DCD    839056129
        0x080076d4:    b1028952    R...    DCD    2969733458
        0x080076d8:    1c491c40    @.I.    DCD    474553408
        0x080076dc:    dbf62904    .)..    DCD    3690342660
        0x080076e0:    00004770    pG..    DCD    18288
        0x080076e4:    21004b6f    oK.!    DCD    553667439
        0x080076e8:    fb012214    ."..    DCD    4211155476
        0x080076ec:    89523202    .2R.    DCD    2303865346
        0x080076f0:    bf044282    .B..    DCD    3204727426
        0x080076f4:    47704608    .FpG    DCD    1198540296
        0x080076f8:    29041c49    I..)    DCD    688135241
        0x080076fc:    f05fdbf4    .._.    DCD    4032814068
        0x08007700:    477030ff    .0pG    DCD    1198534911
        0x08007704:    b5304968    hI0.    DCD    3039840616
        0x08007708:    680a2400    .$.h    DCD    1745495040
        0x0800770c:    4d652100    .!eM    DCD    1298473216
        0x08007710:    fb012314    .#..    DCD    4211155732
        0x08007714:    896b5503    .Uk.    DCD    2305512707
        0x08007718:    68ebb143    C..h    DCD    1760276803
        0x0800771c:    42831ad3    ...B    DCD    1115888339
        0x08007720:    0008db04    ....    DCD    580356
        0x08007724:    fe48f002    ..H.    DCD    4266192898
        0x08007728:    bd30816c    l.0.    DCD    3174072684
        0x0800772c:    29041c49    I..)    DCD    688135241
        0x08007730:    bd30dbed    ..0.    DCD    3174095853
        0x08007734:    4ff0e92d    -..O    DCD    1341188397
        0x08007738:    2101b0a5    ...!    DCD    553758885
        0x0800773c:    a8004c59    YL..    DCD    2818591833
        0x08007740:    f0011c80    ....    DCD    4026604672
        0x08007744:    2104fd47    G..!    DCD    553975111
        0x08007748:    f001a803    ....    DCD    4026640387
        0x0800774c:    2104fd43    C..!    DCD    553975107
        0x08007750:    f001a804    ....    DCD    4026640388
        0x08007754:    2101fd3f    ?..!    DCD    553778495
        0x08007758:    1cc0a800    ....    DCD    482387968
        0x0800775c:    fd3af001    ..:.    DCD    4248498177
        0x08007760:    a8022101    .!..    DCD    2818711809
        0x08007764:    fd36f001    ..6.    DCD    4248236033
        0x08007768:    46682102    .!hF    DCD    1181229314
        0x0800776c:    fd32f001    ..2.    DCD    4247973889
        0x08007770:    0002f89d    ....    DCD    194717
        0x08007774:    28642500    .%d(    DCD    677651712
        0x08007778:    2865d002    ..e(    DCD    677761026
        0x0800777c:    e05fd04f    O._.    DCD    3764375631
        0x08007780:    0000f8bd    ....    DCD    63677
        0x08007784:    28004e48    HN.(    DCD    671108680
        0x08007788:    4844d13f    ?.DH    DCD    1212469567
        0x0800778c:    1c498801    ..I.    DCD    474580993
        0x08007790:    f8ad8001    ....    DCD    4172120065
        0x08007794:    f8bd1000    ....    DCD    4173139968
        0x08007798:    f7ff0000    ....    DCD    4160684032
        0x0800779c:    2800ffa3    ...(    DCD    671154083
        0x080077a0:    9804d5f3    ....    DCD    2550453747
        0x080077a4:    8008f89d    ....    DCD    2148071581
        0x080077a8:    9003f89d    ....    DCD    2416179357
        0x080077ac:    98034682    .F..    DCD    2550351490
        0x080077b0:    46832700    .'.F    DCD    1183000320
        0x080077b4:    0000f8bd    ....    DCD    63677
        0x080077b8:    000af8ad    ....    DCD    719021
        0x080077bc:    1c40e008    ..@.    DCD    474013704
        0x080077c0:    db062804    .(..    DCD    3674613764
        0x080077c4:    1c7f4836    6H..    DCD    478103606
        0x080077c8:    ff9cf7ff    ....    DCD    4288477183
        0x080077cc:    da372f02    ./7.    DCD    3661049602
        0x080077d0:    21142000    . .!    DCD    554967040
        0x080077d4:    4101fb00    ...A    DCD    1090648832
        0x080077d8:    2a00894a    J..*    DCD    704678218
        0x080077dc:    f8c1d1ef    ....    DCD    4173451759
        0x080077e0:    f8c1b000    ....    DCD    4173443072
        0x080077e4:    f881a004    ....    DCD    4169244676
        0x080077e8:    f8819008    ....    DCD    4169240584
        0x080077ec:    f8bd8009    ....    DCD    4173168649
        0x080077f0:    814a200a    . J.    DCD    2169118730
        0x080077f4:    60ca6832    2h.`    DCD    1623877682
        0x080077f8:    fd58f000    ..X.    DCD    4250464256
        0x080077fc:    ff64f7ff    ..d.    DCD    4284807167
        0x08007800:    d11d2801    .(..    DCD    3508348929
        0x08007804:    f926f001    ..&.    DCD    4180078593
        0x08007808:    f7ffe01a    ....    DCD    4160741402
        0x0800780c:    2800ff6b    k..(    DCD    671154027
        0x08007810:    2114d416    ...!    DCD    555013142
        0x08007814:    4001fb00    ...@    DCD    1073871616
        0x08007818:    60c16831    1h.`    DCD    1623287857
        0x0800781c:    f8bde010    ....    DCD    4173193232
        0x08007820:    f7ff0000    ....    DCD    4160684032
        0x08007824:    2800ff5f    _..(    DCD    671154015
        0x08007828:    2114d40a    ...!    DCD    555013130
        0x0800782c:    4101fb00    ...A    DCD    1090648832
        0x08007830:    f002814d    M...    DCD    4026696013
        0x08007834:    f7fffdc1    ....    DCD    4160748993
        0x08007838:    b908ff47    G...    DCD    3104374599
        0x0800783c:    f918f001    ....    DCD    4179161089
        0x08007840:    9001a805    ....    DCD    2416027653
        0x08007844:    1000f8bd    ....    DCD    268499133
        0x08007848:    f004a801    ....    DCD    4026836993
        0x0800784c:    2104f979    y..!    DCD    553974137
        0x08007850:    f004a801    ....    DCD    4026836993
        0x08007854:    2110f975    u..!    DCD    554760565
        0x08007858:    f004a801    ....    DCD    4026836993
        0x0800785c:    2104f971    q..!    DCD    553974129
        0x08007860:    f004a801    ....    DCD    4026836993
        0x08007864:    2014f96d    m..     DCD    538245485
        0x08007868:    fb052210    ."..    DCD    4211417616
        0x0800786c:    98014100    .A..    DCD    2550219008
        0x08007870:    f0041c6d    m...    DCD    4026801261
        0x08007874:    9801fa09    ....    DCD    2550266377
        0x08007878:    90013010    .0..    DCD    2415996944
        0x0800787c:    dbf22d04    .-..    DCD    3690081540
        0x08007880:    f89ef001    ....    DCD    4171165697
        0x08007884:    a8010001    ....    DCD    2818637825
        0x08007888:    f962f004    ..b.    DCD    4184010756
        0x0800788c:    310c0129    )..1    DCD    822870313
        0x08007890:    f001a805    ....    DCD    4026640389
        0x08007894:    b025fc5f    _.%.    DCD    2955279455
        0x08007898:    8ff0e8bd    ....    DCD    2414930109
        0x0800789c:    20000fd8    ...     DCD    536874968
        0x080078a0:    00002710    .'..    DCD    10000
        0x080078a4:    20000554    T..     DCD    536872276
        0x080078a8:    20000174    t..     DCD    536871284
        0x080078ac:    4d28b5f0    ..(M    DCD    1294513648
        0x080078b0:    682e2400    .$.h    DCD    1747854336
        0x080078b4:    db262e01    ..&.    DCD    3676712449
        0x080078b8:    d1084f26    &O..    DCD    3506982694
        0x080078bc:    1c406838    8h@.    DCD    473983032
        0x080078c0:    28646038    8`d(    DCD    677666872
        0x080078c4:    2000da03    ...     DCD    536926723
        0x080078c8:    fb6af001    ..j.    DCD    4218089473
        0x080078cc:    2000e008    ...     DCD    536928264
        0x080078d0:    fb5ef001    ..^.    DCD    4217303041
        0x080078d4:    f07f603c    <`..    DCD    4034879548
        0x080078d8:    42864000    .@.B    DCD    1116094464
        0x080078dc:    2601bf08    ...&    DCD    637648648
        0x080078e0:    1c76481d    .Hv.    DCD    477513757
        0x080078e4:    4286602e    .`.B    DCD    1116102702
        0x080078e8:    2164db1a    ..d!    DCD    560257818
        0x080078ec:    f0040030    0...    DCD    4026794032
        0x080078f0:    0006f973    s...    DCD    457075
        0x080078f4:    2000d003    ...     DCD    536924163
        0x080078f8:    fb4af001    ..J.    DCD    4215992321
        0x080078fc:    2000e010    ...     DCD    536928272
        0x08007900:    fb4ef001    ..N.    DCD    4216254465
        0x08007904:    2e00e00c    ....    DCD    771809292
        0x08007908:    2000d50a    ...     DCD    536925450
        0x0800790c:    fb48f001    ..H.    DCD    4215861249
        0x08007910:    49126828    (h.I    DCD    1225943080
        0x08007914:    60281e40    @.(`    DCD    1613241920
        0x08007918:    bf084288    .B..    DCD    3204989576
        0x0800791c:    f9ccf001    ....    DCD    4190957569
        0x08007920:    f0014d11    .M..    DCD    4026617105
        0x08007924:    490ef84d    M..I    DCD    1225717837
        0x08007928:    68284288    .B(h    DCD    1747468936
        0x0800792c:    490dd30a    ...I    DCD    1225642762
        0x08007930:    da0b4288    .B..    DCD    3658171016
        0x08007934:    6868b910    ..hh    DCD    1751693584
        0x08007938:    60681c40    @.h`    DCD    1617435712
        0x0800793c:    300a6828    (h.0    DCD    805988392
        0x08007940:    bdf06028    (`..    DCD    3186647080
        0x08007944:    6868b110    ..hh    DCD    1751691536
        0x08007948:    60681c40    @.h`    DCD    1617435712
        0x0800794c:    bdf0602c    ,`..    DCD    3186647084
        0x08007950:    20000550    P..     DCD    536872272
        0x08007954:    20000080    ...     DCD    536871040
        0x08007958:    000002b3    ....    DCD    691
        0x0800795c:    ffffd8f0    ....    DCD    4294957296
        0x08007960:    0000044c    L...    DCD    1100
        0x08007964:    05265c00    .\&.    DCD    86400000
        0x08007968:    20000070    p..     DCD    536871024
        0x0800796c:    b510480a    .H..    DCD    3037743114
        0x08007970:    1c496801    .hI.    DCD    474572801
        0x08007974:    290a6001    .`.)    DCD    688545793
        0x08007978:    2400d10c    ...$    DCD    604033292
        0x0800797c:    f7ff6004    .`..    DCD    4160708612
        0x08007980:    4806ff95    ...H    DCD    1208418197
        0x08007984:    1c496801    .hI.    DCD    474572801
        0x08007988:    290a6001    .`.)    DCD    688545793
        0x0800798c:    6004bf04    ...`    DCD    1610923780
        0x08007990:    f940f001    ..@.    DCD    4181782529
        0x08007994:    bf00bd10    ....    DCD    3204496656
        0x08007998:    20000084    ...     DCD    536871044
        0x0800799c:    20000088    ...     DCD    536871048
        0x080079a0:    f002b500    ....    DCD    4026709248
        0x080079a4:    2000f9a8    ...     DCD    536934824
        0x080079a8:    fb02f001    ....    DCD    4211273729
        0x080079ac:    0000e7f9    ....    DCD    59385
        0x080079b0:    0000e7f6    ....    DCD    59382
        0x080079b4:    f000b500    ....    DCD    4026578176
        0x080079b8:    2002fddf    ...     DCD    537066975
        0x080079bc:    f812f002    ....    DCD    4161990658
        0x080079c0:    eb04f85d    ]...    DCD    3942971485
        0x080079c4:    bddaf000    ....    DCD    3185242112
        0x080079c8:    f000b500    ....    DCD    4026578176
        0x080079cc:    2002fdd9    ...     DCD    537066969
        0x080079d0:    f808f002    ....    DCD    4161335298
        0x080079d4:    eb04f85d    ]...    DCD    3942971485
        0x080079d8:    bdd4f000    ....    DCD    3184848896
        0x080079dc:    00004770    pG..    DCD    18288
        0x080079e0:    f001b500    ....    DCD    4026643712
        0x080079e4:    f000f86d    m...    DCD    4026595437
        0x080079e8:    f85dfffd    ..].    DCD    4166909949
        0x080079ec:    f001eb04    ....    DCD    4026657540
        0x080079f0:    0000bbd7    ....    DCD    48087
        0x080079f4:    f7ff20cd    . ..    DCD    4160692429
        0x080079f8:    0000bb21    !...    DCD    47905
        0x080079fc:    f7ff20ce    . ..    DCD    4160692430
        0x08007a00:    0000bb1d    ....    DCD    47901
        0x08007a04:    f7ff20cf    . ..    DCD    4160692431
        0x08007a08:    0000bb19    ....    DCD    47897
        0x08007a0c:    b5004807    .H..    DCD    3036694535
        0x08007a10:    70012101    .!.p    DCD    1879122177
        0x08007a14:    f0014803    .H..    DCD    4026615811
        0x08007a18:    4803fbf9    ...H    DCD    1208220665
        0x08007a1c:    eb04f85d    ]...    DCD    3942971485
        0x08007a20:    bbc8f001    ....    DCD    3150508033
        0x08007a24:    20000548    H..     DCD    536872264
        0x08007a28:    00044710    .G..    DCD    280336
        0x08007a2c:    20000fe1    ...     DCD    536874977
        0x08007a30:    0004b510    ....    DCD    308496
        0x08007a34:    d3042c0f    .,..    DCD    3540265999
        0x08007a38:    bf382cba    .,8.    DCD    3208129722
        0x08007a3c:    ffb0f7ff    ....    DCD    4289787903
        0x08007a40:    48043455    U4.H    DCD    1208235093
        0x08007a44:    f850b2e4    ..P.    DCD    4166038244
        0x08007a48:    47800024    $..G    DCD    1199570980
        0x08007a4c:    e8bd4802    .H..    DCD    3904718850
        0x08007a50:    e6574010    .@W.    DCD    3864477712
        0x08007a54:    08009908    ....    DCD    134256904
        0x08007a58:    000927c0    .'..    DCD    600000
        0x08007a5c:    00004770    pG..    DCD    18288
        0x08007a60:    4ff0e92d    -..O    DCD    1341188397
        0x08007a64:    98094680    .F..    DCD    2550744704
        0x08007a68:    4691000c    ...F    DCD    1183907852
        0x08007a6c:    4649469a    .FIF    DCD    1179207322
        0x08007a70:    fbc8f001    ....    DCD    4224249857
        0x08007a74:    25002700    .'.%    DCD    620766976
        0x08007a78:    fbe2f001    ....    DCD    4225953793
        0x08007a7c:    0100ebb9    ....    DCD    16837561
        0x08007a80:    b1181b4e    N...    DCD    2971147086
        0x08007a84:    d3f72e40    @...    DCD    3556191808
        0x08007a88:    4386203f    ? .C    DCD    1132863551
        0x08007a8c:    9809b987    ....    DCD    2550774151
        0x08007a90:    00324653    SF2.    DCD    3294803
        0x08007a94:    b4011940    @...    DCD    3019970880
        0x08007a98:    7014f8d8    ...p    DCD    1880422616
        0x08007a9c:    46400021    !.@F    DCD    1178599457
        0x08007aa0:    47b868bf    .h.G    DCD    1203267775
        0x08007aa4:    b0010007    ....    DCD    2952855559
        0x08007aa8:    bf0842b7    .B..    DCD    3204989623
        0x08007aac:    19a42700    .'..    DCD    430188288
        0x08007ab0:    454d19ad    ..ME    DCD    1162680749
        0x08007ab4:    b117d1e0    ....    DCD    2971128288
        0x08007ab8:    30fff05f    _..0    DCD    822079583
        0x08007abc:    4648e000    ..HF    DCD    1179181056
        0x08007ac0:    8ff0e8bd    ....    DCD    2414930109
        0x08007ac4:    4fffe92d    -..O    DCD    1342171437
        0x08007ac8:    f05f9003    .._.    DCD    4032794627
        0x08007acc:    210830ff    .0.!    DCD    554184959
        0x08007ad0:    a8014680    .F..    DCD    2818655872
        0x08007ad4:    f0014644    DF..    DCD    4026615364
        0x08007ad8:    9801fb7d    }...    DCD    2550266749
        0x08007adc:    98024681    .F..    DCD    2550285953
        0x08007ae0:    02009000    ....    DCD    33591296
        0x08007ae4:    46820a00    ...F    DCD    1182927360
        0x08007ae8:    f0014655    UF..    DCD    4026615381
        0x08007aec:    0006fa97    ....    DCD    457367
        0x08007af0:    bf3845b2    .E8.    DCD    3208136114
        0x08007af4:    f5b64656    VF..    DCD    4122363478
        0x08007af8:    bf845f80    ._..    DCD    3213123456
        0x08007afc:    438620ff    . .C    DCD    1132863743
        0x08007b00:    f0010030    0...    DCD    4026597424
        0x08007b04:    0007fa99    ....    DCD    522905
        0x08007b08:    b115d10e    ....    DCD    2970997006
        0x08007b0c:    f0010028    (...    DCD    4026597416
        0x08007b10:    b117fb69    i...    DCD    2971138921
        0x08007b14:    f0010038    8...    DCD    4026597432
        0x08007b18:    0020fab1    .. .    DCD    2161329
        0x08007b1c:    fb4af001    ..J.    DCD    4215992321
        0x08007b20:    8fffe8bd    ....    DCD    2415913149
        0x08007b24:    0909eb14    ....    DCD    151644948
        0x08007b28:    42b5b19d    ...B    DCD    1119203741
        0x08007b2c:    46b3bf2c    ,..F    DCD    1186185004
        0x08007b30:    b48046ab    .F..    DCD    3028305579
        0x08007b34:    98049b01    ....    DCD    2550438657
        0x08007b38:    050bebb5    ....    DCD    84667317
        0x08007b3c:    4649465a    ZFIF    DCD    1179207258
        0x08007b40:    ff8ef7ff    ....    DCD    4287559679
        0x08007b44:    b0010004    ....    DCD    2952855556
        0x08007b48:    455cd4df    ..\E    DCD    1163711711
        0x08007b4c:    4644d0ea    ..DF    DCD    1178915050
        0x08007b50:    4654e7db    ..TF    DCD    1179969499
        0x08007b54:    0000e7de    ....    DCD    59358
        0x08007b58:    0004b530    0...    DCD    308528
        0x08007b5c:    203f68a5    .h?     DCD    541026469
        0x08007b60:    d00b4385    .C..    DCD    3490399109
        0x08007b64:    68626920     ibh    DCD    1751279904
        0x08007b68:    18100029    )...    DCD    403701801
        0x08007b6c:    fb14f001    ....    DCD    4212453377
        0x08007b70:    19406920     i@.    DCD    423651616
        0x08007b74:    68a06120     a.h    DCD    1755341088
        0x08007b78:    60a01b40    @..`    DCD    1621105472
        0x08007b7c:    0000bd30    0...    DCD    48432
        0x08007b80:    4ff0e92d    -..O    DCD    1341188397
        0x08007b84:    2108b08e    ...!    DCD    554217614
        0x08007b88:    a8074680    .F..    DCD    2819049088
        0x08007b8c:    fb22f001    ..".    DCD    4213370881
        0x08007b90:    9c079808    ....    DCD    2617743368
        0x08007b94:    02009000    ....    DCD    33591296
        0x08007b98:    46810a00    ...F    DCD    1182861824
        0x08007b9c:    2811464d    MF.(    DCD    672220749
        0x08007ba0:    f001d30c    ....    DCD    4026651404
        0x08007ba4:    4682fa3b    ;..F    DCD    1182988859
        0x08007ba8:    1d004648    HF..    DCD    486557256
        0x08007bac:    bf384550    PE8.    DCD    3208136016
        0x08007bb0:    46504682    .FPF    DCD    1179666050
        0x08007bb4:    fa40f001    ..@.    DCD    4198559745
        0x08007bb8:    b9184683    .F..    DCD    3105375875
        0x08007bbc:    4683a809    ...F    DCD    1183033353
        0x08007bc0:    46822014    . .F    DCD    1182933012
        0x08007bc4:    1f364656    VF6.    DCD    523650646
        0x08007bc8:    d20542ae    .B..    DCD    3523560110
        0x08007bcc:    6f80f5b6    ...o    DCD    1870722486
        0x08007bd0:    0a76d903    ..v.    DCD    175560963
        0x08007bd4:    e0000276    v...    DCD    3758097014
        0x08007bd8:    4825002e    ..%H    DCD    1210384430
        0x08007bdc:    0032a902    ..2.    DCD    3320066
        0x08007be0:    f45f9002    .._.    DCD    4099903490
        0x08007be4:    90057000    .p..    DCD    2416275456
        0x08007be8:    b00cf8cd    ....    DCD    2953640141
        0x08007bec:    90042000    . ..    DCD    2416189440
        0x08007bf0:    46589006    ..XF    DCD    1180209158
        0x08007bf4:    f8d8b403    ....    DCD    4174951427
        0x08007bf8:    9b027014    .p..    DCD    2600628244
        0x08007bfc:    687f0021    !..h    DCD    1753153569
        0x08007c00:    47b84640    @F.G    DCD    1203258944
        0x08007c04:    b0020007    ....    DCD    2952921095
        0x08007c08:    db1e2f01    ./..    DCD    3676188417
        0x08007c0c:    19e49806    ....    DCD    434411526
        0x08007c10:    1a391bed    ..9.    DCD    439950317
        0x08007c14:    b9759101    ..u.    DCD    3111489793
        0x08007c18:    46584649    IFXF    DCD    1180190281
        0x08007c1c:    f00319c0    ....    DCD    4026735040
        0x08007c20:    9901ffa3    ....    DCD    2567045027
        0x08007c24:    465a9806    ..ZF    DCD    1180342278
        0x08007c28:    18101d09    ....    DCD    403709193
        0x08007c2c:    fab4f001    ....    DCD    4206161921
        0x08007c30:    faccf001    ....    DCD    4207734785
        0x08007c34:    465ae012    ..ZF    DCD    1180360722
        0x08007c38:    f0011810    ....    DCD    4026603536
        0x08007c3c:    f001faad    ....    DCD    4026661549
        0x08007c40:    42b7fac5    ...B    DCD    1119353541
        0x08007c44:    ebb9d0be    ....    DCD    3954823358
        0x08007c48:    98060705    ....    DCD    2550531845
        0x08007c4c:    bf1c1a2d    -...    DCD    3206289965
        0x08007c50:    f0014628    (F..    DCD    4026615336
        0x08007c54:    0038fa8b    ..8.    DCD    3734155
        0x08007c58:    faacf001    ....    DCD    4205637633
        0x08007c5c:    4583a809    ...E    DCD    1166256137
        0x08007c60:    4658bf1c    ..XF    DCD    1180221212
        0x08007c64:    fa0af001    ....    DCD    4195020801
        0x08007c68:    e8bdb00e    ....    DCD    3904745486
        0x08007c6c:    bf008ff0    ....    DCD    3204485104
        0x08007c70:    080054d1    .T..    DCD    134239441
        0x08007c74:    b0d3b570    p...    DCD    2966664560
        0x08007c78:    21050004    ...!    DCD    553975812
        0x08007c7c:    f0014668    hF..    DCD    4026615400
        0x08007c80:    f89dfaa9    ....    DCD    4171102889
        0x08007c84:    a8431000    ..C.    DCD    2822967296
        0x08007c88:    faa4f001    ....    DCD    4205113345
        0x08007c8c:    0001f89d    ....    DCD    129181
        0x08007c90:    f89db1f0    ....    DCD    4171084272
        0x08007c94:    b1600002    ..`.    DCD    2975858690
        0x08007c98:    68294dae    .M)h    DCD    1747537326
        0x08007c9c:    6961180e    ..ai    DCD    1767970830
        0x08007ca0:    6a096920     i.j    DCD    1779001632
        0x08007ca4:    b9404788    .G@.    DCD    3107997576
        0x08007ca8:    1a306828    (h0.    DCD    439380008
        0x08007cac:    2000d5f7    ...     DCD    536925687
        0x08007cb0:    6961e003    ..ai    DCD    1768022019
        0x08007cb4:    6a096920     i.j    DCD    1779001632
        0x08007cb8:    90024788    .G..    DCD    2416068488
        0x08007cbc:    da092801    .(..    DCD    3658033153
        0x08007cc0:    28019802    ...(    DCD    671193090
        0x08007cc4:    f89ddb12    ....    DCD    4171094802
        0x08007cc8:    00810000    ....    DCD    8454144
        0x08007ccc:    e00e1d09    ....    DCD    3759021321
        0x08007cd0:    90022001    . ..    DCD    2416058369
        0x08007cd4:    69646920     idi    DCD    1768188192
        0x08007cd8:    3000f89d    ...0    DCD    805370013
        0x08007cdc:    68e4aa02    ...h    DCD    1759816194
        0x08007ce0:    a9431d12    ..C.    DCD    2839747858
        0x08007ce4:    280047a0    .G.(    DCD    671106976
        0x08007ce8:    9002d5ea    ....    DCD    2416104938
        0x08007cec:    a8022104    .!..    DCD    2818711812
        0x08007cf0:    fa30f001    ..0.    DCD    4197511169
        0x08007cf4:    bd70b053    S.p.    DCD    3178278995
        0x08007cf8:    b0d2b570    p...    DCD    2966599024
        0x08007cfc:    e0020004    ....    DCD    3758227460
        0x08007d00:    f001a801    ....    DCD    4026640385
        0x08007d04:    2500fa27    '..%    DCD    620821031
        0x08007d08:    46682101    .!hF    DCD    1181229313
        0x08007d0c:    fa62f001    ..b.    DCD    4200787969
        0x08007d10:    0000f89d    ....    DCD    63645
        0x08007d14:    d00628ff    .(..    DCD    3490064639
        0x08007d18:    1000f89d    ....    DCD    268499101
        0x08007d1c:    5541a842    B.AU    DCD    1430366274
        0x08007d20:    2d401c6d    m.@-    DCD    759176301
        0x08007d24:    6966d1f0    ..fi    DCD    1768346096
        0x08007d28:    002b6920     i+.    DCD    2844960
        0x08007d2c:    aa0168f6    .h..    DCD    2852219126
        0x08007d30:    47b0a942    B..G    DCD    1202760002
        0x08007d34:    2000f89d    ...     DCD    536934557
        0x08007d38:    2aff00a9    ...*    DCD    721354921
        0x08007d3c:    aa01d1e0    ....    DCD    2852245984
        0x08007d40:    f8421d09    ..B.    DCD    4165082377
        0x08007d44:    a8010025    %...    DCD    2818637861
        0x08007d48:    fa04f001    ....    DCD    4194627585
        0x08007d4c:    bd70b052    R.p.    DCD    3178278994
        0x08007d50:    b0d2b530    0...    DCD    2966598960
        0x08007d54:    25000004    ...%    DCD    620756996
        0x08007d58:    2104e00c    ...!    DCD    553967628
        0x08007d5c:    f001a801    ....    DCD    4026640385
        0x08007d60:    f89dfa39    9...    DCD    4171102777
        0x08007d64:    a8421000    ..B.    DCD    2822901760
        0x08007d68:    99015541    AU..    DCD    2567001409
        0x08007d6c:    f840a802    ..@.    DCD    4164986882
        0x08007d70:    1c6d1025    %.m.    DCD    476909605
        0x08007d74:    46682101    .!hF    DCD    1181229313
        0x08007d78:    fa2cf001    ..,.    DCD    4197249025
        0x08007d7c:    0000f89d    ....    DCD    63645
        0x08007d80:    d1ea28ff    .(..    DCD    3521784063
        0x08007d84:    69646920     idi    DCD    1768188192
        0x08007d88:    aa02002b    +...    DCD    2852257835
        0x08007d8c:    a9426924    $iB.    DCD    2839701796
        0x08007d90:    f00147a0    .G..    DCD    4026615712
        0x08007d94:    b052fa0f    ..R.    DCD    2958227983
        0x08007d98:    0000bd30    0...    DCD    48432
        0x08007d9c:    2101b511    ...!    DCD    553760017
        0x08007da0:    46680004    ..hF    DCD    1181220868
        0x08007da4:    fa16f001    ....    DCD    4195807233
        0x08007da8:    f89d6962    bi..    DCD    4171065698
        0x08007dac:    69201000    .. i    DCD    1763708928
        0x08007db0:    47906952    Ri.G    DCD    1200646482
        0x08007db4:    0000e168    h...    DCD    57704
        0x08007db8:    b5000001    ....    DCD    3036676097
        0x08007dbc:    69496908    .iIi    DCD    1766418696
        0x08007dc0:    47886989    .i.G    DCD    1200122249
        0x08007dc4:    eb04f85d    ]...    DCD    3942971485
        0x08007dc8:    b9f4f001    ....    DCD    3119837185
        0x08007dcc:    b5000001    ....    DCD    3036676097
        0x08007dd0:    69496908    .iIi    DCD    1766418696
        0x08007dd4:    478869c9    .i.G    DCD    1200122313
        0x08007dd8:    eb04f85d    ]...    DCD    3942971485
        0x08007ddc:    b9eaf001    ....    DCD    3119181825
        0x08007de0:    b5000001    ....    DCD    3036676097
        0x08007de4:    69496908    .iIi    DCD    1766418696
        0x08007de8:    47886a09    .j.G    DCD    1200122377
        0x08007dec:    eb04f85d    ]...    DCD    3942971485
        0x08007df0:    b9e0f001    ....    DCD    3118526465
        0x08007df4:    0004b51f    ....    DCD    308511
        0x08007df8:    90012000    . ..    DCD    2415992832
        0x08007dfc:    91022114    .!..    DCD    2432835860
        0x08007e00:    e0049003    ....    DCD    3758395395
        0x08007e04:    1000f89d    ....    DCD    268499101
        0x08007e08:    f001a801    ....    DCD    4026640385
        0x08007e0c:    2101f9e3    ...!    DCD    553777635
        0x08007e10:    f0014668    hF..    DCD    4026615400
        0x08007e14:    f89df9df    ....    DCD    4171102687
        0x08007e18:    b9380000    ..8.    DCD    3107454976
        0x08007e1c:    69646920     idi    DCD    1768188192
        0x08007e20:    9a039b01    ....    DCD    2583927553
        0x08007e24:    6a649902    ..dj    DCD    1784977666
        0x08007e28:    e06947a0    .Gi.    DCD    3764996000
        0x08007e2c:    a8002101    .!..    DCD    2818580737
        0x08007e30:    f0011c40    @...    DCD    4026604608
        0x08007e34:    f89df9cf    ....    DCD    4171102671
        0x08007e38:    28010001    ...(    DCD    671154177
        0x08007e3c:    2802d0e2    ...(    DCD    671273186
        0x08007e40:    2803d002    ...(    DCD    671338498
        0x08007e44:    e007d004    ....    DCD    3758608388
        0x08007e48:    1000f89d    ....    DCD    268499101
        0x08007e4c:    e7dca802    ....    DCD    3889997826
        0x08007e50:    1000f89d    ....    DCD    268499101
        0x08007e54:    e7d8a803    ....    DCD    3889735683
        0x08007e58:    0000f89d    ....    DCD    63645
        0x08007e5c:    f9c2f001    ....    DCD    4190302209
        0x08007e60:    0000e7d5    ....    DCD    59349
        0x08007e64:    0004b51f    ....    DCD    308511
        0x08007e68:    90012000    . ..    DCD    2415992832
        0x08007e6c:    90022001    . ..    DCD    2416058369
        0x08007e70:    e0049003    ....    DCD    3758395395
        0x08007e74:    1000f89d    ....    DCD    268499101
        0x08007e78:    f001a801    ....    DCD    4026640385
        0x08007e7c:    2101f9ab    ...!    DCD    553777579
        0x08007e80:    f0014668    hF..    DCD    4026615400
        0x08007e84:    f89df9a7    ....    DCD    4171102631
        0x08007e88:    b9e00000    ....    DCD    3118465024
        0x08007e8c:    99016962    bi..    DCD    2567006562
        0x08007e90:    6a926920     i.j    DCD    1787980064
        0x08007e94:    48194790    .G.H    DCD    1209616272
        0x08007e98:    1c497801    .xI.    DCD    474576897
        0x08007e9c:    20017001    .p.     DCD    536965121
        0x08007ea0:    fda0f001    ....    DCD    4255182849
        0x08007ea4:    99036962    bi..    DCD    2567137634
        0x08007ea8:    69526920     iRi    DCD    1767008544
        0x08007eac:    98024790    .G..    DCD    2550286224
        0x08007eb0:    fd98f001    ....    DCD    4254658561
        0x08007eb4:    69206961    ai i    DCD    1763731809
        0x08007eb8:    478869c9    .i.G    DCD    1200122313
        0x08007ebc:    f0010004    ....    DCD    4026597380
        0x08007ec0:    0020fba1    .. .    DCD    2161569
        0x08007ec4:    2101e01c    ...!    DCD    553771036
        0x08007ec8:    1c40a800    ..@.    DCD    473999360
        0x08007ecc:    f982f001    ....    DCD    4186107905
        0x08007ed0:    0001f89d    ....    DCD    129181
        0x08007ed4:    d0cd2804    .(..    DCD    3503106052
        0x08007ed8:    d0022805    .(..    DCD    3489802245
        0x08007edc:    d0042806    .(..    DCD    3489933318
        0x08007ee0:    f89de007    ....    DCD    4171096071
        0x08007ee4:    a8021000    ....    DCD    2818707456
        0x08007ee8:    f89de7c7    ....    DCD    4171098055
        0x08007eec:    a8031000    ....    DCD    2818772992
        0x08007ef0:    f89de7c3    ....    DCD    4171098051
        0x08007ef4:    f0010000    ....    DCD    4026597376
        0x08007ef8:    e7c0f975    u...    DCD    3888183669
        0x08007efc:    20000178    x..     DCD    536871288
        0x08007f00:    f958f001    ..X.    DCD    4183355393
        0x08007f04:    0000bd1f    ....    DCD    48415
        0x08007f08:    47f1e92d    -..G    DCD    1207036205
        0x08007f0c:    46914680    .F.F    DCD    1183925888
        0x08007f10:    464d000c    ..MF    DCD    1179451404
        0x08007f14:    469a002e    ...F    DCD    1184497710
        0x08007f18:    9909b1ce    ....    DCD    2567549390
        0x08007f1c:    464b4650    PFKF    DCD    1179338320
        0x08007f20:    f8d8b403    ....    DCD    4174951427
        0x08007f24:    f8d87014    .p..    DCD    4174934036
        0x08007f28:    00220010    ..".    DCD    2228240
        0x08007f2c:    21006cbf    .l.!    DCD    553675967
        0x08007f30:    b00247b8    .G..    DCD    2952939448
        0x08007f34:    bf482800    .(H.    DCD    3209177088
        0x08007f38:    99092000    . ..    DCD    2567512064
        0x08007f3c:    40881a36    6..@    DCD    1082661430
        0x08007f40:    18244904    .I$.    DCD    405031172
        0x08007f44:    68099800    ...h    DCD    1745459200
        0x08007f48:    28011a40    @..(    DCD    671160896
        0x08007f4c:    1ba8dae4    ....    DCD    464050916
        0x08007f50:    87f2e8bd    ....    DCD    2280843453
        0x08007f54:    20000174    t..     DCD    536871284
        0x08007f58:    2104b531    1..!    DCD    553956657
        0x08007f5c:    46680004    ..hF    DCD    1181220868
        0x08007f60:    f938f001    ..8.    DCD    4181258241
        0x08007f64:    f85af001    ..Z.    DCD    4166709249
        0x08007f68:    42819900    ...B    DCD    1115789568
        0x08007f6c:    f001d302    ....    DCD    4026651394
        0x08007f70:    9000f855    U...    DCD    2415982677
        0x08007f74:    28059800    ...(    DCD    671455232
        0x08007f78:    f001d316    ....    DCD    4026651414
        0x08007f7c:    0005f85d    ]...    DCD    391261
        0x08007f80:    b4012000    . ..    DCD    3019972608
        0x08007f84:    23009a01    ...#    DCD    587241985
        0x08007f88:    1f121d29    )...    DCD    521280809
        0x08007f8c:    0020b292    .. .    DCD    2142866
        0x08007f90:    ffbaf7ff    ....    DCD    4290443263
        0x08007f94:    1d016028    (`..    DCD    486629416
        0x08007f98:    f0010028    (...    DCD    4026597416
        0x08007f9c:    0028f8db    ..(.    DCD    2685147
        0x08007fa0:    f86cf001    ..l.    DCD    4167888897
        0x08007fa4:    bd31b001    ..1.    DCD    3174150145
        0x08007fa8:    f0012000    . ..    DCD    4026605568
        0x08007fac:    bd31f903    ..1.    DCD    3174168835
        0x08007fb0:    0006b577    w...    DCD    439671
        0x08007fb4:    2108a801    ...!    DCD    554215425
        0x08007fb8:    f90cf001    ....    DCD    4178374657
        0x08007fbc:    0004f8bd    ....    DCD    325821
        0x08007fc0:    100af8bd    ....    DCD    269154493
        0x08007fc4:    42880080    ...B    DCD    1116209280
        0x08007fc8:    4608bfb8    ...F    DCD    1174978488
        0x08007fcc:    f0011d00    ....    DCD    4026604800
        0x08007fd0:    0004f833    3...    DCD    325683
        0x08007fd4:    f8bdd10b    ....    DCD    4173189387
        0x08007fd8:    f001000a    ....    DCD    4026597386
        0x08007fdc:    f47ff903    ....    DCD    4102027523
        0x08007fe0:    90007083    .p..    DCD    2415947907
        0x08007fe4:    46682104    .!hF    DCD    1181229316
        0x08007fe8:    f8b4f001    ....    DCD    4172607489
        0x08007fec:    f8bdbd77    w...    DCD    4173184375
        0x08007ff0:    b109100a    ....    DCD    2970161162
        0x08007ff4:    f8eef001    ....    DCD    4176408577
        0x08007ff8:    0009f89d    ....    DCD    653469
        0x08007ffc:    b9682500    .%h.    DCD    3110610176
        0x08008000:    b4012002    . ..    DCD    3019972610
        0x08008004:    300af8bd    ...0    DCD    806025405
        0x08008008:    2008f8bd    ...     DCD    537458877
        0x0800800c:    00301d21    !.0.    DCD    3153185
        0x08008010:    ff7af7ff    ..z.    DCD    4286248959
        0x08008014:    90014605    .F..    DCD    2416002565
        0x08008018:    e01ab001    ....    DCD    3759845377
        0x0800801c:    d1162801    .(..    DCD    3507890177
        0x08008020:    84f02002    . ..    DCD    2230329346
        0x08008024:    0006f8bd    ....    DCD    456893
        0x08008028:    2004f8bd    ...     DCD    537196733
        0x0800802c:    b4032102    .!..    DCD    3020103938
        0x08008030:    0012f8bd    ....    DCD    1243325
        0x08008034:    21010013    ...!    DCD    553713683
        0x08008038:    1a801080    ....    DCD    444600448
        0x0800803c:    0280eb14    ....    DCD    42003220
        0x08008040:    69766930    0ivi    DCD    1769367856
        0x08008044:    47b06cb6    .l.G    DCD    1202744502
        0x08008048:    b0029002    ....    DCD    2952957954
        0x0800804c:    4807e001    ...H    DCD    1208475649
        0x08008050:    99009000    ....    DCD    2566950912
        0x08008054:    f0030020     ...    DCD    4026728480
        0x08008058:    00a9fd87    ....    DCD    11140487
        0x0800805c:    00201d09    .. .    DCD    2104585
        0x08008060:    f878f001    ..x.    DCD    4168675329
        0x08008064:    f0010020     ...    DCD    4026597408
        0x08008068:    bd77f809    ..w.    DCD    3178756105
        0x0800806c:    fffffefa    ....    DCD    4294967034
        0x08008070:    2101b511    ...!    DCD    553760017
        0x08008074:    46680004    ..hF    DCD    1181220868
        0x08008078:    f8acf001    ....    DCD    4172083201
        0x0800807c:    f89d6962    bi..    DCD    4171065698
        0x08008080:    69201000    .. i    DCD    1763708928
        0x08008084:    47906bd2    .k.G    DCD    1200647122
        0x08008088:    f894f001    ....    DCD    4170510337
        0x0800808c:    0000bd11    ....    DCD    48401
        0x08008090:    0003b510    ....    DCD    242960
        0x08008094:    b1012001    . ..    DCD    2969640961
        0x08008098:    2b00481f    .H.+    DCD    721438751
        0x0800809c:    6859d039    9.Yh    DCD    1750716473
        0x080080a0:    f050b109    ..P.    DCD    4031820041
        0x080080a4:    68990002    ...h    DCD    1754857474
        0x080080a8:    f050b109    ..P.    DCD    4031820041
        0x080080ac:    68d90004    ...h    DCD    1759051780
        0x080080b0:    bf18000c    ....    DCD    3206021132
        0x080080b4:    0008f050    P...    DCD    585808
        0x080080b8:    b10c691c    .i..    DCD    2970380572
        0x080080bc:    0010f050    P...    DCD    1110096
        0x080080c0:    b10c695c    \i..    DCD    2970380636
        0x080080c4:    0020f050    P. .    DCD    2158672
        0x080080c8:    b10c699c    .i..    DCD    2970380700
        0x080080cc:    0040f050    P.@.    DCD    4255824
        0x080080d0:    b10c69dc    .i..    DCD    2970380764
        0x080080d4:    0080f050    P...    DCD    8450128
        0x080080d8:    b10c6a1c    .j..    DCD    2970380828
        0x080080dc:    7080f450    P..p    DCD    1887499344
        0x080080e0:    b10c6a5c    \j..    DCD    2970380892
        0x080080e4:    7000f450    P..p    DCD    1879110736
        0x080080e8:    b10c6a9c    .j..    DCD    2970380956
        0x080080ec:    6080f450    P..`    DCD    1619063888
        0x080080f0:    b10c6bdc    .k..    DCD    2970381276
        0x080080f4:    5080f450    P..P    DCD    1350628432
        0x080080f8:    f450b109    ..P.    DCD    4098928905
        0x080080fc:    6c995000    .P.l    DCD    1821986816
        0x08008100:    f450b109    ..P.    DCD    4098928905
        0x08008104:    6c5b4090    .@[l    DCD    1817919632
        0x08008108:    bf1e0019    ....    DCD    3206414361
        0x0800810c:    46104601    .F.F    DCD    1175471617
        0x08008110:    f0014798    .G..    DCD    4026615704
        0x08008114:    bd10f84f    O...    DCD    3172005967
        0x08008118:    40000001    ...@    DCD    1073741825
        0x0800811c:    2101b503    ...!    DCD    553760003
        0x08008120:    f0014668    hF..    DCD    4026615400
        0x08008124:    2101f857    W..!    DCD    553777239
        0x08008128:    1c40a800    ..@.    DCD    473999360
        0x0800812c:    f852f001    ..R.    DCD    4166184961
        0x08008130:    f0012002    . ..    DCD    4026605570
        0x08008134:    b960f857    W.`.    DCD    3110139991
        0x08008138:    0000f89d    ....    DCD    63645
        0x0800813c:    2001f89d    ...     DCD    537000093
        0x08008140:    ea52a901    ..R.    DCD    3931285761
        0x08008144:    f0022000    . ..    DCD    4026671104
        0x08008148:    9901f8ed    ....    DCD    2567043309
        0x0800814c:    f7ff2200    ."..    DCD    4160692736
        0x08008150:    bd03ff9f    ....    DCD    3171155871
        0x08008154:    2101b507    ...!    DCD    553760007
        0x08008158:    f0014668    hF..    DCD    4026615400
        0x0800815c:    2101f83b    ;..!    DCD    553777211
        0x08008160:    1c40a800    ..@.    DCD    473999360
        0x08008164:    f836f001    ..6.    DCD    4164349953
        0x08008168:    a8012104    .!..    DCD    2818646276
        0x0800816c:    f832f001    ..2.    DCD    4164087809
        0x08008170:    0000f89d    ....    DCD    63645
        0x08008174:    2001f89d    ...     DCD    537000093
        0x08008178:    ea52a902    ..R.    DCD    3931285762
        0x0800817c:    f0022000    . ..    DCD    4026671104
        0x08008180:    9a01f8d1    ....    DCD    2583820497
        0x08008184:    f7ff9902    ....    DCD    4160723202
        0x08008188:    bd07ff83    ....    DCD    3171417987
        0x0800818c:    b08bb510    ....    DCD    2961945872
        0x08008190:    21002228    (".!    DCD    553656872
        0x08008194:    f003a801    ....    DCD    4026771457
        0x08008198:    2101fcfd    ...!    DCD    553778429
        0x0800819c:    1c40a800    ..@.    DCD    473999360
        0x080081a0:    f818f001    ....    DCD    4162383873
        0x080081a4:    f89de004    ....    DCD    4171096068
        0x080081a8:    a8011000    ....    DCD    2818641920
        0x080081ac:    f830f001    ..0.    DCD    4163956737
        0x080081b0:    46682101    .!hF    DCD    1181229313
        0x080081b4:    f80ef001    ....    DCD    4161728513
        0x080081b8:    0000f89d    ....    DCD    63645
        0x080081bc:    f89db930    0...    DCD    4171086128
        0x080081c0:    a9010001    ....    DCD    2835415041
        0x080081c4:    f904f002    ....    DCD    4177850370
        0x080081c8:    bd10b00b    ....    DCD    3171987467
        0x080081cc:    a8002101    .!..    DCD    2818580737
        0x080081d0:    f0001c80    ....    DCD    4026539136
        0x080081d4:    f89dffff    ....    DCD    4171104255
        0x080081d8:    28070002    ...(    DCD    671547394
        0x080081dc:    2808d0e3    ...(    DCD    671666403
        0x080081e0:    2809d004    ...(    DCD    671731716
        0x080081e4:    280ad007    ...(    DCD    671797255
        0x080081e8:    e01cd00c    ....    DCD    3759984652
        0x080081ec:    1000f89d    ....    DCD    268499101
        0x080081f0:    1d00a801    ....    DCD    486582273
        0x080081f4:    f89de7d4    ....    DCD    4171098068
        0x080081f8:    a8011000    ....    DCD    2818641920
        0x080081fc:    f0001d40    @...    DCD    4026539328
        0x08008200:    e7d5ffe9    ....    DCD    3889561577
        0x08008204:    0000f89d    ....    DCD    63645
        0x08008208:    bf2c2808    .(,.    DCD    3207342088
        0x0800820c:    46042408    .$.F    DCD    1174676488
        0x08008210:    a8010021    !...    DCD    2818637857
        0x08008214:    f0003008    .0..    DCD    4026544136
        0x08008218:    f89dffdd    ....    DCD    4171104221
        0x0800821c:    1b000000    ....    DCD    452984832
        0x08008220:    ffe0f000    ....    DCD    4292931584
        0x08008224:    f89de7c4    ....    DCD    4171098052
        0x08008228:    e7f90000    ....    DCD    3891855360
        0x0800822c:    2102b531    1..!    DCD    553825585
        0x08008230:    f0004668    hF..    DCD    4026549864
        0x08008234:    f89dffcf    ....    DCD    4171104207
        0x08008238:    f89d5001    .P..    DCD    4171059201
        0x0800823c:    4b171000    ...K    DCD    1259802624
        0x08008240:    00082228    ("..    DCD    533032
        0x08008244:    fb002904    .)..    DCD    4211091716
        0x08008248:    d2243402    .4$.    DCD    3525587970
        0x0800824c:    b3116961    ai..    DCD    3004262753
        0x08008250:    d2202d0e    .- .    DCD    3525324046
        0x08008254:    21144a12    .J.!    DCD    554977810
        0x08008258:    2001fb00    ...     DCD    537000704
        0x0800825c:    68094912    .I.h    DCD    1745438994
        0x08008260:    692060c1    .` i    DCD    1763729601
        0x08008264:    0020b910    .. .    DCD    2144528
        0x08008268:    f884f002    ....    DCD    4169461762
        0x0800826c:    6962480d    .Hbi    DCD    1768048653
        0x08008270:    5025f850    P.%P    DCD    1344665680
        0x08008274:    b1586cd0    .lX.    DCD    2975362256
        0x08008278:    6cd26920     i.l    DCD    1825728800
        0x0800827c:    47902101    .!.G    DCD    1200627969
        0x08008280:    47a80020     ..G    DCD    1202192416
        0x08008284:    69206962    bi i    DCD    1763731810
        0x08008288:    6cd22100    .!.l    DCD    1825710336
        0x0800828c:    bd314790    .G1.    DCD    3174123408
        0x08008290:    47a80020     ..G    DCD    1202192416
        0x08008294:    f000bd31    1...    DCD    4026580273
        0x08008298:    bd31ff59    Y.1.    DCD    3174170457
        0x0800829c:    200005a4    ...     DCD    536872356
        0x080082a0:    20000554    T..     DCD    536872276
        0x080082a4:    08009a5c    \...    DCD    134257244
        0x080082a8:    20000174    t..     DCD    536871284
        0x080082ac:    00004770    pG..    DCD    18288
        0x080082b0:    47f0e92d    -..G    DCD    1206970669
        0x080082b4:    000c9d08    ....    DCD    826632
        0x080082b8:    07e04680    .F..    DCD    132138624
        0x080082bc:    469a4691    .F.F    DCD    1184515729
        0x080082c0:    d514464e    NF..    DCD    3574875726
        0x080082c4:    9909b19e    ....    DCD    2567549342
        0x080082c8:    002b2000    . +.    DCD    2826240
        0x080082cc:    f8d8b403    ....    DCD    4174951427
        0x080082d0:    f8d87014    .p..    DCD    4174934036
        0x080082d4:    22010010    ..."    DCD    570490896
        0x080082d8:    00216b3f    ?k!.    DCD    2190143
        0x080082dc:    b00247b8    .G..    DCD    2952939448
        0x080082e0:    d46c2800    .(l.    DCD    3563857920
        0x080082e4:    28011a36    6..(    DCD    671160886
        0x080082e8:    1c6dd167    g.m.    DCD    476959079
        0x080082ec:    46501c64    d.PF    DCD    1179655268
        0x080082f0:    d4510040    @.Q.    DCD    3562078272
        0x080082f4:    d51607a0    ....    DCD    3574990752
        0x080082f8:    d3142e02    ....    DCD    3541315074
        0x080082fc:    20019909    ...     DCD    536975625
        0x08008300:    b403002b    +...    DCD    3020095531
        0x08008304:    7014f8d8    ...p    DCD    1880422616
        0x08008308:    0010f8d8    ....    DCD    1112280
        0x0800830c:    6b3f2201    ."?k    DCD    1799299585
        0x08008310:    47b80021    !..G    DCD    1203240993
        0x08008314:    2800b002    ...(    DCD    671133698
        0x08008318:    ebb6d451    Q...    DCD    3954627665
        0x0800831c:    28010640    @..(    DCD    671155776
        0x08008320:    1cadd14b    K...    DCD    481153355
        0x08008324:    46501ca4    ..PF    DCD    1179655332
        0x08008328:    d41a0000    ....    DCD    3558473728
        0x0800832c:    d3182e04    ....    DCD    3541577220
        0x08008330:    08b09909    ....    DCD    145791241
        0x08008334:    20024682    .F.     DCD    537020034
        0x08008338:    f8d8b403    ....    DCD    4174951427
        0x0800833c:    f8d87014    .p..    DCD    4174934036
        0x08008340:    002b0010    ..+.    DCD    2818064
        0x08008344:    46526b3f    ?kRF    DCD    1179806527
        0x08008348:    47b80021    !..G    DCD    1203240993
        0x0800834c:    2800b002    ...(    DCD    671133698
        0x08008350:    ebb6d435    5...    DCD    3954627637
        0x08008354:    45500680    ..PE    DCD    1162872448
        0x08008358:    4650d12f    /.PF    DCD    1179701551
        0x0800835c:    182d0080    ..-.    DCD    405602432
        0x08008360:    2e021824    $...    DCD    771889188
        0x08008364:    9909d318    ....    DCD    2567557912
        0x08008368:    46820870    p..F    DCD    1182926960
        0x0800836c:    b4032001    . ..    DCD    3020103681
        0x08008370:    7014f8d8    ...p    DCD    1880422616
        0x08008374:    0010f8d8    ....    DCD    1112280
        0x08008378:    6b3f002b    +.?k    DCD    1799290923
        0x0800837c:    00214652    RF!.    DCD    2180690
        0x08008380:    b00247b8    .G..    DCD    2952939448
        0x08008384:    d41a2800    .(..    DCD    3558483968
        0x08008388:    0640ebb6    ..@.    DCD    104917942
        0x0800838c:    d1144550    PE..    DCD    3507766608
        0x08008390:    00404650    PF@.    DCD    4212304
        0x08008394:    1824182d    -.$.    DCD    405018669
        0x08008398:    9909b17e    ~...    DCD    2567549310
        0x0800839c:    002b2000    . +.    DCD    2826240
        0x080083a0:    f8d8b403    ....    DCD    4174951427
        0x080083a4:    00320010    ..2.    DCD    3276816
        0x080083a8:    f8d80021    !...    DCD    4174905377
        0x080083ac:    6b244014    .@$k    DCD    1797537812
        0x080083b0:    b00247a0    .G..    DCD    2952939424
        0x080083b4:    d4022800    .(..    DCD    3556911104
        0x080083b8:    ebb91a36    6...    DCD    3954776630
        0x080083bc:    e8bd0006    ....    DCD    3904700422
        0x080083c0:    000087f0    ....    DCD    34800
        0x080083c4:    47f1e92d    -..G    DCD    1207036205
        0x080083c8:    46809d09    ...F    DCD    1182833929
        0x080083cc:    000e4691    .F..    DCD    935569
        0x080083d0:    469a464c    LF.F    DCD    1184515660
        0x080083d4:    d51207f0    ....    DCD    3574728688
        0x080083d8:    2000b18c    ...     DCD    536916364
        0x080083dc:    f8d8b401    ....    DCD    4174951425
        0x080083e0:    f8d87014    .p..    DCD    4174934036
        0x080083e4:    002b0010    ..+.    DCD    2818064
        0x080083e8:    22016b7f    .k."    DCD    570518399
        0x080083ec:    b00147b8    .G..    DCD    2952873912
        0x080083f0:    d47b2800    .({.    DCD    3564840960
        0x080083f4:    28011a24    $..(    DCD    671160868
        0x080083f8:    1c6dd176    v.m.    DCD    476959094
        0x080083fc:    46501c76    v.PF    DCD    1179655286
        0x08008400:    d4610040    @.a.    DCD    3563126848
        0x08008404:    d51507b0    ....    DCD    3574925232
        0x08008408:    d3132c02    .,..    DCD    3541249026
        0x0800840c:    b4012001    . ..    DCD    3019972609
        0x08008410:    7014f8d8    ...p    DCD    1880422616
        0x08008414:    0010f8d8    ....    DCD    1112280
        0x08008418:    6b7f002b    +..k    DCD    1803485227
        0x0800841c:    00312201    ."1.    DCD    3219969
        0x08008420:    b00147b8    .G..    DCD    2952873912
        0x08008424:    d4612800    .(a.    DCD    3563137024
        0x08008428:    0440ebb4    ..@.    DCD    71363508
        0x0800842c:    d15b2801    .([.    DCD    3512412161
        0x08008430:    1cb61cad    ....    DCD    481696941
        0x08008434:    00004650    PF..    DCD    18000
        0x08008438:    2c04d42c    ,..,    DCD    738513964
        0x0800843c:    f8d8d32a    *...    DCD    4174959402
        0x08008440:    6bb87014    .p.k    DCD    1807249428
        0x08008444:    f8d8b168    h...    DCD    4174950760
        0x08008448:    6bbf0010    ...k    DCD    1807679504
        0x0800844c:    08a2002b    +...    DCD    144834603
        0x08008450:    47b80031    1..G    DCD    1203241009
        0x08008454:    d4492800    .(I.    DCD    3561564160
        0x08008458:    1a640081    ..d.    DCD    442761345
        0x0800845c:    eb151876    v...    DCD    3944028278
        0x08008460:    08a00580    ....    DCD    144704896
        0x08008464:    d0154682    .F..    DCD    3491055234
        0x08008468:    b4012002    . ..    DCD    3019972610
        0x0800846c:    7014f8d8    ...p    DCD    1880422616
        0x08008470:    0010f8d8    ....    DCD    1112280
        0x08008474:    6b7f002b    +..k    DCD    1803485227
        0x08008478:    00314652    RF1.    DCD    3229266
        0x0800847c:    b00147b8    .G..    DCD    2952873912
        0x08008480:    d4332800    .(3.    DCD    3560122368
        0x08008484:    0480ebb4    ....    DCD    75557812
        0x08008488:    d12d4550    PE-.    DCD    3509405008
        0x0800848c:    00804650    PF..    DCD    8406608
        0x08008490:    1836182d    -.6.    DCD    406198317
        0x08008494:    d3172c02    .,..    DCD    3541511170
        0x08008498:    46820860    `..F    DCD    1182926944
        0x0800849c:    b4012001    . ..    DCD    3019972609
        0x080084a0:    7014f8d8    ...p    DCD    1880422616
        0x080084a4:    0010f8d8    ....    DCD    1112280
        0x080084a8:    6b7f002b    +..k    DCD    1803485227
        0x080084ac:    00314652    RF1.    DCD    3229266
        0x080084b0:    b00147b8    .G..    DCD    2952873912
        0x080084b4:    d4192800    .(..    DCD    3558418432
        0x080084b8:    0440ebb4    ..@.    DCD    71363508
        0x080084bc:    d1134550    PE..    DCD    3507701072
        0x080084c0:    00404650    PF@.    DCD    4212304
        0x080084c4:    1836182d    -.6.    DCD    406198317
        0x080084c8:    2000b174    t..     DCD    536916340
        0x080084cc:    f8d8b401    ....    DCD    4174951425
        0x080084d0:    002b0010    ..+.    DCD    2818064
        0x080084d4:    5014f8d8    ...P    DCD    1343551704
        0x080084d8:    00310022    ".1.    DCD    3211298
        0x080084dc:    47a86b6d    mk.G    DCD    1202219885
        0x080084e0:    2800b001    ...(    DCD    671133697
        0x080084e4:    1a24d402    ..$.    DCD    438621186
        0x080084e8:    0004ebb9    ....    DCD    322489
        0x080084ec:    87f2e8bd    ....    DCD    2280843453
        0x080084f0:    b090b5f0    ....    DCD    2962273776
        0x080084f4:    00100004    ....    DCD    1048580
        0x080084f8:    0015220f    ."..    DCD    1384975
        0x080084fc:    27012604    .&.'    DCD    654386692
        0x08008500:    086d402f    /@m.    DCD    141377583
        0x08008504:    405db107    ..]@    DCD    1079881991
        0x08008508:    d1f81e76    v...    DCD    3522698870
        0x0800850c:    f846466e    nFF.    DCD    4165355118
        0x08008510:    1e525022    "PR.    DCD    508710946
        0x08008514:    f814d5f1    ....    DCD    4162115057
        0x08008518:    466b2b01    .+kF    DCD    1181428481
        0x0800851c:    07104042    B@..    DCD    118505538
        0x08008520:    f8530f00    ..S.    DCD    4166192896
        0x08008524:    ea900020     ...    DCD    3935305760
        0x08008528:    07021012    ....    DCD    117575698
        0x0800852c:    f8530f12    ..S.    DCD    4166192914
        0x08008530:    ea922022    " ..    DCD    3935445026
        0x08008534:    1e491010    ..I.    DCD    508104720
        0x08008538:    b010d1ed    ....    DCD    2953892333
        0x0800853c:    0000bdf0    ....    DCD    48624
        0x08008540:    b5004b02    .K..    DCD    3036695298
        0x08008544:    ffd4f7ff    ....    DCD    4292147199
        0x08008548:    bd00b280    ....    DCD    3170939520
        0x0800854c:    00008408    ....    DCD    33800
        0x08008550:    4d08b570    p..M    DCD    1292416368
        0x08008554:    78280004    ..(x    DCD    2015887364
        0x08008558:    28010006    ...(    DCD    671154182
        0x0800855c:    2c01d103    ...,    DCD    738316547
        0x08008560:    f001bf18    ....    DCD    4026646296
        0x08008564:    0020fedd    .. .    DCD    2162397
        0x08008568:    fc5af000    ..Z.    DCD    4233818112
        0x0800856c:    0030702c    ,p0.    DCD    3174444
        0x08008570:    bf00bd70    p...    DCD    3204496752
        0x08008574:    20000fef    ...     DCD    536874991
        0x08008578:    ba4cf000    ..L.    DCD    3125604352
        0x0800857c:    ba4cf000    ..L.    DCD    3125604352
        0x08008580:    ba4cf000    ..L.    DCD    3125604352
        0x08008584:    ba54f000    ..T.    DCD    3126128640
        0x08008588:    4d06b530    0..M    DCD    1292285232
        0x0800858c:    22000004    ..."    DCD    570425348
        0x08008590:    f7ff0029    )...    DCD    4160684073
        0x08008594:    5b61ffd5    ..a[    DCD    1533149141
        0x08008598:    bf044288    .B..    DCD    3204727432
        0x0800859c:    bd302000    . 0.    DCD    3174047744
        0x080085a0:    bd302001    . 0.    DCD    3174047745
        0x080085a4:    00005bfe    .[..    DCD    23550
        0x080085a8:    780a0001    ...x    DCD    2013921281
        0x080085ac:    2a202000    .  *    DCD    706748416
        0x080085b0:    1c49d106    ..I.    DCD    474599686
        0x080085b4:    230ae004    ...#    DCD    587915268
        0x080085b8:    2003fb00    ...     DCD    537131776
        0x080085bc:    b2803830    08..    DCD    2994747440
        0x080085c0:    2b01f811    ...+    DCD    721549329
        0x080085c4:    d3012a30    0*..    DCD    3540068912
        0x080085c8:    d3f42a3a    :*..    DCD    3555994170
        0x080085cc:    00004770    pG..    DCD    18288
        0x080085d0:    e92d4a21    !J-.    DCD    3912059425
        0x080085d4:    b08943f0    .C..    DCD    2961785840
        0x080085d8:    24244669    iF$$    DCD    606357097
        0x080085dc:    59131f24    $..Y    DCD    1494425380
        0x080085e0:    d1fb510b    .Q..    DCD    3522908427
        0x080085e4:    182df200    ..-.    DCD    405664256
        0x080085e8:    1d004640    @F..    DCD    486557248
        0x080085ec:    ffdcf7ff    ....    DCD    4292671487
        0x080085f0:    46404681    .F@F    DCD    1178617473
        0x080085f4:    f7ff1dc0    ....    DCD    4160691648
        0x080085f8:    0004ffd7    ....    DCD    327639
        0x080085fc:    300c4640    @F.0    DCD    806110784
        0x08008600:    ffd2f7ff    ....    DCD    4292016127
        0x08008604:    46400005    ..@F    DCD    1178599429
        0x08008608:    f7ff300f    .0..    DCD    4160696335
        0x0800860c:    0006ffcd    ....    DCD    458701
        0x08008610:    e0042700    .'..    DCD    3758368512
        0x08008614:    e01b2000    . ..    DCD    3759874048
        0x08008618:    2f0c1c7f    .../    DCD    789322879
        0x0800861c:    2003d0fa    ...     DCD    537121018
        0x08008620:    fb07466b    kF..    DCD    4211557995
        0x08008624:    22033000    .0."    DCD    570634240
        0x08008628:    f0034641    AF..    DCD    4026746433
        0x0800862c:    2800fb1b    ...(    DCD    671152923
        0x08008630:    480ad1f2    ...H    DCD    1208668658
        0x08008634:    b2bf210c    .!..    DCD    2998870284
        0x08008638:    fb001820     ...    DCD    4211087392
        0x0800863c:    211f7001    .p.!    DCD    555708417
        0x08008640:    9001fb00    ....    DCD    2416048896
        0x08008644:    fb002118    .!..    DCD    4211089688
        0x08008648:    213c5001    .P<!    DCD    557600769
        0x0800864c:    6001fb00    ...`    DCD    1610742528
        0x08008650:    e8bdb009    ....    DCD    3904745481
        0x08008654:    bf0083f0    ....    DCD    3204482032
        0x08008658:    08009a94    ....    DCD    134257300
        0x0800865c:    fffff830    0...    DCD    4294965296
        0x08008660:    f2adb5f0    ....    DCD    4071470576
        0x08008664:    20004d04    .M.     DCD    536890628
        0x08008668:    6480f45f    _..d    DCD    1686172767
        0x0800866c:    fd98f000    ....    DCD    4254658560
        0x08008670:    21024831    1H.!    DCD    553797681
        0x08008674:    0000f8ad    ....    DCD    63661
        0x08008678:    f0004668    hF..    DCD    4026549864
        0x0800867c:    f45ffdab    .._.    DCD    4099931563
        0x08008680:    a8016180    .a..    DCD    2818662784
        0x08008684:    fda6f000    ....    DCD    4255576064
        0x08008688:    0000f8bd    ....    DCD    63677
        0x0800868c:    41b8f45f    _..A    DCD    1102640223
        0x08008690:    d1344288    .B4.    DCD    3509863048
        0x08008694:    f7ffa801    ....    DCD    4160727041
        0x08008698:    0005ff9b    ....    DCD    393115
        0x0800869c:    f7ff4829    )H..    DCD    4160702505
        0x080086a0:    b115ff97    ....    DCD    2971008919
        0x080086a4:    42a8b108    ...B    DCD    1118351624
        0x080086a8:    4e25d229    ).%N    DCD    1311101481
        0x080086ac:    a9014622    "F..    DCD    2835432994
        0x080086b0:    f0000030    0...    DCD    4026531888
        0x080086b4:    0037f8e5    ..7.    DCD    3668197
        0x080086b8:    6780f517    ...g    DCD    1736504599
        0x080086bc:    a8010c71    q...    DCD    2818641009
        0x080086c0:    fd88f000    ....    DCD    4253609984
        0x080086c4:    a9010c72    r...    DCD    2835418226
        0x080086c8:    f0000038    8...    DCD    4026531896
        0x080086cc:    f514f8d9    ....    DCD    4111792345
        0x080086d0:    b2a46480    .d..    DCD    2997118080
        0x080086d4:    41b8f45f    _..A    DCD    1102640223
        0x080086d8:    d3ed428c    .B..    DCD    3555541644
        0x080086dc:    f7ff0030    0...    DCD    4160684080
        0x080086e0:    0004ff53    S...    DCD    327507
        0x080086e4:    4630bf1c    ..0F    DCD    1177599772
        0x080086e8:    f8ccf000    ....    DCD    4174180352
        0x080086ec:    f0000020     ...    DCD    4026531872
        0x080086f0:    2064fd57    W.d     DCD    543489367
        0x080086f4:    f976f001    ..v.    DCD    4185321473
        0x080086f8:    fadef000    ....    DCD    4208914432
        0x080086fc:    a801e019    ....    DCD    2818695193
        0x08008700:    1110f200    ....    DCD    286323200
        0x08008704:    22804814    .H."    DCD    578832404
        0x08008708:    fabef003    ....    DCD    4206817283
        0x0800870c:    f45fe007    .._.    DCD    4099923975
        0x08008710:    a8016180    .a..    DCD    2818662784
        0x08008714:    fd5ef000    ..^.    DCD    4250857472
        0x08008718:    6480f514    ...d    DCD    1686172948
        0x0800871c:    f8bdb2a4    ....    DCD    4173181604
        0x08008720:    428c1000    ...B    DCD    1116475392
        0x08008724:    4805d3f3    ...H    DCD    1208341491
        0x08008728:    f95cf001    ..\.    DCD    4183617537
        0x0800872c:    f0002000    . ..    DCD    4026540032
        0x08008730:    f20dfd37    7...    DCD    4061003063
        0x08008734:    bdf04d04    .M..    DCD    3186642180
        0x08008738:    0000aa55    U...    DCD    43605
        0x0800873c:    000005dc    ....    DCD    1500
        0x08008740:    08009c00    ....    DCD    134257664
        0x08008744:    08004000    .@..    DCD    134234112
        0x08008748:    48024903    .I.H    DCD    1208109315
        0x0800874c:    b102780a    .x..    DCD    2969729034
        0x08008750:    47700008    ..pG    DCD    1198522376
        0x08008754:    08004110    .A..    DCD    134234384
        0x08008758:    200004c8    ...     DCD    536872136
        0x0800875c:    b140b500    ..@.    DCD    2973807872
        0x08008760:    188bb13a    :...    DCD    411808058
        0x08008764:    7f80f5b3    ....    DCD    2139157939
        0x08008768:    4b11bf9e    ...K    DCD    1259454366
        0x0800876c:    f00318c9    ....    DCD    4026734793
        0x08008770:    bd00fa8b    ....    DCD    3170957963
        0x08008774:    b0c0b5f0    ....    DCD    2965419504
        0x08008778:    000d0004    ....    DCD    851972
        0x0800877c:    b1ac0016    ....    DCD    2980839446
        0x08008780:    19a8b1a6    ....    DCD    430485926
        0x08008784:    7f80f5b0    ....    DCD    2139157936
        0x08008788:    4f09d810    ...O    DCD    1326045200
        0x0800878c:    0cfa4668    hF..    DCD    217728616
        0x08008790:    f0030039    9...    DCD    4026728505
        0x08008794:    0032fa79    y.2.    DCD    3340921
        0x08008798:    46680021    !.hF    DCD    1181220897
        0x0800879c:    f0031940    @...    DCD    4026734912
        0x080087a0:    0cfafa73    s...    DCD    217774707
        0x080087a4:    00384669    iF8.    DCD    3688041
        0x080087a8:    f86af000    ..j.    DCD    4167757824
        0x080087ac:    bdf0b040    @...    DCD    3186667584
        0x080087b0:    0800f800    ....    DCD    134281216
        0x080087b4:    b140b500    ..@.    DCD    2973807872
        0x080087b8:    188bb13a    :...    DCD    411808058
        0x080087bc:    7f80f5b3    ....    DCD    2139157939
        0x080087c0:    4b12bf9e    ...K    DCD    1259519902
        0x080087c4:    f00318c9    ....    DCD    4026734793
        0x080087c8:    bd00fa5f    _...    DCD    3170957919
        0x080087cc:    b0c0b5f0    ....    DCD    2965419504
        0x080087d0:    000d0004    ....    DCD    851972
        0x080087d4:    b1b40016    ....    DCD    2981363734
        0x080087d8:    19a8b1ae    ....    DCD    430485934
        0x080087dc:    7f80f5b0    ....    DCD    2139157936
        0x080087e0:    4f0ad811    ...O    DCD    1326110737
        0x080087e4:    0cfa4668    hF..    DCD    217728616
        0x080087e8:    f0030039    9...    DCD    4026728505
        0x080087ec:    0032fa4d    M.2.    DCD    3340877
        0x080087f0:    46680021    !.hF    DCD    1181220897
        0x080087f4:    f0031940    @...    DCD    4026734912
        0x080087f8:    2300fa47    G..#    DCD    587266631
        0x080087fc:    46690cfa    ..iF    DCD    1181289722
        0x08008800:    f0000038    8...    DCD    4026531896
        0x08008804:    b040f817    ..@.    DCD    2957047831
        0x08008808:    0000bdf0    ....    DCD    48624
        0x0800880c:    0800fc00    ....    DCD    134282240
        0x08008810:    68014822    "H.h    DCD    1744914466
        0x08008814:    4906b951    Q..I    DCD    1225177425
        0x08008818:    7280f45f    _..r    DCD    1921053791
        0x0800881c:    42918809    ...B    DCD    1116833801
        0x08008820:    00d1bf22    "...    DCD    13745954
        0x08008824:    47706001    .`pG    DCD    1198546945
        0x08008828:    60010091    ...`    DCD    1610678417
        0x0800882c:    bf004770    pG..    DCD    3204466544
        0x08008830:    1ffff7e0    ....    DCD    536868832
        0x08008834:    41f0e92d    -..A    DCD    1106307373
        0x08008838:    00044698    .F..    DCD    280216
        0x0800883c:    0016000d    ....    DCD    1441805
        0x08008840:    2000e009    ...     DCD    536928265
        0x08008844:    fba4f000    ....    DCD    4221890560
        0x08008848:    ebb71c7f    ....    DCD    3954646143
        0x0800884c:    dbf80f46    F...    DCD    3690467142
        0x08008850:    f0002000    . ..    DCD    4026540032
        0x08008854:    4640fba5    ..@F    DCD    1178663845
        0x08008858:    0031b118    ..1.    DCD    3256600
        0x0800885c:    f0000020     ...    DCD    4026531872
        0x08008860:    0032f81f    ..2.    DCD    3340319
        0x08008864:    00200029    ). .    DCD    2097193
        0x08008868:    f81ef000    ....    DCD    4162777088
        0x0800886c:    00290032    2.).    DCD    2687026
        0x08008870:    f0030020     ...    DCD    4026728480
        0x08008874:    b908f9f7    ....    DCD    3104373239
        0x08008878:    81f0e8bd    ....    DCD    2180049085
        0x0800887c:    e7e42700    .'..    DCD    3890489088
        0x08008880:    e7d72301    .#..    DCD    3889636097
        0x08008884:    0004b510    ....    DCD    308496
        0x08008888:    ffc2f7ff    ....    DCD    4290967551
        0x0800888c:    68014803    .H.h    DCD    1744914435
        0x08008890:    e8bd0020     ...    DCD    3904700448
        0x08008894:    f0004010    .@..    DCD    4026548240
        0x08008898:    0000b803    ....    DCD    47107
        0x0800889c:    2000008c    ...     DCD    536871052
        0x080088a0:    47184b00    .K.G    DCD    1192774400
        0x080088a4:    20001035    5..     DCD    536875061
        0x080088a8:    47184b00    .K.G    DCD    1192774400
        0x080088ac:    20001099    ...     DCD    536875161
        0x080088b0:    490b4867    gH.I    DCD    1225476199
        0x080088b4:    60414a39    9JA`    DCD    1614891577
        0x080088b8:    600a4937    7I.`    DCD    1611286839
        0x080088bc:    604a4a09    .JJ`    DCD    1615481353
        0x080088c0:    21204a38    8J !    DCD    555764280
        0x080088c4:    b1127812    .x..    DCD    2970777618
        0x080088c8:    d0042a01    .*..    DCD    3489933825
        0x080088cc:    4a064770    pG.J    DCD    1241925488
        0x080088d0:    61016002    .`.a    DCD    1627480066
        0x080088d4:    4a054770    pG.J    DCD    1241859952
        0x080088d8:    61416002    .`Aa    DCD    1631674370
        0x080088dc:    bf004770    pG..    DCD    3204466544
        0x080088e0:    444cc834    4.LD    DCD    1145882676
        0x080088e4:    43454444    DDEC    DCD    1128612932
        0x080088e8:    38344483    .D48    DCD    942949507
        0x080088ec:    38344484    .D48    DCD    942949508
        0x080088f0:    f05f4857    WH_.    DCD    4032776279
        0x080088f4:    60013144    D1.`    DCD    1610690884
        0x080088f8:    60414903    .IA`    DCD    1614891267
        0x080088fc:    49274826    &H'I    DCD    1227311142
        0x08008900:    49026001    .`.I    DCD    1224892417
        0x08008904:    47706041    A`pG    DCD    1198547009
        0x08008908:    444cc434    4.LD    DCD    1145881652
        0x0800890c:    44454444    DDED    DCD    1145390148
        0x08008910:    68004823    #H.h    DCD    1744848931
        0x08008914:    00004770    pG..    DCD    18288
        0x08008918:    b500481a    .H..    DCD    3036694554
        0x0800891c:    62e0f07f    ...b    DCD    1658908799
        0x08008920:    400a6801    .h.@    DCD    1074423809
        0x08008924:    6180f052    R..a    DCD    1635840082
        0x08008928:    48176001    .`.H    DCD    1209491457
        0x0800892c:    f8cef000    ....    DCD    4174311424
        0x08008930:    4a164818    .H.J    DCD    1242974232
        0x08008934:    f0516801    .hQ.    DCD    4031866881
        0x08008938:    6001010c    ...`    DCD    1610678540
        0x0800893c:    f05f4844    DH_.    DCD    4032776260
        0x08008940:    60013144    D1.`    DCD    1610690884
        0x08008944:    60c26041    A`.`    DCD    1623351361
        0x08008948:    4a144813    .H.J    DCD    1242843155
        0x0800894c:    4a106002    .`.J    DCD    1242587138
        0x08008950:    21206041    A` !    DCD    555769921
        0x08008954:    491260c1    .`.I    DCD    1225941185
        0x08008958:    494a600a    .`JI    DCD    1229611018
        0x0800895c:    700a2201    .".p    DCD    1879712257
        0x08008960:    22004910    .I."    DCD    570444048
        0x08008964:    6880700a    .p.h    DCD    1753247754
        0x08008968:    bf540680    ..T.    DCD    3209954944
        0x0800896c:    20012000    . .     DCD    536944640
        0x08008970:    7008493e    >I.p    DCD    1879591230
        0x08008974:    b1107808    .x..    DCD    2970646536
        0x08008978:    ff9af7ff    ....    DCD    4288346111
        0x0800897c:    f7ffbd00    ....    DCD    4160732416
        0x08008980:    bd00ffb7    ....    DCD    3170959287
        0x08008984:    40010004    ...@    DCD    1073807364
        0x08008988:    00004e20     N..    DCD    20000
        0x0800898c:    000004e3    ....    DCD    1251
        0x08008990:    00011170    p...    DCD    70000
        0x08008994:    40021018    ...@    DCD    1073877016
        0x08008998:    40010c00    ...@    DCD    1073810432
        0x0800899c:    44844444    DD.D    DCD    1149518916
        0x080089a0:    200000a8    ...     DCD    536871080
        0x080089a4:    20000fe4    ...     DCD    536874980
        0x080089a8:    4840b910    ..@H    DCD    1212201232
        0x080089ac:    60010c81    ...`    DCD    1610681473
        0x080089b0:    00004770    pG..    DCD    18288
        0x080089b4:    487ab910    ..zH    DCD    1216002320
        0x080089b8:    60010c81    ...`    DCD    1610681473
        0x080089bc:    00004770    pG..    DCD    18288
        0x080089c0:    47704800    .HpG    DCD    1198540800
        0x080089c4:    00000ce4    ....    DCD    3300
        0x080089c8:    6800480e    .H.h    DCD    1744848910
        0x080089cc:    0f090601    ....    DCD    252249601
        0x080089d0:    0000e004    ....    DCD    57348
        0x080089d4:    6800480b    .H.h    DCD    1744848907
        0x080089d8:    0ec90601    ....    DCD    248055297
        0x080089dc:    40082001    . .@    DCD    1074274305
        0x080089e0:    00004770    pG..    DCD    18288
        0x080089e4:    680148b3    .H.h    DCD    1744914611
        0x080089e8:    0000e7f8    ....    DCD    59384
        0x080089ec:    68004805    .H.h    DCD    1744848901
        0x080089f0:    0f890601    ....    DCD    260638209
        0x080089f4:    0000e7f2    ....    DCD    59378
        0x080089f8:    68004802    .H.h    DCD    1744848898
        0x080089fc:    0e890601    ....    DCD    243860993
        0x08008a00:    0000e7ec    ....    DCD    59372
        0x08008a04:    40010808    ...@    DCD    1073809416
        0x08008a08:    680048aa    .H.h    DCD    1744849066
        0x08008a0c:    0e490601    ..I.    DCD    239666689
        0x08008a10:    0000e7e4    ....    DCD    59364
        0x08008a14:    0000e038    8...    DCD    57400
        0x08008a18:    e0364860    `H6.    DCD    3761653856
        0x08008a1c:    2102480c    .H.!    DCD    553797644
        0x08008a20:    614122f0    ."Aa    DCD    1631658736
        0x08008a24:    43916801    .h.C    DCD    1133602817
        0x08008a28:    0130f051    Q.0.    DCD    19984465
        0x08008a2c:    47706001    .`pG    DCD    1198546945
        0x08008a30:    4c07b510    ...L    DCD    1275573520
        0x08008a34:    61202002    .  a    DCD    1629495298
        0x08008a38:    707af45f    _.zp    DCD    1887106143
        0x08008a3c:    faa0f000    ....    DCD    4204851200
        0x08008a40:    21f06820     h.!    DCD    569403424
        0x08008a44:    f0504388    .CP.    DCD    4031792008
        0x08008a48:    60200080    .. `    DCD    1612710016
        0x08008a4c:    0000bd10    ....    DCD    48400
        0x08008a50:    40010800    ...@    DCD    1073809408
        0x08008a54:    b500480b    .H..    DCD    3036694539
        0x08008a58:    b9317801    .x1.    DCD    3107026945
        0x08008a5c:    70012101    .!.p    DCD    1879122177
        0x08008a60:    78004802    .H.x    DCD    2013284354
        0x08008a64:    f7ffb108    ....    DCD    4160729352
        0x08008a68:    bd00ff23    #...    DCD    3170959139
        0x08008a6c:    20000fe5    ...     DCD    536874981
        0x08008a70:    b5004804    .H..    DCD    3036694532
        0x08008a74:    b1197801    .x..    DCD    2971236353
        0x08008a78:    70012100    .!.p    DCD    1879122176
        0x08008a7c:    ff38f7ff    ..8.    DCD    4281923583
        0x08008a80:    0000bd00    ....    DCD    48384
        0x08008a84:    20000fe3    ...     DCD    536874979
        0x08008a88:    2101480c    .H.!    DCD    553732108
        0x08008a8c:    47706001    .`pG    DCD    1198546945
        0x08008a90:    e001480a    .H..    DCD    3758180362
        0x08008a94:    bf004841    AH..    DCD    3204466753
        0x08008a98:    60012180    .!.`    DCD    1610686848
        0x08008a9c:    00004770    pG..    DCD    18288
        0x08008aa0:    f45f4802    .H_.    DCD    4099885058
        0x08008aa4:    60014180    .A.`    DCD    1610695040
        0x08008aa8:    00004770    pG..    DCD    18288
        0x08008aac:    40010c14    ...@    DCD    1073810452
        0x08008ab0:    f45f483b    ;H_.    DCD    4099885115
        0x08008ab4:    60014180    .A.`    DCD    1610695040
        0x08008ab8:    00004770    pG..    DCD    18288
        0x08008abc:    40010814    ...@    DCD    1073809428
        0x08008ac0:    21204836    6H !    DCD    555763766
        0x08008ac4:    60016041    A`.`    DCD    1610702913
        0x08008ac8:    00004770    pG..    DCD    18288
        0x08008acc:    60084911    .I.`    DCD    1611155729
        0x08008ad0:    4a0db1c0    ...J    DCD    1242411456
        0x08008ad4:    20004601    .F.     DCD    536888833
        0x08008ad8:    d2084291    .B..    DCD    3523756689
        0x08008adc:    188a4a0b    .J..    DCD    411716107
        0x08008ae0:    f2f1fbb2    ....    DCD    4075944882
        0x08008ae4:    2a011ed2    ...*    DCD    704716498
        0x08008ae8:    2201da02    ..."    DCD    570546690
        0x08008aec:    2200e000    ..."    DCD    570482688
        0x08008af0:    601a4bb4    .K.`    DCD    1612336052
        0x08008af4:    fbb24a06    .J..    DCD    4222765574
        0x08008af8:    4a27f1f1    ..'J    DCD    1244131825
        0x08008afc:    6011390a    .9.`    DCD    1611741450
        0x08008b00:    6010bf48    H..`    DCD    1611710280
        0x08008b04:    bf004770    pG..    DCD    3204466544
        0x08008b08:    00155cc0    .\..    DCD    1400000
        0x08008b0c:    0089543f    ?T..    DCD    8999999
        0x08008b10:    00895440    @T..    DCD    9000000
        0x08008b14:    20000090    ...     DCD    536871056
        0x08008b18:    4ff1e92d    -..O    DCD    1341253933
        0x08008b1c:    00059200    ....    DCD    365056
        0x08008b20:    000e481d    .H..    DCD    935965
        0x08008b24:    46814698    .F.F    DCD    1182877336
        0x08008b28:    4644481c    .HDF    DCD    1178880028
        0x08008b2c:    46822700    .'.F    DCD    1182934784
        0x08008b30:    f45f481b    .H_.    DCD    4099885083
        0x08008b34:    07f24180    .A..    DCD    133316992
        0x08008b38:    6041bf54    T.A`    DCD    1614921556
        0x08008b3c:    20806001    .`.     DCD    545284097
        0x08008b40:    07e84683    .F..    DCD    132662915
        0x08008b44:    f8cabf54    T...    DCD    4174036820
        0x08008b48:    f8cab004    ....    DCD    4174032900
        0x08008b4c:    2020b000    ..      DCD    539013120
        0x08008b50:    0004f8ca    ....    DCD    325834
        0x08008b54:    0000f8d9    ....    DCD    63705
        0x08008b58:    0876086d    m.v.    DCD    141953133
        0x08008b5c:    b108087f    ....    DCD    2970093695
        0x08008b60:    fa12f000    ....    DCD    4195545088
        0x08008b64:    ff42f7ff    ..B.    DCD    4282578943
        0x08008b68:    f057b108    ..W.    DCD    4032278792
        0x08008b6c:    20200780    ..      DCD    538969984
        0x08008b70:    0000f8ca    ....    DCD    63690
        0x08008b74:    0000f8d9    ....    DCD    63705
        0x08008b78:    f000b108    ....    DCD    4026577160
        0x08008b7c:    1e64fa05    ..d.    DCD    509934085
        0x08008b80:    9800d1d6    ....    DCD    2550190550
        0x08008b84:    46422108    .!BF    DCD    1178738952
        0x08008b88:    40cf1a89    ...@    DCD    1087314569
        0x08008b8c:    f8ca7007    .p..    DCD    4174016519
        0x08008b90:    e8bdb004    ....    DCD    3904745476
        0x08008b94:    00008ff1    ....    DCD    36849
        0x08008b98:    20000094    ...     DCD    536871060
        0x08008b9c:    40010810    ...@    DCD    1073809424
        0x08008ba0:    40010c10    ...@    DCD    1073810448
        0x08008ba4:    001fb5f0    ....    DCD    2078192
        0x08008ba8:    000d0014    ....    DCD    851988
        0x08008bac:    f8160006    ....    DCD    4162191366
        0x08008bb0:    f8151b01    ....    DCD    4162132737
        0x08008bb4:    23080b01    ...#    DCD    587729665
        0x08008bb8:    f7ff0022    "...    DCD    4160684066
        0x08008bbc:    1c64ffad    ..d.    DCD    476381101
        0x08008bc0:    d1f41e7f    ....    DCD    3522436735
        0x08008bc4:    bdf02000    . ..    DCD    3186630656
        0x08008bc8:    43f0e92d    -..C    DCD    1139861805
        0x08008bcc:    46894680    .F.F    DCD    1183401600
        0x08008bd0:    001f0016    ....    DCD    2031638
        0x08008bd4:    d00508fc    ....    DCD    3489990908
        0x08008bd8:    f7ff0023    #...    DCD    4160684067
        0x08008bdc:    0005ffe3    ....    DCD    393187
        0x08008be0:    e000d10c    ....    DCD    3758149900
        0x08008be4:    077f2500    .%..    DCD    125773056
        0x08008be8:    d0070f7f    ....    DCD    3490123647
        0x08008bec:    5d014640    @F.]    DCD    1560364608
        0x08008bf0:    5d004648    HF.]    DCD    1560299080
        0x08008bf4:    1932003b    ;.2.    DCD    422707259
        0x08008bf8:    ff8ef7ff    ....    DCD    4287559679
        0x08008bfc:    e8bd0028    (...    DCD    3904700456
        0x08008c00:    000083f0    ....    DCD    33776
        0x08008c04:    60014902    .I.`    DCD    1610696962
        0x08008c08:    80812104    .!..    DCD    2155946244
        0x08008c0c:    bf004770    pG..    DCD    3204466544
        0x08008c10:    02dc6c00    .l..    DCD    48000000
        0x08008c14:    00004770    pG..    DCD    18288
        0x08008c18:    b1704915    .Ip.    DCD    2976925973
        0x08008c1c:    d00f2801    .(..    DCD    3490654209
        0x08008c20:    d0102802    .(..    DCD    3490719746
        0x08008c24:    d0122803    .(..    DCD    3490850819
        0x08008c28:    d0142804    .(..    DCD    3490981892
        0x08008c2c:    d016280a    .(..    DCD    3491112970
        0x08008c30:    d016280b    .(..    DCD    3491112971
        0x08008c34:    d016280c    .(..    DCD    3491112972
        0x08008c38:    480ee017    ...H    DCD    1208934423
        0x08008c3c:    47707800    .xpG    DCD    1198553088
        0x08008c40:    6800480d    .H.h    DCD    1744848909
        0x08008c44:    480d4770    pG.H    DCD    1208829808
        0x08008c48:    0000f9b0    ....    DCD    63920
        0x08008c4c:    480c4770    pG.H    DCD    1208764272
        0x08008c50:    0000f9b0    ....    DCD    63920
        0x08008c54:    480b4770    pG.H    DCD    1208698736
        0x08008c58:    0000f9b0    ....    DCD    63920
        0x08008c5c:    88084770    pG..    DCD    2282243952
        0x08008c60:    88484770    pGH.    DCD    2286438256
        0x08008c64:    88884770    pG..    DCD    2290632560
        0x08008c68:    f05f4770    pG_.    DCD    4032776048
        0x08008c6c:    477030ff    .0pG    DCD    1198534911
        0x08008c70:    2000009c    ...     DCD    536871068
        0x08008c74:    20000fe2    ...     DCD    536874978
        0x08008c78:    200000a4    ...     DCD    536871076
        0x08008c7c:    20000fda    ...     DCD    536874970
        0x08008c80:    20000fdc    ...     DCD    536874972
        0x08008c84:    20000fde    ...     DCD    536874974
        0x08008c88:    b510490a    .I..    DCD    3037743370
        0x08008c8c:    78204c6b    kL x    DCD    2015382635
        0x08008c90:    06896809    .h..    DCD    109668361
        0x08008c94:    496bd508    ..kI    DCD    1231803656
        0x08008c98:    b1117809    .x..    DCD    2970712073
        0x08008c9c:    f7ffb908    ....    DCD    4160731400
        0x08008ca0:    2001fe07    ...     DCD    537001479
        0x08008ca4:    bd107020     p..    DCD    3171971104
        0x08008ca8:    2000b118    ...     DCD    536916248
        0x08008cac:    f7ff7020     p..    DCD    4160712736
        0x08008cb0:    bd10fe1f    ....    DCD    3172007455
        0x08008cb4:    40010c08    ...@    DCD    1073810440
        0x08008cb8:    f001b500    ....    DCD    4026643712
        0x08008cbc:    4803f81c    ...H    DCD    1208219676
        0x08008cc0:    68014a03    .J.h    DCD    1744914947
        0x08008cc4:    430ab289    ...C    DCD    1124774537
        0x08008cc8:    e7fe6002    .`..    DCD    3892207618
        0x08008ccc:    e000ed0c    ....    DCD    3758157068
        0x08008cd0:    05fa0007    ....    DCD    100270087
        0x08008cd4:    4ff7e92d    -..O    DCD    1341647149
        0x08008cd8:    4d394698    .F9M    DCD    1295599256
        0x08008cdc:    1ad22208    ."..    DCD    449978888
        0x08008ce0:    2004f88d    ...     DCD    537196685
        0x08008ce4:    23204642    BF #    DCD    589317698
        0x08008ce8:    23804698    .F.#    DCD    595609240
        0x08008cec:    f07f4699    .F..    DCD    4034872985
        0x08008cf0:    469a4370    pC.F    DCD    1184514928
        0x08008cf4:    27004b33    3K.'    DCD    654330675
        0x08008cf8:    f8db469b    .F..    DCD    4175120027
        0x08008cfc:    2b003000    .0.+    DCD    721432576
        0x08008d00:    000cd032    2...    DCD    839730
        0x08008d04:    92000006    ....    DCD    2449473542
        0x08008d08:    682807f0    ..(h    DCD    1747453936
        0x08008d0c:    ea1ad504    ....    DCD    3927627012
        0x08008d10:    f0500000    ..P.    DCD    4031774720
        0x08008d14:    e0035040    @P..    DCD    3758313536
        0x08008d18:    0000ea1a    ....    DCD    59930
        0x08008d1c:    4000f050    P..@    DCD    1073803344
        0x08008d20:    07e06028    (`..    DCD    132145192
        0x08008d24:    f8c5bf54    T...    DCD    4173709140
        0x08008d28:    f8c59014    ....    DCD    4173697044
        0x08008d2c:    f8c59010    ....    DCD    4173697040
        0x08008d30:    f8db8010    ....    DCD    4175134736
        0x08008d34:    08760000    ..v.    DCD    141950976
        0x08008d38:    f0000864    d...    DCD    4026533988
        0x08008d3c:    f8c5f925    %...    DCD    4173723941
        0x08008d40:    f8db8014    ....    DCD    4175134740
        0x08008d44:    05ff0000    ....    DCD    100597760
        0x08008d48:    f0000e3f    ?...    DCD    4026535487
        0x08008d4c:    68a8f91d    ...h    DCD    1755904285
        0x08008d50:    bf4806c0    ..H.    DCD    3209168576
        0x08008d54:    0780f057    W...    DCD    125890647
        0x08008d58:    1e409800    ..@.    DCD    507549696
        0x08008d5c:    d1d39000    ....    DCD    3520303104
        0x08008d60:    f89d9802    ....    DCD    4171077634
        0x08008d64:    e0261004    ..&.    DCD    3760590852
        0x08008d68:    682b07c3    ..+h    DCD    1747650499
        0x08008d6c:    ea1ad504    ....    DCD    3927627012
        0x08008d70:    f0530303    ..S.    DCD    4031972099
        0x08008d74:    e0035340    @S..    DCD    3758314304
        0x08008d78:    0303ea1a    ....    DCD    50588186
        0x08008d7c:    4300f053    S..C    DCD    1124134995
        0x08008d80:    07cb602b    +`..    DCD    130768939
        0x08008d84:    f8c5bf54    T...    DCD    4173709140
        0x08008d88:    f8c59014    ....    DCD    4173697044
        0x08008d8c:    f8c59010    ....    DCD    4173697040
        0x08008d90:    f8c58010    ....    DCD    4173692944
        0x08008d94:    f8c58010    ....    DCD    4173692944
        0x08008d98:    68ab8014    ...h    DCD    1756069908
        0x08008d9c:    08490840    @.I.    DCD    139003968
        0x08008da0:    0e3f05ff    ..?.    DCD    239011327
        0x08008da4:    bf4806db    ..H.    DCD    3209168603
        0x08008da8:    0780f057    W...    DCD    125890647
        0x08008dac:    d1db1e52    R...    DCD    3520798290
        0x08008db0:    f89d9802    ....    DCD    4171077634
        0x08008db4:    40cf1004    ...@    DCD    1087311876
        0x08008db8:    20007007    .p.     DCD    536899591
        0x08008dbc:    8ffee8bd    ....    DCD    2415847613
        0x08008dc0:    40010800    ...@    DCD    1073809408
        0x08008dc4:    20000098    ...     DCD    536871064
        0x08008dc8:    4ff1e92d    -..O    DCD    1341253933
        0x08008dcc:    46809200    ...F    DCD    1182831104
        0x08008dd0:    469a4689    .F.F    DCD    1184515721
        0x08008dd4:    08c44650    PF..    DCD    147080784
        0x08008dd8:    0025d011    ..%.    DCD    2478097
        0x08008ddc:    464e4693    .FNF    DCD    1179534995
        0x08008de0:    f8174647    GF..    DCD    4162274887
        0x08008de4:    f8161b01    ....    DCD    4162198273
        0x08008de8:    23080b01    ...#    DCD    587729665
        0x08008dec:    f7ff465a    ZF..    DCD    4160702042
        0x08008df0:    f20bff71    q...    DCD    4060872561
        0x08008df4:    1e6d0b01    ..m.    DCD    510462721
        0x08008df8:    b978d1f3    ..x.    DCD    3111703027
        0x08008dfc:    2000e000    ...     DCD    536928256
        0x08008e00:    07494651    QFI.    DCD    122242641
        0x08008e04:    4650d00a    ..PF    DCD    1179701258
        0x08008e08:    98000743    C...    DCD    2550138691
        0x08008e0c:    19020f5b    [...    DCD    419565403
        0x08008e10:    5d014640    @F.]    DCD    1560364608
        0x08008e14:    5d004648    HF.]    DCD    1560299080
        0x08008e18:    ff5cf7ff    ..\.    DCD    4284282879
        0x08008e1c:    8ff2e8bd    ....    DCD    2415061181
        0x08008e20:    49074a06    .J.I    DCD    1225214470
        0x08008e24:    b13a7812    .x:.    DCD    2973399058
        0x08008e28:    78124a06    .J.x    DCD    2014464518
        0x08008e2c:    780ab122    "..x    DCD    2013966626
        0x08008e30:    d0014282    .B..    DCD    3489743490
        0x08008e34:    e53b7008    .p;.    DCD    3845877768
        0x08008e38:    47707008    .ppG    DCD    1198551048
        0x08008e3c:    20000fe5    ...     DCD    536874981
        0x08008e40:    20000fe4    ...     DCD    536874980
        0x08008e44:    20000fe3    ...     DCD    536874979
        0x08008e48:    4a46b672    r.FJ    DCD    1246148210
        0x08008e4c:    60026812    .h.`    DCD    1610770450
        0x08008e50:    68004843    CH.h    DCD    1744848963
        0x08008e54:    b6626008    .`b.    DCD    3059900424
        0x08008e58:    00004770    pG..    DCD    18288
        0x08008e5c:    4941b672    r.AI    DCD    1229043314
        0x08008e60:    1a426809    .hB.    DCD    440559625
        0x08008e64:    da082a01    .*..    DCD    3657968129
        0x08008e68:    68134a40    @J.h    DCD    1746094656
        0x08008e6c:    1ac04a26    &J..    DCD    448809510
        0x08008e70:    189a6812    .h..    DCD    412772370
        0x08008e74:    493c1a52    R.<I    DCD    1228675666
        0x08008e78:    48396008    .`9H    DCD    1211719688
        0x08008e7c:    b6626002    .`b.    DCD    3059900418
        0x08008e80:    00004770    pG..    DCD    18288
        0x08008e84:    b530481b    .H0.    DCD    3039840283
        0x08008e88:    60014d1b    .M.`    DCD    1610698011
        0x08008e8c:    600a4937    7I.`    DCD    1611286839
        0x08008e90:    60134a1d    .J.`    DCD    1611876893
        0x08008e94:    681c4b1d    .K.h    DCD    1746684701
        0x08008e98:    601d4325    %C.`    DCD    1612530469
        0x08008e9c:    f47f4b17    .K..    DCD    4101982999
        0x08008ea0:    681c6570    pe.h    DCD    1746691440
        0x08008ea4:    f4554025    %@U.    DCD    4099227685
        0x08008ea8:    4d156400    .d.M    DCD    1293247488
        0x08008eac:    4b15601c    .`.K    DCD    1259692060
        0x08008eb0:    609c0d5c    \..`    DCD    1620839772
        0x08008eb4:    605c2424    $$\`    DCD    1616651300
        0x08008eb8:    60dc2400    .$.`    DCD    1625039872
        0x08008ebc:    01006800    .h..    DCD    16803840
        0x08008ec0:    f0f0fbb5    ....    DCD    4042324917
        0x08008ec4:    08401c40    @.@.    DCD    138419264
        0x08008ec8:    60180100    ...`    DCD    1612185856
        0x08008ecc:    68094825    %H.h    DCD    1745438757
        0x08008ed0:    48236001    .`#H    DCD    1210277889
        0x08008ed4:    60016811    .h.`    DCD    1610704913
        0x08008ed8:    21104823    #H.!    DCD    554715171
        0x08008edc:    68586004    .`Xh    DCD    1750622212
        0x08008ee0:    5000f450    P..P    DCD    1342239824
        0x08008ee4:    20356058    X`5     DCD    540368984
        0x08008ee8:    ff9cf000    ....    DCD    4288475136
        0x08008eec:    f0002035    5 ..    DCD    4026540085
        0x08008ef0:    bd30ff63    c.0.    DCD    3174104931
        0x08008ef4:    200000ac    ...     DCD    536871084
        0x08008ef8:    00004004    .@..    DCD    16388
        0x08008efc:    40010804    ...@    DCD    1073809412
        0x08008f00:    08954400    .D..    DCD    144000000
        0x08008f04:    40013808    .8.@    DCD    1073821704
        0x08008f08:    200000b4    ...     DCD    536871092
        0x08008f0c:    40021018    ...@    DCD    1073877016
        0x08008f10:    22044802    .H."    DCD    570705922
        0x08008f14:    43916801    .h.C    DCD    1133602817
        0x08008f18:    47706001    .`pG    DCD    1198546945
        0x08008f1c:    4001380c    .8.@    DCD    1073821708
        0x08008f20:    0000e792    ....    DCD    59282
        0x08008f24:    0000e79a    ....    DCD    59290
        0x08008f28:    47704800    .HpG    DCD    1198540800
        0x08008f2c:    08009ab8    ....    DCD    134257336
        0x08008f30:    490b480a    .H.I    DCD    1225476106
        0x08008f34:    b5104b0b    .K..    DCD    3037743883
        0x08008f38:    680a6800    .h.h    DCD    1745512448
        0x08008f3c:    b152681c    .hR.    DCD    2974967836
        0x08008f40:    f8041e52    R...    DCD    4161019474
        0x08008f44:    d1050b01    ....    DCD    3506768641
        0x08008f48:    24004807    .H.$    DCD    603998215
        0x08008f4c:    60046802    .h.`    DCD    1610901506
        0x08008f50:    68044806    .H.h    DCD    1745111046
        0x08008f54:    601c600a    .`.`    DCD    1612472330
        0x08008f58:    bf00bd10    ....    DCD    3204496656
        0x08008f5c:    40013804    .8.@    DCD    1073821700
        0x08008f60:    200000bc    ...     DCD    536871100
        0x08008f64:    200000b8    ...     DCD    536871096
        0x08008f68:    200000c0    ...     DCD    536871104
        0x08008f6c:    200000b0    ...     DCD    536871088
        0x08008f70:    00004770    pG..    DCD    18288
        0x08008f74:    00004770    pG..    DCD    18288
        0x08008f78:    47704800    .HpG    DCD    1198540800
        0x08008f7c:    20003fff    .?.     DCD    536887295
        0x08008f80:    47184b00    .K.G    DCD    1192774400
        0x08008f84:    200011d1    ...     DCD    536875473
        0x08008f88:    47184b00    .K.G    DCD    1192774400
        0x08008f8c:    200011d9    ...     DCD    536875481
        0x08008f90:    210a4a0e    .J.!    DCD    554322446
        0x08008f94:    2101fb00    ...!    DCD    553777920
        0x08008f98:    704a2201    ."Jp    DCD    1883906561
        0x08008f9c:    bd04f7ff    ....    DCD    3171219455
        0x08008fa0:    210a4a0a    .J.!    DCD    554322442
        0x08008fa4:    2101fb00    ...!    DCD    553777920
        0x08008fa8:    704a2200    ."Jp    DCD    1883906560
        0x08008fac:    bd02f7ff    ....    DCD    3171088383
        0x08008fb0:    210a4a06    .J.!    DCD    554322438
        0x08008fb4:    2101fb00    ...!    DCD    553777920
        0x08008fb8:    f092784a    Jx..    DCD    4036130890
        0x08008fbc:    704a0201    ..Jp    DCD    1883898369
        0x08008fc0:    f7ffd001    ....    DCD    4160737281
        0x08008fc4:    f7ffbcf1    ....    DCD    4160732401
        0x08008fc8:    0000bcf5    ....    DCD    48373
        0x08008fcc:    200000c4    ...     DCD    536871108
        0x08008fd0:    00004770    pG..    DCD    18288
        0x08008fd4:    60422200    ."B`    DCD    1614946816
        0x08008fd8:    49276001    .`'I    DCD    1227317249
        0x08008fdc:    b90a680a    .h..    DCD    3104466954
        0x08008fe0:    47706008    .`pG    DCD    1198546952
        0x08008fe4:    e000000a    ....    DCD    3758096394
        0x08008fe8:    68131d1a    ...h    DCD    1746083098
        0x08008fec:    4298b10b    ...B    DCD    1117303051
        0x08008ff0:    6043d2fa    ..C`    DCD    1615057658
        0x08008ff4:    68086010    .`.h    DCD    1745379344
        0x08008ff8:    d0f22800    .(..    DCD    3505530880
        0x08008ffc:    0008e000    ....    DCD    581632
        0x08009000:    29006841    Ah.)    DCD    687892545
        0x08009004:    6802d0ed    ...h    DCD    1745015021
        0x08009008:    428b1883    ...B    DCD    1116412035
        0x0800900c:    684bd1f7    ..Kh    DCD    1749799415
        0x08009010:    68096043    C`.h    DCD    1745444931
        0x08009014:    60011851    Q..`    DCD    1610684497
        0x08009018:    0000e7f2    ....    DCD    59378
        0x0800901c:    20004916    .I.     DCD    536889622
        0x08009020:    e0046809    .h..    DCD    3758385161
        0x08009024:    4290680a    .h.B    DCD    1116760074
        0x08009028:    4610bf38    8..F    DCD    1175502648
        0x0800902c:    29006849    Ih.)    DCD    687892553
        0x08009030:    b100d1f8    ....    DCD    2969620984
        0x08009034:    47703808    .8pG    DCD    1198536712
        0x08009038:    0001b510    ....    DCD    111888
        0x0800903c:    1dc92000    . ..    DCD    499720192
        0x08009040:    43912207    .".C    DCD    1133584903
        0x08009044:    31084a0c    .J.1    DCD    822626828
        0x08009048:    1d1ae000    ....    DCD    488300544
        0x0800904c:    b1936813    .h..    DCD    2979227667
        0x08009050:    42a1681c    .h.B    DCD    1117874204
        0x08009054:    0018d208    ....    DCD    1626632
        0x08009058:    6013185b    [..`    DCD    1611864155
        0x0800905c:    1a526802    .hR.    DCD    441608194
        0x08009060:    6842601a    .`Bh    DCD    1749180442
        0x08009064:    e003605a    Z`..    DCD    3758317658
        0x08009068:    0018d1ef    ....    DCD    1626607
        0x0800906c:    6013685b    [h.`    DCD    1611884635
        0x08009070:    f840b108    ..@.    DCD    4164989192
        0x08009074:    bd101b08    ....    DCD    3171949320
        0x08009078:    200000d0    ...     DCD    536871120
        0x0800907c:    b118b500    ....    DCD    2971186432
        0x08009080:    1d08f850    P...    DCD    487127120
        0x08009084:    ffa6f7ff    ....    DCD    4289132543
        0x08009088:    0000bd00    ....    DCD    48384
        0x0800908c:    21071dca    ...!    DCD    554114506
        0x08009090:    f850438a    .CP.    DCD    4166009738
        0x08009094:    32081d08    ...2    DCD    839392520
        0x08009098:    1a896002    .`..    DCD    445210626
        0x0800909c:    e7991880    ....    DCD    3885570176
        0x080090a0:    0004b510    ....    DCD    308496
        0x080090a4:    f7ff6820     h..    DCD    4160710688
        0x080090a8:    2000ffe9    ...     DCD    536936425
        0x080090ac:    bd106020     `..    DCD    3171967008
        0x080090b0:    43912207    .".C    DCD    1133584903
        0x080090b4:    0000e78e    ....    DCD    59278
        0x080090b8:    4c20b511    .. L    DCD    1277211921
        0x080090bc:    ff5cf7ff    ..\.    DCD    4284282879
        0x080090c0:    1c491b01    ..I.    DCD    474553089
        0x080090c4:    4c1e0020     ..L    DCD    1277034528
        0x080090c8:    fff2f7ff    ....    DCD    4294113279
        0x080090cc:    fc24f7ff    ..$.    DCD    4230281215
        0x080090d0:    ff7ef7ff    ..~.    DCD    4286511103
        0x080090d4:    f7fd2001    . ..    DCD    4160561153
        0x080090d8:    f7ffffaf    ....    DCD    4160749487
        0x080090dc:    4819fcc9    ...H    DCD    1209662665
        0x080090e0:    fcf4f7ff    ....    DCD    4243912703
        0x080090e4:    fc6cf7ff    ..l.    DCD    4234999807
        0x080090e8:    f7ff2000    . ..    DCD    4160692224
        0x080090ec:    f000ff51    Q...    DCD    4026597201
        0x080090f0:    f7fef8af    ....    DCD    4160682159
        0x080090f4:    e004fcb3    ....    DCD    3758423219
        0x080090f8:    ff5af7ff    ..Z.    DCD    4284151807
        0x080090fc:    f0002032    2 ..    DCD    4026540082
        0x08009100:    f000fc71    q...    DCD    4026596465
        0x08009104:    2800f8bd    ...(    DCD    671152317
        0x08009108:    2000d0f6    ...     DCD    536924406
        0x0800910c:    ff40f7ff    ..@.    DCD    4282447871
        0x08009110:    2001e00d    ...     DCD    536993805
        0x08009114:    46686020     `hF    DCD    1181245472
        0x08009118:    f8b4f000    ....    DCD    4172607488
        0x0800911c:    d4062800    .(..    DCD    3557173248
        0x08009120:    30fff05f    _..0    DCD    822079583
        0x08009124:    f89d6020     `..    DCD    4171063328
        0x08009128:    f7fe0000    ....    DCD    4160618496
        0x0800912c:    4806fc81    ...H    DCD    1208417409
        0x08009130:    28007800    .x.(    DCD    671119360
        0x08009134:    f000d0ed    ....    DCD    4026585325
        0x08009138:    e7e2f899    ....    DCD    3890411673
        0x0800913c:    200013e0    ...     DCD    536876000
        0x08009140:    20000550    P..     DCD    536872272
        0x08009144:    00004e20     N..    DCD    20000
        0x08009148:    20000ff0    ...     DCD    536874992
        0x0800914c:    2101484b    KH.!    DCD    553732171
        0x08009150:    47707001    .ppG    DCD    1198551041
        0x08009154:    b121b500    ..!.    DCD    2971776256
        0x08009158:    4a5db118    ..]J    DCD    1247654168
        0x0800915c:    69526812    .hRi    DCD    1767008274
        0x08009160:    bd004790    .G..    DCD    3170912144
        0x08009164:    68124a5a    ZJ.h    DCD    1746029146
        0x08009168:    471069d2    .i.G    DCD    1192258002
        0x0800916c:    b088b530    0...    DCD    2961749296
        0x08009170:    22200004    .. "    DCD    572522500
        0x08009174:    46682100    .!hF    DCD    1181229312
        0x08009178:    fd0cf002    ....    DCD    4245483522
        0x0800917c:    bf342c21    !,4.    DCD    3207867425
        0x08009180:    25204625    %F %    DCD    622872101
        0x08009184:    00294a52    RJ).    DCD    2706002
        0x08009188:    68124668    hF.h    DCD    1746028136
        0x0800918c:    47906952    Ri.G    DCD    1200646482
        0x08009190:    d1f31b64    d...    DCD    3522370404
        0x08009194:    bd30b008    ..0.    DCD    3174084616
        0x08009198:    68124a4d    MJ.h    DCD    1746029133
        0x0800919c:    47106992    .i.G    DCD    1192257938
        0x080091a0:    2101b501    ...!    DCD    553760001
        0x080091a4:    0000e002    ....    DCD    57346
        0x080091a8:    2102b501    ...!    DCD    553825537
        0x080091ac:    f7ff4668    hF..    DCD    4160702056
        0x080091b0:    bd01ffd1    ....    DCD    3171024849
        0x080091b4:    2104b501    ...!    DCD    553956609
        0x080091b8:    0000e7f8    ....    DCD    59384
        0x080091bc:    f7ff4668    hF..    DCD    4160702056
        0x080091c0:    bd01ffd1    ....    DCD    3171024849
        0x080091c4:    2104b501    ...!    DCD    553956609
        0x080091c8:    0000e7f8    ....    DCD    59384
        0x080091cc:    68004840    @H.h    DCD    1744848960
        0x080091d0:    47006a00    .j.G    DCD    1191209472
        0x080091d4:    2000b909    ...     DCD    536918281
        0x080091d8:    4a3d4770    pG=J    DCD    1245529968
        0x080091dc:    68926812    .h.h    DCD    1754425362
        0x080091e0:    00004710    .G..    DCD    18192
        0x080091e4:    b088b530    0...    DCD    2961749296
        0x080091e8:    2c210004    ..!,    DCD    740360196
        0x080091ec:    4625bf34    4.%F    DCD    1176878900
        0x080091f0:    00292520     %).    DCD    2696480
        0x080091f4:    f7ff4668    hF..    DCD    4160702056
        0x080091f8:    b908ffed    ....    DCD    3104374765
        0x080091fc:    d1f41b64    d...    DCD    3522435940
        0x08009200:    bd30b008    ..0.    DCD    3174084616
        0x08009204:    68124a32    2J.h    DCD    1746029106
        0x08009208:    471068d2    .h.G    DCD    1192257746
        0x0800920c:    e7e12104    .!..    DCD    3890290948
        0x08009210:    2200b511    ..."    DCD    570471697
        0x08009214:    46680004    ..hF    DCD    1181220868
        0x08009218:    f7ff6002    .`..    DCD    4160708610
        0x0800921c:    f89dffdb    ....    DCD    4171104219
        0x08009220:    f89d2001    . ..    DCD    4171046913
        0x08009224:    ea511000    ..Q.    DCD    3931181056
        0x08009228:    f89d2102    .!..    DCD    4171047170
        0x0800922c:    ea512002    . Q.    DCD    3931185154
        0x08009230:    f89d4102    .A..    DCD    4171055362
        0x08009234:    ea512003    . Q.    DCD    3931185155
        0x08009238:    60216102    .a!`    DCD    1612800258
        0x0800923c:    0000bd12    ....    DCD    48402
        0x08009240:    68004823    #H.h    DCD    1744848931
        0x08009244:    47006800    .h.G    DCD    1191208960
        0x08009248:    68004821    !H.h    DCD    1744848929
        0x0800924c:    47006840    @h.G    DCD    1191209024
        0x08009250:    b500481e    .H..    DCD    3036694558
        0x08009254:    fc46f000    ..F.    DCD    4232507392
        0x08009258:    f89af000    ....    DCD    4170903552
        0x0800925c:    491d481c    .H.I    DCD    1226655772
        0x08009260:    bd006001    .`..    DCD    3170918401
        0x08009264:    f0004819    .H..    DCD    4026550297
        0x08009268:    0000bc6d    m...    DCD    48237
        0x0800926c:    21004803    .H.!    DCD    553666563
        0x08009270:    48177001    .p.H    DCD    1209495553
        0x08009274:    69006800    .h.i    DCD    1761634304
        0x08009278:    00004700    .G..    DCD    18176
        0x0800927c:    20000ff0    ...     DCD    536874992
        0x08009280:    b99cf000    ....    DCD    3114070016
        0x08009284:    4d11b531    1..M    DCD    1293006129
        0x08009288:    e0030004    ....    DCD    3758292996
        0x0800928c:    00282102    .!(.    DCD    2629890
        0x08009290:    fc90f000    ....    DCD    4237357056
        0x08009294:    f992f000    ....    DCD    4187156480
        0x08009298:    f000b158    X...    DCD    4026577240
        0x0800929c:    2801f98d    ...(    DCD    671218061
        0x080092a0:    480bdb07    ...H    DCD    1208736519
        0x080092a4:    6001490b    .I.`    DCD    1610696971
        0x080092a8:    00202101    .! .    DCD    2105601
        0x080092ac:    ff92f7ff    ....    DCD    4287821823
        0x080092b0:    f000bd32    2...    DCD    4026580274
        0x080092b4:    2800f983    ...(    DCD    671152515
        0x080092b8:    2100d0e8    ...!    DCD    553701608
        0x080092bc:    f0004668    hF..    DCD    4026549864
        0x080092c0:    0028f96d    m.(.    DCD    2685293
        0x080092c4:    fc60f000    ..`.    DCD    4234211328
        0x080092c8:    0000e7e4    ....    DCD    59364
        0x080092cc:    200000d4    ...     DCD    536871124
        0x080092d0:    200000dc    ...     DCD    536871132
        0x080092d4:    08009adc    ....    DCD    134257372
        0x080092d8:    240bb511    ...$    DCD    604747025
        0x080092dc:    210a466a    jF.!    DCD    554321514
        0x080092e0:    fc60f002    ..`.    DCD    4234211330
        0x080092e4:    9a004928    (I..    DCD    2583709992
        0x080092e8:    550a3230    02.U    DCD    1426731568
        0x080092ec:    d5f51e64    d...    DCD    3589611108
        0x080092f0:    0000bd11    ....    DCD    48401
        0x080092f4:    2201b503    ..."    DCD    570537219
        0x080092f8:    2101a800    ...!    DCD    553756672
        0x080092fc:    f7ff1c40    @...    DCD    4160691264
        0x08009300:    f89dfa2d    -...    DCD    4171102765
        0x08009304:    28010001    ...(    DCD    671154177
        0x08009308:    2802d002    ...(    DCD    671272962
        0x0800930c:    e00ed006    ....    DCD    3759067142
        0x08009310:    21002204    .".!    DCD    553656836
        0x08009314:    f7ffa801    ....    DCD    4160727041
        0x08009318:    e004fa4d    M...    DCD    3758422605
        0x0800931c:    21082204    .".!    DCD    554181124
        0x08009320:    f7ffa801    ....    DCD    4160727041
        0x08009324:    9801fa1b    ....    DCD    2550266395
        0x08009328:    ffd6f7ff    ....    DCD    4292278271
        0x0800932c:    2201bd03    ..."    DCD    570539267
        0x08009330:    46682100    .!hF    DCD    1181229312
        0x08009334:    fa12f7ff    ....    DCD    4195547135
        0x08009338:    0000f89d    ....    DCD    63645
        0x0800933c:    d2052804    .(..    DCD    3523553284
        0x08009340:    f89d48a5    .H..    DCD    4171057317
        0x08009344:    f2011000    ....    DCD    4060155904
        0x08009348:    80011101    ....    DCD    2147553537
        0x0800934c:    0000bd03    ....    DCD    48387
        0x08009350:    bf88f7ff    ....    DCD    3213424639
        0x08009354:    0788b500    ....    DCD    126399744
        0x08009358:    28020f80    ...(    DCD    671223680
        0x0800935c:    f7ffbf18    ....    DCD    4160732952
        0x08009360:    bd00ff81    ....    DCD    3170959233
        0x08009364:    8800489b    .H..    DCD    2281719963
        0x08009368:    00004770    pG..    DCD    18288
        0x0800936c:    8800489a    .H..    DCD    2281719962
        0x08009370:    00004770    pG..    DCD    18288
        0x08009374:    68004899    .H.h    DCD    1744849049
        0x08009378:    00004770    pG..    DCD    18288
        0x0800937c:    68004898    .H.h    DCD    1744849048
        0x08009380:    00004770    pG..    DCD    18288
        0x08009384:    47704800    .HpG    DCD    1198540800
        0x08009388:    20000004    ...     DCD    536870916
        0x0800938c:    47702001    . pG    DCD    1198530561
        0x08009390:    f7ffb501    ....    DCD    4160730369
        0x08009394:    f001ffaf    ....    DCD    4026662831
        0x08009398:    2000fd9f    ...     DCD    536935839
        0x0800939c:    2300b401    ...#    DCD    587248641
        0x080093a0:    21022240    @".!    DCD    553787968
        0x080093a4:    f0012001    . ..    DCD    4026605569
        0x080093a8:    4b0ffd19    ...K    DCD    1259339033
        0x080093ac:    0004f88d    ....    DCD    325773
        0x080093b0:    b4012040    @ ..    DCD    3019972672
        0x080093b4:    21024602    .F.!    DCD    553797122
        0x080093b8:    f0012000    . ..    DCD    4026605568
        0x080093bc:    f88dfd0f    ....    DCD    4170054927
        0x080093c0:    a8020009    ....    DCD    2818703369
        0x080093c4:    f938f001    ..8.    DCD    4181258241
        0x080093c8:    f0014808    .H..    DCD    4026615816
        0x080093cc:    4908f953    S..I    DCD    1225324883
        0x080093d0:    22004808    .H."    DCD    570443784
        0x080093d4:    ff82f001    ....    DCD    4286771201
        0x080093d8:    20004907    .I.     DCD    536889607
        0x080093dc:    fec4f001    ....    DCD    4274319361
        0x080093e0:    fd96f001    ....    DCD    4254527489
        0x080093e4:    bf00bd07    ....    DCD    3204496647
        0x080093e8:    200000ec    ...     DCD    536871148
        0x080093ec:    08006cc9    .l..    DCD    134245577
        0x080093f0:    08006ccd    .l..    DCD    134245581
        0x080093f4:    200000e0    ...     DCD    536871136
        0x080093f8:    08006d05    .m..    DCD    134245637
        0x080093fc:    f7ffb500    ....    DCD    4160730368
        0x08009400:    2014fdb9    ...     DCD    538246585
        0x08009404:    faeef000    ....    DCD    4209963008
        0x08009408:    eb04f85d    ]...    DCD    3942971485
        0x0800940c:    bdb0f7ff    ....    DCD    3182491647
        0x08009410:    4ff0e92d    -..O    DCD    1341188397
        0x08009414:    4965468b    .FeI    DCD    1231373963
        0x08009418:    f8984688    .F..    DCD    4170729096
        0x0800941c:    29001000    ...)    DCD    687869952
        0x08009420:    4d4ed148    H.NM    DCD    1297011016
        0x08009424:    48350004    ..5H    DCD    1211432964
        0x08009428:    465e682f    /h^F    DCD    1180592175
        0x0800942c:    b3074681    .F..    DCD    3003598465
        0x08009430:    1bc02040    @ ..    DCD    465576000
        0x08009434:    bf2c4286    .B,.    DCD    3207348870
        0x08009438:    46b24682    .F.F    DCD    1186088578
        0x0800943c:    00214652    RF!.    DCD    2180690
        0x08009440:    19c04648    HF..    DCD    432031304
        0x08009444:    fc20f002    .. .    DCD    4230017026
        0x08009448:    0707eb1a    ....    DCD    117959450
        0x0800944c:    0404eb1a    ....    DCD    67431194
        0x08009450:    060aebb6    ....    DCD    101378998
        0x08009454:    d10c2f40    @/..    DCD    3507236672
        0x08009458:    2200484f    OH."    DCD    570443855
        0x0800945c:    68032140    @!.h    DCD    1745035584
        0x08009460:    f0014648    HF..    DCD    4026615368
        0x08009464:    2840f8d5    ..@(    DCD    675346645
        0x08009468:    2001bf1c    ...     DCD    536985372
        0x0800946c:    0000f888    ....    DCD    63624
        0x08009470:    09b02700    .'..    DCD    162539264
        0x08009474:    46820180    ...F    DCD    1182925184
        0x08009478:    4847d00f    ..GH    DCD    1212665871
        0x0800947c:    46512200    ."QF    DCD    1179722240
        0x08009480:    00206803    .h .    DCD    2123779
        0x08009484:    f8c4f001    ....    DCD    4173656065
        0x08009488:    bf1c4550    PE..    DCD    3206301008
        0x0800948c:    f8882001    . ..    DCD    4169670657
        0x08009490:    eb1a0000    ....    DCD    3944349696
        0x08009494:    ebb60404    ....    DCD    3954574340
        0x08009498:    b12e060a    ....    DCD    2972583434
        0x0800949c:    00210032    2.!.    DCD    2162738
        0x080094a0:    f0024648    HF..    DCD    4026680904
        0x080094a4:    0037fbf1    ..7.    DCD    3668977
        0x080094a8:    602f482d    -H/`    DCD    1613711405
        0x080094ac:    6801465a    ZF.h    DCD    1744914010
        0x080094b0:    60011889    ...`    DCD    1610684553
        0x080094b4:    8ff0e8bd    ....    DCD    2414930109
        0x080094b8:    4c29b5f0    ..)L    DCD    1277801968
        0x080094bc:    b1e06820     h..    DCD    2984273952
        0x080094c0:    78294d3a    :M)x    DCD    2015972666
        0x080094c4:    4e25b9c9    ..%N    DCD    1311095241
        0x080094c8:    68312700    .'1h    DCD    1748051712
        0x080094cc:    4832b161    a.2H    DCD    1211281761
        0x080094d0:    68032201    .".h    DCD    1745035777
        0x080094d4:    f0014809    .H..    DCD    4026615817
        0x080094d8:    6831f89b    ..1h    DCD    1748105371
        0x080094dc:    bf1c4288    .B..    DCD    3206300296
        0x080094e0:    70282001    . (p    DCD    1881677825
        0x080094e4:    e0056037    7`..    DCD    3758448695
        0x080094e8:    d1030681    ....    DCD    3506636417
        0x080094ec:    bf180540    @...    DCD    3206022464
        0x080094f0:    f886f001    ....    DCD    4169592833
        0x080094f4:    f0016027    '`..    DCD    4026621991
        0x080094f8:    bdf0f8c5    ....    DCD    3186686149
        0x080094fc:    2000012c    ,..     DCD    536871212
        0x08009500:    4e2ab570    p.*N    DCD    1311421808
        0x08009504:    000d0004    ....    DCD    851972
        0x08009508:    b9607830    0x`.    DCD    3110107184
        0x0800950c:    ffd4f7ff    ....    DCD    4292147199
        0x08009510:    22014821    !H."    DCD    570509345
        0x08009514:    68030029    )..h    DCD    1745027113
        0x08009518:    f0010020     ...    DCD    4026597408
        0x0800951c:    42a8f879    y..B    DCD    1118369913
        0x08009520:    2001bf1c    ...     DCD    536985372
        0x08009524:    bd707030    0pp.    DCD    3178262576
        0x08009528:    0005b530    0...    DCD    374064
        0x0800952c:    000c481f    .H..    DCD    804895
        0x08009530:    b9907800    .x..    DCD    3113252864
        0x08009534:    68004809    .H.h    DCD    1744848905
        0x08009538:    f7ffb108    ....    DCD    4160729352
        0x0800953c:    2200ffbd    ..."    DCD    570490813
        0x08009540:    00280021    !.(.    DCD    2621473
        0x08009544:    f83ef001    ..>.    DCD    4164874241
        0x08009548:    06a14805    .H..    DCD    111233029
        0x0800954c:    2100bf1e    ...!    DCD    553697054
        0x08009550:    bd306001    .`0.    DCD    3174064129
        0x08009554:    19096801    .h..    DCD    420046849
        0x08009558:    bd306001    .`0.    DCD    3174064129
        0x0800955c:    2000016c    l..     DCD    536871276
        0x08009560:    20000170    p..     DCD    536871280
        0x08009564:    4e11b570    p..N    DCD    1309783408
        0x08009568:    000d0004    ....    DCD    851972
        0x0800956c:    b1387830    0x8.    DCD    2973268016
        0x08009570:    2100002a    *..!    DCD    553648170
        0x08009574:    f0020020     ...    DCD    4026662944
        0x08009578:    f05ffb0d    .._.    DCD    4032822029
        0x0800957c:    bd7030ff    .0p.    DCD    3178246399
        0x08009580:    68024805    .H.h    DCD    1744979973
        0x08009584:    f0010020     ...    DCD    4026597408
        0x08009588:    42a8f84f    O..B    DCD    1118369871
        0x0800958c:    2001d002    ...     DCD    536989698
        0x08009590:    e7ed7030    0p..    DCD    3891097648
        0x08009594:    bd702000    . p.    DCD    3178242048
        0x08009598:    20000000    ...     DCD    536870912
        0x0800959c:    78124a03    .J.x    DCD    2014464515
        0x080095a0:    f05fb112    .._.    DCD    4032803090
        0x080095a4:    477030ff    .0pG    DCD    1198534911
        0x080095a8:    b806f001    ....    DCD    3087462401
        0x080095ac:    20000fe6    ...     DCD    536874982
        0x080095b0:    b81cf001    ....    DCD    3088904193
        0x080095b4:    b812f001    ....    DCD    3088248833
        0x080095b8:    b80cf001    ....    DCD    3087855617
        0x080095bc:    f001b500    ....    DCD    4026643712
        0x080095c0:    0780fec1    ....    DCD    125894337
        0x080095c4:    28020f80    ...(    DCD    671223680
        0x080095c8:    2001bf04    ...     DCD    536985348
        0x080095cc:    2000bd00    ...     DCD    536919296
        0x080095d0:    0000bd00    ....    DCD    48384
        0x080095d4:    20000064    d..     DCD    536871012
        0x080095d8:    20000066    f..     DCD    536871014
        0x080095dc:    20000014    ...     DCD    536870932
        0x080095e0:    20000018    ...     DCD    536870936
        0x080095e4:    47704800    .HpG    DCD    1198540800
        0x080095e8:    200011e0    ...     DCD    536875488
        0x080095ec:    47704668    hFpG    DCD    1198540392
        0x080095f0:    b5004803    .H..    DCD    3036694531
        0x080095f4:    b9087800    .x..    DCD    3104339968
        0x080095f8:    fb77f000    ..w.    DCD    4218941440
        0x080095fc:    0000bd00    ....    DCD    48384
        0x08009600:    20000179    y..     DCD    536871289
        0x08009604:    4c2ab510    ..*L    DCD    1277867280
        0x08009608:    1e407820     x@.    DCD    507541536
        0x0800960c:    06007020     p..    DCD    100692000
        0x08009610:    f000d10e    ....    DCD    4026585358
        0x08009614:    487cfb70    p.|H    DCD    1216150384
        0x08009618:    b1287800    .x(.    DCD    2972219392
        0x0800961c:    70202001    .  p    DCD    1881153537
        0x08009620:    fb52f000    ..R.    DCD    4216516608
        0x08009624:    70202000    .  p    DCD    1881153536
        0x08009628:    b9087860    `x..    DCD    3104340064
        0x0800962c:    fb5df000    ..].    DCD    4217237504
        0x08009630:    0000bd10    ....    DCD    48400
        0x08009634:    41b0e92d    -..A    DCD    1102113069
        0x08009638:    22006881    .h."    DCD    570452097
        0x0800963c:    b1314690    .F1.    DCD    2972796560
        0x08009640:    6849680a    .hIh    DCD    1749641226
        0x08009644:    6051b102    ..Q`    DCD    1615966466
        0x08009648:    f8c0600a    .`..    DCD    4173357066
        0x0800964c:    7c418008    ..A|    DCD    2084667400
        0x08009650:    07894c17    .L..    DCD    126438423
        0x08009654:    74410f89    ..At    DCD    1950420873
        0x08009658:    496cd111    ..lI    DCD    1231868177
        0x0800965c:    b9a2680a    .h..    DCD    3114428426
        0x08009660:    78206008    .` x    DCD    2015387656
        0x08009664:    2001b930    0..     DCD    536983856
        0x08009668:    f0007020     p..    DCD    4026560544
        0x0800966c:    2000fb2d    -..     DCD    536935213
        0x08009670:    e0047020     p..    DCD    3758387232
        0x08009674:    78014864    dH.x    DCD    2013349988
        0x08009678:    0102f051    Q...    DCD    16969809
        0x0800967c:    78607001    .p`x    DCD    2019586049
        0x08009680:    f000b908    ....    DCD    4026579208
        0x08009684:    e8bdfb32    2...    DCD    3904764722
        0x08009688:    7c0381b0    ...|    DCD    2080604592
        0x0800968c:    429d7c15    .|.B    DCD    1117617173
        0x08009690:    4282d3e6    ...B    DCD    1115870182
        0x08009694:    42abd0e5    ...B    DCD    1118556389
        0x08009698:    0005d1f1    ....    DCD    381425
        0x0800969c:    2d00682d    -h.-    DCD    755001389
        0x080096a0:    7c2fd0ed    ../|    DCD    2083508461
        0x080096a4:    d1ea42bb    .B..    DCD    3521790651
        0x080096a8:    d1f74295    .B..    DCD    3522642581
        0x080096ac:    0000e7d8    ....    DCD    59352
        0x080096b0:    20000178    x..     DCD    536871288
        0x080096b4:    b530493a    :I0.    DCD    3039840570
        0x080096b8:    7c200004    .. |    DCD    2082471940
        0x080096bc:    0011e000    ....    DCD    1171456
        0x080096c0:    b112680a    .h..    DCD    2970773514
        0x080096c4:    42a87c15    .|.B    DCD    1118338069
        0x080096c8:    6022d3f9    .."`    DCD    1612895225
        0x080096cc:    600c6161    aa.`    DCD    1611424097
        0x080096d0:    6154b142    B.Ta    DCD    1632940354
        0x080096d4:    00217c12    .|!.    DCD    2194450
        0x080096d8:    42823124    $1.B    DCD    1115828516
        0x080096dc:    2000bf14    ...     DCD    536919828
        0x080096e0:    70087848    Hx.p    DCD    1879603272
        0x080096e4:    b9207c60    `| .    DCD    3105913952
        0x080096e8:    fb05f000    ....    DCD    4211470336
        0x080096ec:    f7ff0020     ...    DCD    4160684064
        0x080096f0:    bd30ffa1    ..0.    DCD    3174104993
        0x080096f4:    4c99b5f0    ...L    DCD    1285142000
        0x080096f8:    4e274d97    .M'N    DCD    1311198615
        0x080096fc:    f0004f27    'O..    DCD    4026552103
        0x08009700:    4841fafa    ..AH    DCD    1212283642
        0x08009704:    f0117801    .x..    DCD    4027676673
        0x08009708:    700101fe    ...p    DCD    1879114238
        0x0800970c:    f5106828    (h..    DCD    4111493160
        0x08009710:    6020607a    z` `    DCD    1612734586
        0x08009714:    6038e00d    ..8`    DCD    1614340109
        0x08009718:    60316801    .h1`    DCD    1613850625
        0x0800971c:    74012100    .!.t    DCD    1946231040
        0x08009720:    60816838    8h.`    DCD    1619093560
        0x08009724:    fae1f000    ....    DCD    4209111040
        0x08009728:    68406838    8h@h    DCD    1749051448
        0x0800972c:    f0004780    .G..    DCD    4026550144
        0x08009730:    6830fae2    ..0h    DCD    1748040418
        0x08009734:    6881b130    0..h    DCD    1753329968
        0x08009738:    1a89682a    *h..    DCD    445212714
        0x0800973c:    dbea2901    .)..    DCD    3689556225
        0x08009740:    60206880    .h `    DCD    1612736640
        0x08009744:    fad1f000    ....    DCD    4208062464
        0x08009748:    68064815    .H.h    DCD    1745242133
        0x0800974c:    68f0e007    ...h    DCD    1760616455
        0x08009750:    1a416821    !hA.    DCD    440494113
        0x08009754:    6020bf48    H. `    DCD    1612758856
        0x08009758:    fac7f000    ....    DCD    4207407104
        0x0800975c:    b1ce6836    6h..    DCD    2983094326
        0x08009760:    fac9f000    ....    DCD    4207538176
        0x08009764:    68014829    )H.h    DCD    1744914473
        0x08009768:    7c31b121    !.1|    DCD    2083631393
        0x0800976c:    7c006800    .h.|    DCD    2080401408
        0x08009770:    d30f4281    .B..    DCD    3540992641
        0x08009774:    07407c70    p|@.    DCD    121666672
        0x08009778:    68f0d5ee    ...h    DCD    1760613870
        0x0800977c:    1a406829    )h@.    DCD    440428585
        0x08009780:    dae42801    .(..    DCD    3672385537
        0x08009784:    f7ff0030    0...    DCD    4160684080
        0x08009788:    f000ff55    U...    DCD    4026597205
        0x0800978c:    7c70fab4    ..p|    DCD    2087778996
        0x08009790:    d1dc2800    .(..    DCD    3520866304
        0x08009794:    bf00bdf0    ....    DCD    3204496880
        0x08009798:    20000188    ...     DCD    536871304
        0x0800979c:    2000018c    ...     DCD    536871308
        0x080097a0:    2000017c    |..     DCD    536871292
        0x080097a4:    f000b530    0...    DCD    4026578224
        0x080097a8:    4891faa6    ...H    DCD    1217526438
        0x080097ac:    48166804    .h.H    DCD    1209427972
        0x080097b0:    f0117801    .x..    DCD    4027676673
        0x080097b4:    700101fb    ...p    DCD    1879114235
        0x080097b8:    fa97f000    ....    DCD    4204261376
        0x080097bc:    6825b30c    ..%h    DCD    1747301132
        0x080097c0:    7c20b1fd    .. |    DCD    2082517501
        0x080097c4:    42817c29    )|.B    DCD    1115782185
        0x080097c8:    e000d11b    ....    DCD    3758149915
        0x080097cc:    6829000d    ..)h    DCD    1747517453
        0x080097d0:    7c0ab111    ...|    DCD    2081075473
        0x080097d4:    d0f94282    .B..    DCD    3505996418
        0x080097d8:    fa8df000    ....    DCD    4203606016
        0x080097dc:    6801480b    .H.h    DCD    1744914443
        0x080097e0:    bf0442a1    .B..    DCD    3204727457
        0x080097e4:    60016821    !h.`    DCD    1610704929
        0x080097e8:    68216960    `i!h    DCD    1747020128
        0x080097ec:    61486001    .`Ha    DCD    1632133121
        0x080097f0:    68286165    ea(h    DCD    1747476837
        0x080097f4:    b1006020     `..    DCD    2969591840
        0x080097f8:    f8456144    DaE.    DCD    4165296452
        0x080097fc:    78684b24    $Khx    DCD    2020100900
        0x08009800:    f0007028    (p..    DCD    4026560552
        0x08009804:    bd30fa72    r.0.    DCD    3174103666
        0x08009808:    20000fe7    ...     DCD    536874983
        0x0800980c:    20000184    ...     DCD    536871300
        0x08009810:    4ff0e92d    -..O    DCD    1341188397
        0x08009814:    21002000    . .!    DCD    553656320
        0x08009818:    484d4680    .FMH    DCD    1213023872
        0x0800981c:    48707001    .ppH    DCD    1215328257
        0x08009820:    70012101    .!.p    DCD    1879122177
        0x08009824:    46814872    rH.F    DCD    1182877810
        0x08009828:    0000f8d9    ....    DCD    63705
        0x0800982c:    6a81b130    0..j    DCD    1786884400
        0x08009830:    6809b121    !..h    DCD    1745465633
        0x08009834:    bf1c000a    ....    DCD    3206283274
        0x08009838:    47886840    @h.G    DCD    1200121920
        0x0800983c:    485b4d42    BM[H    DCD    1213943106
        0x08009840:    46824c42    BL.F    DCD    1182944322
        0x08009844:    b1507828    (xP.    DCD    2974840872
        0x08009848:    0000f8d9    ....    DCD    63705
        0x0800984c:    f8007821    !x..    DCD    4160780321
        0x08009850:    f89a1f24    $...    DCD    4170850084
        0x08009854:    07400000    ..@.    DCD    121634816
        0x08009858:    f7ffbf48    H...    DCD    4160733000
        0x0800985c:    483dffa3    ..=H    DCD    1212022691
        0x08009860:    f8db4683    .F..    DCD    4175120003
        0x08009864:    b3500000    ..P.    DCD    3008364544
        0x08009868:    6830e004    ..0h    DCD    1748033540
        0x0800986c:    0000f8cb    ....    DCD    63691
        0x08009870:    fa3bf000    ..;.    DCD    4198232064
        0x08009874:    fa3ff000    ..?.    DCD    4198494208
        0x08009878:    6000f8db    ...`    DCD    1610676443
        0x0800987c:    7c77b1fe    ..w|    DCD    2088219134
        0x08009880:    d01c0038    8...    DCD    3491495992
        0x08009884:    d5100778    x...    DCD    3574597496
        0x08009888:    68f04933    3I.h    DCD    1760577843
        0x0800988c:    1a416809    .hA.    DCD    440494089
        0x08009890:    da052901    .)..    DCD    3657771265
        0x08009894:    f7ff0030    0...    DCD    4160684080
        0x08009898:    7c70fecd    ..p|    DCD    2087780045
        0x0800989c:    e00eb928    (...    DCD    3759061288
        0x080098a0:    680a492e    .I.h    DCD    1745504558
        0x080098a4:    bf481a82    ..H.    DCD    3209173634
        0x080098a8:    f0176008    .`..    DCD    4028063752
        0x080098ac:    281000fb    ...(    DCD    672137467
        0x080098b0:    68b0d1db    ...h    DCD    1756418523
        0x080098b4:    68406880    .h@h    DCD    1749051520
        0x080098b8:    28007c40    @|.(    DCD    671120448
        0x080098bc:    f000d1d5    ....    DCD    4026585557
        0x080098c0:    f89afa1a    ....    DCD    4170906138
        0x080098c4:    07c00000    ....    DCD    130023424
        0x080098c8:    f89ad412    ....    DCD    4170896402
        0x080098cc:    f0100000    ....    DCD    4027580416
        0x080098d0:    f88a00fd    ....    DCD    4169793789
        0x080098d4:    f8db0000    ....    DCD    4175101952
        0x080098d8:    b3480000    ..H.    DCD    3007840256
        0x080098dc:    0000f8db    ....    DCD    63707
        0x080098e0:    b1507c40    @|P.    DCD    2974841920
        0x080098e4:    0000f8db    ....    DCD    63707
        0x080098e8:    68806880    .h.h    DCD    1753245824
        0x080098ec:    e0066840    @h..    DCD    3758516288
        0x080098f0:    f9fbf000    ....    DCD    4194037760
        0x080098f4:    fefef7ff    ....    DCD    4278122495
        0x080098f8:    f8dbe7e1    ....    DCD    4175161313
        0x080098fc:    f8c90000    ....    DCD    4173922304
        0x08009900:    6a000000    ...j    DCD    1778384896
        0x08009904:    28cd7800    .x.(    DCD    684554240
        0x08009908:    2078bf1c    ..x     DCD    544784156
        0x0800990c:    f97af000    ..z.    DCD    4185583616
        0x08009910:    0000f8d9    ....    DCD    63705
        0x08009914:    b1216a81    .j!.    DCD    2971757185
        0x08009918:    000a6849    Ih..    DCD    682057
        0x0800991c:    6840bf1c    ..@h    DCD    1749073692
        0x08009920:    f8d94788    .G..    DCD    4174989192
        0x08009924:    30240000    ..$0    DCD    807665664
        0x08009928:    70207800    .x p    DCD    1881176064
        0x0800992c:    e0087028    (p..    DCD    3758649384
        0x08009930:    70207028    (p p    DCD    1881174056
        0x08009934:    f8c9482a    *H..    DCD    4173940778
        0x08009938:    21008000    ...!    DCD    553680896
        0x0800993c:    f0007001    .p..    DCD    4026560513
        0x08009940:    e8bdf9d4    ....    DCD    3904764372
        0x08009944:    bf008ff0    ....    DCD    3204485104
        0x08009948:    20000fea    ...     DCD    536874986
        0x0800994c:    20000fe9    ...     DCD    536874985
        0x08009950:    20000179    y..     DCD    536871289
        0x08009954:    20000184    ...     DCD    536871300
        0x08009958:    20000174    t..     DCD    536871284
        0x0800995c:    2000001c    ...     DCD    536870940
        0x08009960:    4c1fb530    0..L    DCD    1277146416
        0x08009964:    1c687825    %xh.    DCD    476608549
        0x08009968:    f0007020     p..    DCD    4026560544
        0x0800996c:    7860f9ad    ..`x    DCD    2019621293
        0x08009970:    b9087025    %p..    DCD    3104337957
        0x08009974:    f9b9f000    ....    DCD    4189712384
        0x08009978:    0000bd30    0...    DCD    48432
        0x0800997c:    f000b510    ....    DCD    4026578192
        0x08009980:    4817f9af    ...H    DCD    1209530799
        0x08009984:    70012101    .!.p    DCD    1879122177
        0x08009988:    b9087840    @x..    DCD    3104340032
        0x0800998c:    f9adf000    ....    DCD    4188925952
        0x08009990:    fe28f7ff    ..(.    DCD    4264097791
        0x08009994:    f7ff0004    ....    DCD    4160684036
        0x08009998:    1b02fe29    )...    DCD    453180969
        0x0800999c:    2a013a20     :.*    DCD    704723488
        0x080099a0:    21cdbfa2    ...!    DCD    567132066
        0x080099a4:    f0024620     F..    DCD    4026680864
        0x080099a8:    bd10f97b    {...    DCD    3172006267
        0x080099ac:    20000fe7    ...     DCD    536874983
        0x080099b0:    0004b510    ....    DCD    308496
        0x080099b4:    7800480a    .H.x    DCD    2013284362
        0x080099b8:    f000b130    0...    DCD    4026577200
        0x080099bc:    480bf996    ...H    DCD    1208744342
        0x080099c0:    1b006800    .h..    DCD    453011456
        0x080099c4:    e7fad50a    ....    DCD    3891975434
        0x080099c8:    f995f000    ....    DCD    4187353088
        0x080099cc:    68014808    .H.h    DCD    1744914440
        0x080099d0:    680060cc    .`.h    DCD    1744855244
        0x080099d4:    74412104    .!At    DCD    1950425348
        0x080099d8:    ffc2f7ff    ....    DCD    4290967551
        0x080099dc:    0000bd10    ....    DCD    48400
        0x080099e0:    20000178    x..     DCD    536871288
        0x080099e4:    68094901    .I.h    DCD    1745438977
        0x080099e8:    e7e11840    @...    DCD    3890288704
        0x080099ec:    20000174    t..     DCD    536871284
        0x080099f0:    20000180    ...     DCD    536871296
        0x080099f4:    47f0e92d    -..G    DCD    1206970669
        0x080099f8:    9f099e08    ....    DCD    2668207624
        0x080099fc:    46880004    ...F    DCD    1183318020
        0x08009a00:    469a4691    .F.F    DCD    1184515729
        0x08009a04:    2100222c    ,".!    DCD    553656876
        0x08009a08:    f94af002    ..J.    DCD    4182437890
        0x08009a0c:    f8851d25    %...    DCD    4169473317
        0x08009a10:    980a900c    ....    DCD    2550829068
        0x08009a14:    0025f884    ..%.    DCD    2488452
        0x08009a18:    b1084640    @F..    DCD    2970109504
        0x08009a1c:    8014f8c5    ....    DCD    2148858053
        0x08009a20:    61af61ee    .a.a    DCD    1638883822
        0x08009a24:    21cd003a    :..!    DCD    567083066
        0x08009a28:    f0020030    0...    DCD    4026662960
        0x08009a2c:    19f0f939    9...    DCD    435222841
        0x08009a30:    21073848    H8.!    DCD    554121288
        0x08009a34:    21004388    .C.!    DCD    553665416
        0x08009a38:    f05f6001    .`_.    DCD    4032782337
        0x08009a3c:    64017180    .q.d    DCD    1677816192
        0x08009a40:    63c14907    .I.c    DCD    1673611527
        0x08009a44:    a044f8c0    ..D.    DCD    2688874688
        0x08009a48:    48066028    (`.H    DCD    1208377384
        0x08009a4c:    1c497801    .xI.    DCD    474576897
        0x08009a50:    00207001    .p .    DCD    2125825
        0x08009a54:    fe2ef7ff    ....    DCD    4264491007
        0x08009a58:    fdd4f7ff    ....    DCD    4258592767
        0x08009a5c:    87f0e8bd    ....    DCD    2280712381
        0x08009a60:    0800762d    -v..    DCD    134247981
        0x08009a64:    20000178    x..     DCD    536871288
        0x08009a68:    4e0cb57f    ...N    DCD    1309455743
        0x08009a6c:    94020004    ....    DCD    2483159044
        0x08009a70:    000d6830    0h..    DCD    878640
        0x08009a74:    90039401    ....    DCD    2416153601
        0x08009a78:    f93df000    ..=.    DCD    4181585920
        0x08009a7c:    90006820     h..    DCD    2415945760
        0x08009a80:    60204668    hF `    DCD    1612727912
        0x08009a84:    b1089800    ....    DCD    2970130432
        0x08009a88:    60414669    iFA`    DCD    1614890601
        0x08009a8c:    46696830    0hiF    DCD    1181313072
        0x08009a90:    68306081    .`0h    DCD    1748000897
        0x08009a94:    f7ff7445    Et..    DCD    4160713797
        0x08009a98:    bd7fff63    c...    DCD    3179282275
        0x08009a9c:    20000180    ...     DCD    536871296
        0x08009aa0:    4f0fb5ff    ...O    DCD    1326429695
        0x08009aa4:    94020004    ....    DCD    2483159044
        0x08009aa8:    000d6838    8h..    DCD    878648
        0x08009aac:    94010016    ....    DCD    2483093526
        0x08009ab0:    f0009003    ....    DCD    4026568707
        0x08009ab4:    6820f920     . h    DCD    1746991392
        0x08009ab8:    46689000    ..hF    DCD    1181257728
        0x08009abc:    98006020     `..    DCD    2550161440
        0x08009ac0:    4669b108    ..iF    DCD    1181331720
        0x08009ac4:    68386041    A`8h    DCD    1748525121
        0x08009ac8:    60c64669    iF.`    DCD    1623606889
        0x08009acc:    60816838    8h.`    DCD    1619093560
        0x08009ad0:    f0556838    8hU.    DCD    4032129080
        0x08009ad4:    74410104    ..At    DCD    1950417156
        0x08009ad8:    ff42f7ff    ..B.    DCD    4282578943
        0x08009adc:    bf00bdff    ....    DCD    3204496895
        0x08009ae0:    20000180    ...     DCD    536871296
        0x08009ae4:    21002208    .".!    DCD    553656840
        0x08009ae8:    b8daf002    ....    DCD    3101356034
        0x08009aec:    4c0db530    0..L    DCD    1275966768
        0x08009af0:    78200005    .. x    DCD    2015363077
        0x08009af4:    70201c40    @. p    DCD    1881152576
        0x08009af8:    f8fdf000    ....    DCD    4177391616
        0x08009afc:    1c407860    `x@.    DCD    473987168
        0x08009b00:    00287060    `p(.    DCD    2650208
        0x08009b04:    f81ef000    ....    DCD    4162777088
        0x08009b08:    f0000028    (...    DCD    4026531880
        0x08009b0c:    7860f80d    ..`x    DCD    2019620877
        0x08009b10:    70601e40    @.`p    DCD    1885347392
        0x08009b14:    bf080600    ....    DCD    3204974080
        0x08009b18:    f8e7f000    ....    DCD    4175949824
        0x08009b1c:    4030e8bd    ..0@    DCD    1076947133
        0x08009b20:    bd70f7ff    ..p.    DCD    3178297343
        0x08009b24:    20000178    x..     DCD    536871288
        0x08009b28:    0004b510    ....    DCD    308496
        0x08009b2c:    f8e3f000    ....    DCD    4175687680
        0x08009b30:    71202000    .  q    DCD    1897930752
        0x08009b34:    78004802    .H.x    DCD    2013284354
        0x08009b38:    f000b908    ....    DCD    4026579208
        0x08009b3c:    bd10f8d6    ....    DCD    3172006102
        0x08009b40:    20000179    y..     DCD    536871289
        0x08009b44:    4c0fb530    0..L    DCD    1276097840
        0x08009b48:    f0000005    ....    DCD    4026531845
        0x08009b4c:    7860f8d4    ..`x    DCD    2019621076
        0x08009b50:    70601c40    @.`p    DCD    1885346880
        0x08009b54:    b1506828    (hP.    DCD    2974836776
        0x08009b58:    1c407820     x@.    DCD    473987104
        0x08009b5c:    20007020     p.     DCD    536899616
        0x08009b60:    00287128    (q(.    DCD    2650408
        0x08009b64:    f862f000    ..b.    DCD    4167233536
        0x08009b68:    fd4cf7ff    ..L.    DCD    4249679871
        0x08009b6c:    2001e001    ...     DCD    536993793
        0x08009b70:    78607128    (q`x    DCD    2019586344
        0x08009b74:    70601e40    @.`p    DCD    1885347392
        0x08009b78:    bf080600    ....    DCD    3204974080
        0x08009b7c:    f8b5f000    ....    DCD    4172673024
        0x08009b80:    bf00bd30    0...    DCD    3204496688
        0x08009b84:    20000178    x..     DCD    536871288
        0x08009b88:    0004b510    ....    DCD    308496
        0x08009b8c:    f8b3f000    ....    DCD    4172541952
        0x08009b90:    b9287920     y(.    DCD    3106437408
        0x08009b94:    00202148    H! .    DCD    2105672
        0x08009b98:    4010e8bd    ...@    DCD    1074849981
        0x08009b9c:    bf64f7ff    ..d.    DCD    3211065343
        0x08009ba0:    71202000    .  q    DCD    1897930752
        0x08009ba4:    78004802    .H.x    DCD    2013284354
        0x08009ba8:    f000b908    ....    DCD    4026579208
        0x08009bac:    bd10f89e    ....    DCD    3172006046
        0x08009bb0:    20000179    y..     DCD    536871289
        0x08009bb4:    4d11b5f0    ...M    DCD    1293006320
        0x08009bb8:    00044f11    .O..    DCD    282385
        0x08009bbc:    f000000e    ....    DCD    4026531854
        0x08009bc0:    6828f89a    ..(h    DCD    1747515546
        0x08009bc4:    79201986    .. y    DCD    2032146822
        0x08009bc8:    0032b980    ..2.    DCD    3324288
        0x08009bcc:    00202148    H! .    DCD    2105672
        0x08009bd0:    ff66f7ff    ..f.    DCD    4284938239
        0x08009bd4:    f88ff000    ....    DCD    4170182656
        0x08009bd8:    1a306828    (h0.    DCD    439380008
        0x08009bdc:    da052801    .(..    DCD    3657771009
        0x08009be0:    b9087878    xx..    DCD    3104340088
        0x08009be4:    f881f000    ....    DCD    4169265152
        0x08009be8:    bdf02001    . ..    DCD    3186630657
        0x08009bec:    71202000    .  q    DCD    1897930752
        0x08009bf0:    b9087878    xx..    DCD    3104340088
        0x08009bf4:    f879f000    ..y.    DCD    4168740864
        0x08009bf8:    bdf02000    . ..    DCD    3186630656
        0x08009bfc:    20000174    t..     DCD    536871284
        0x08009c00:    20000178    x..     DCD    536871288
        0x08009c04:    0004b510    ....    DCD    308496
        0x08009c08:    78014806    .H.x    DCD    2013349894
        0x08009c0c:    70011c49    I..p    DCD    1879120969
        0x08009c10:    70412100    .!Ap    DCD    1883316480
        0x08009c14:    f869f000    ..i.    DCD    4167692288
        0x08009c18:    70044803    .H.p    DCD    1879328771
        0x08009c1c:    29007801    .x.)    DCD    687896577
        0x08009c20:    bd10d1fc    ....    DCD    3171996156
        0x08009c24:    20000178    x..     DCD    536871288
        0x08009c28:    20000fe8    ...     DCD    536874984
        0x08009c2c:    0004b510    ....    DCD    308496
        0x08009c30:    68c0e002    ...h    DCD    1757470722
        0x08009c34:    fcfef7ff    ....    DCD    4244568063
        0x08009c38:    f85df000    ..].    DCD    4166905856
        0x08009c3c:    28006820     h.(    DCD    671115296
        0x08009c40:    4803d1f7    ...H    DCD    1208209911
        0x08009c44:    b9087800    .x..    DCD    3104339968
        0x08009c48:    f84ff000    ..O.    DCD    4165988352
        0x08009c4c:    bf00bd10    ....    DCD    3204496656
        0x08009c50:    20000179    y..     DCD    536871289
        0x08009c54:    6801482b    +H.h    DCD    1744914475
        0x08009c58:    f3efb151    Q...    DCD    4092571985
        0x08009c5c:    f1a08009    ....    DCD    4053827593
        0x08009c60:    49290024    $.)I    DCD    1227423780
        0x08009c64:    e880680b    .h..    DCD    3900729355
        0x08009c68:    49260ff8    ..&I    DCD    1227231224
        0x08009c6c:    6050680a    .hP`    DCD    1615882250
        0x08009c70:    f7ffb500    ....    DCD    4160730368
        0x08009c74:    f85dfdcd    ..].    DCD    4166909389
        0x08009c78:    4822eb04    .."H    DCD    1210247940
        0x08009c7c:    b1716801    .hq.    DCD    2976999425
        0x08009c80:    e8906848    Hh..    DCD    3901777992
        0x08009c84:    49200ff8    .. I    DCD    1226838008
        0x08009c88:    f100600b    .`..    DCD    4043333643
        0x08009c8c:    f3800024    $...    DCD    4085252132
        0x08009c90:    f04e8809    ..N.    DCD    4031678473
        0x08009c94:    f4130e04    ....    DCD    4094889476
        0x08009c98:    d0264f7f    .O&.    DCD    3492171647
        0x08009c9c:    481b4770    pG.H    DCD    1209747312
        0x08009ca0:    7180f04f    O..q    DCD    1904275535
        0x08009ca4:    491a61c1    .a.I    DCD    1226465729
        0x08009ca8:    f3806181    .a..    DCD    4085277057
        0x08009cac:    f04e8809    ..N.    DCD    4031678473
        0x08009cb0:    47700e04    ..pG    DCD    1198525956
        0x08009cb4:    f819f000    ....    DCD    4162449408
        0x08009cb8:    bd004620     F..    DCD    3170911776
        0x08009cbc:    f815f000    ....    DCD    4162187264
        0x08009cc0:    f80af000    ....    DCD    4161466368
        0x08009cc4:    e007e7fe    ....    DCD    3758614526
        0x08009cc8:    f000b500    ....    DCD    4026578176
        0x08009ccc:    f000f805    ....    DCD    4026595333
        0x08009cd0:    f85df80c    ..].    DCD    4166907916
        0x08009cd4:    e00eeb04    ....    DCD    3759074052
        0x08009cd8:    490f480e    .H.I    DCD    1225738254
        0x08009cdc:    47706001    .`pG    DCD    1198546945
        0x08009ce0:    490f480e    .H.I    DCD    1225738254
        0x08009ce4:    47706001    .`pG    DCD    1198546945
        0x08009ce8:    f04fbf00    ..O.    DCD    4031758080
        0x08009cec:    f3800000    ....    DCD    4085252096
        0x08009cf0:    47708811    ..pG    DCD    1198557201
        0x08009cf4:    f04fbf00    ..O.    DCD    4031758080
        0x08009cf8:    f3800080    ....    DCD    4085252224
        0x08009cfc:    47708811    ..pG    DCD    1198557201
        0x08009d00:    0000bf00    ....    DCD    48896
        0x08009d04:    20000180    ...     DCD    536871296
        0x08009d08:    20000178    x..     DCD    536871288
        0x08009d0c:    200013c0    ...     DCD    536875968
        0x08009d10:    08007729    )w..    DCD    134248233
        0x08009d14:    e000ed04    ....    DCD    3758157060
        0x08009d18:    10000000    ....    DCD    268435456
        0x08009d1c:    e000ed20     ...    DCD    3758157088
        0x08009d20:    ffff0000    ....    DCD    4294901760
        0x08009d24:    4c13b530    0..L    DCD    1276359984
        0x08009d28:    78204d13    .M x    DCD    2015382803
        0x08009d2c:    70201c40    @. p    DCD    1881152576
        0x08009d30:    ffdbf7ff    ....    DCD    4292605951
        0x08009d34:    ffa8f7fe    ....    DCD    4289263614
        0x08009d38:    fe18f7fd    ....    DCD    4263049213
        0x08009d3c:    6801481d    .H.h    DCD    1744914461
        0x08009d40:    60011c49    I..`    DCD    1610685513
        0x08009d44:    6800480d    .H.h    DCD    1744848909
        0x08009d48:    d4031a08    ....    DCD    3556973064
        0x08009d4c:    f0507828    (xP.    DCD    4031805480
        0x08009d50:    70280001    ..(p    DCD    1881669633
        0x08009d54:    ffcff7ff    ....    DCD    4291819519
        0x08009d58:    28017820     x.(    DCD    671184928
        0x08009d5c:    7828d103    ..(x    DCD    2015940867
        0x08009d60:    f7ffb108    ....    DCD    4160729352
        0x08009d64:    7820ffb0    .. x    DCD    2015428528
        0x08009d68:    70201e40    @. p    DCD    1881153088
        0x08009d6c:    4030e8bd    ..0@    DCD    1076947133
        0x08009d70:    bfbbf7ff    ....    DCD    3216766975
        0x08009d74:    20000178    x..     DCD    536871288
        0x08009d78:    20000fe7    ...     DCD    536874983
        0x08009d7c:    2000001c    ...     DCD    536870940
        0x08009d80:    f7ffb500    ....    DCD    4160730368
        0x08009d84:    4808ffb8    ...H    DCD    1208549304
        0x08009d88:    60014908    .I.`    DCD    1610696968
        0x08009d8c:    21054824    $H.!    DCD    553994276
        0x08009d90:    21ff6001    .`.!    DCD    570384385
        0x08009d94:    f000200f    . ..    DCD    4026540047
        0x08009d98:    200ff845    E..     DCD    537917509
        0x08009d9c:    f80cf000    ....    DCD    4161597440
        0x08009da0:    eb04f85d    ]...    DCD    3942971485
        0x08009da4:    bc24f7ff    ..$.    DCD    3156539391
        0x08009da8:    e000e014    ....    DCD    3758153748
        0x08009dac:    0001193f    ?...    DCD    71999
        0x08009db0:    0000e7fe    ....    DCD    59390
        0x08009db4:    20000174    t..     DCD    536871284
        0x08009db8:    0004b510    ....    DCD    308496
        0x08009dbc:    ff9bf7ff    ....    DCD    4288411647
        0x08009dc0:    da252c3b    ;,%.    DCD    3659869243
        0x08009dc4:    db092c10    .,..    DCD    3674811408
        0x08009dc8:    3c104913    .I.<    DCD    1007700243
        0x08009dcc:    22011160    `.."    DCD    570495328
        0x08009dd0:    0edb06e3    ....    DCD    249235171
        0x08009dd4:    f841409a    .@A.    DCD    4165025946
        0x08009dd8:    e0192020      ..    DCD    3759743008
        0x08009ddc:    2c04480f    .H.,    DCD    738478095
        0x08009de0:    6801d103    ...h    DCD    1744949507
        0x08009de4:    3180f451    Q..1    DCD    830534737
        0x08009de8:    2c05e011    ...,    DCD    738582545
        0x08009dec:    6801d103    ...h    DCD    1744949507
        0x08009df0:    3100f451    Q..1    DCD    822146129
        0x08009df4:    2c06e00b    ...,    DCD    738648075
        0x08009df8:    6801d103    ...h    DCD    1744949507
        0x08009dfc:    2180f451    Q..!    DCD    562099281
        0x08009e00:    2c0fe005    ...,    DCD    739237893
        0x08009e04:    4806d104    ...H    DCD    1208406276
        0x08009e08:    f0516801    .hQ.    DCD    4031866881
        0x08009e0c:    60010102    ...`    DCD    1610678530
        0x08009e10:    4010e8bd    ...@    DCD    1074849981
        0x08009e14:    bbecf7ff    ....    DCD    3152869375
        0x08009e18:    e000e100    ....    DCD    3758153984
        0x08009e1c:    e000ed24    $...    DCD    3758157092
        0x08009e20:    e000e010    ....    DCD    3758153744
        0x08009e24:    0004b570    p...    DCD    308592
        0x08009e28:    2600000d    ...&    DCD    637534221
        0x08009e2c:    da222c3b    ;,".    DCD    3659672635
        0x08009e30:    db042c10    .,..    DCD    3674483728
        0x08009e34:    ff5ff7ff    .._.    DCD    4284479487
        0x08009e38:    18204810    .H .    DCD    404768784
        0x08009e3c:    2001e017    ...     DCD    536993815
        0x08009e40:    da042c04    .,..    DCD    3657706500
        0x08009e44:    23002201    .".#    DCD    587211265
        0x08009e48:    d1062c0d    .,..    DCD    3506842637
        0x08009e4c:    2200e006    ..."    DCD    570482694
        0x08009e50:    dbf82c07    .,..    DCD    3690474503
        0x08009e54:    daf62c0b    .,..    DCD    3673566219
        0x08009e58:    20002301    .#.     DCD    536879873
        0x08009e5c:    43184313    .C.C    DCD    1125663507
        0x08009e60:    d1080600    ....    DCD    3506963968
        0x08009e64:    ff47f7ff    ..G.    DCD    4282906623
        0x08009e68:    1f244805    .H$.    DCD    522471429
        0x08009e6c:    78061900    ...x    DCD    2013665536
        0x08009e70:    f7ff7005    .p..    DCD    4160712709
        0x08009e74:    0030fbbd    ..0.    DCD    3210173
        0x08009e78:    bf00bd70    p...    DCD    3204496752
        0x08009e7c:    e000e3f0    ....    DCD    3758154736
        0x08009e80:    e000ed18    ....    DCD    3758157080
        0x08009e84:    b5304939    9I0.    DCD    3039840569
        0x08009e88:    20004c39    9L.     DCD    536890425
        0x08009e8c:    0b04f841    A...    DCD    184875073
        0x08009e90:    f8412214    ."A.    DCD    4165018132
        0x08009e94:    f47f0b04    ....    DCD    4101966596
        0x08009e98:    f84105fe    ..A.    DCD    4165010942
        0x08009e9c:    f8412b04    .+A.    DCD    4165020420
        0x08009ea0:    f8410b04    ..A.    DCD    4165012228
        0x08009ea4:    680a091c    ...h    DCD    1745488156
        0x08009ea8:    0201f052    R...    DCD    33681490
        0x08009eac:    4a31600a    .`1J    DCD    1244749834
        0x08009eb0:    401c6813    .h.@    DCD    1075603475
        0x08009eb4:    680b6014    .`.h    DCD    1745575956
        0x08009eb8:    401c4c2f    /L.@    DCD    1075596335
        0x08009ebc:    680c600c    .`.h    DCD    1745641484
        0x08009ec0:    2380f47f    ...#    DCD    595653759
        0x08009ec4:    600c401c    .@.`    DCD    1611415580
        0x08009ec8:    40256814    .h%@    DCD    1076193300
        0x08009ecc:    60154c2b    +L.`    DCD    1612008491
        0x08009ed0:    3580f47f    ...5    DCD    897643647
        0x08009ed4:    680c6020     `.h    DCD    1745641504
        0x08009ed8:    600d4025    %@.`    DCD    1611481125
        0x08009edc:    4023680c    .h#@    DCD    1076062220
        0x08009ee0:    680b600b    .`.h    DCD    1745575947
        0x08009ee4:    3380f453    S..3    DCD    864089171
        0x08009ee8:    680b600b    .`.h    DCD    1745575947
        0x08009eec:    d5fc039b    ....    DCD    3590063003
        0x08009ef0:    25104b23    #K.%    DCD    621824803
        0x08009ef4:    f014681c    .h..    DCD    4027869212
        0x08009ef8:    601c0438    8..`    DCD    1612448824
        0x08009efc:    f054681c    .hT.    DCD    4032063516
        0x08009f00:    601c0402    ...`    DCD    1612448770
        0x08009f04:    43ac681c    .h.C    DCD    1135372316
        0x08009f08:    681c601c    .`.h    DCD    1746690076
        0x08009f0c:    0410f054    T...    DCD    68218964
        0x08009f10:    6813601c    .`.h    DCD    1746100252
        0x08009f14:    43a324f0    .$.C    DCD    1134765296
        0x08009f18:    68136013    .`.h    DCD    1746100243
        0x08009f1c:    5460f47f    ..`T    DCD    1415640191
        0x08009f20:    68136013    .`.h    DCD    1746100243
        0x08009f24:    6014401c    .@.`    DCD    1611939868
        0x08009f28:    68106010    .`.h    DCD    1745903632
        0x08009f2c:    63e0f47f    ...c    DCD    1675687039
        0x08009f30:    60134003    .@.`    DCD    1611874307
        0x08009f34:    60100d08    ...`    DCD    1611664648
        0x08009f38:    f47f6810    .h..    DCD    4101990416
        0x08009f3c:    4003137c    |..@    DCD    1073943420
        0x08009f40:    10e8f453    S...    DCD    283702355
        0x08009f44:    480f6010    .`.H    DCD    1208967184
        0x08009f48:    60032301    .#.`    DCD    1610818305
        0x08009f4c:    01806808    .h..    DCD    25192456
        0x08009f50:    6810d5fc    ...h    DCD    1745933820
        0x08009f54:    43882103    .!.C    DCD    1132994819
        0x08009f58:    0002f050    P...    DCD    192592
        0x08009f5c:    68106010    .`.h    DCD    1745903632
        0x08009f60:    000cf010    ....    DCD    847888
        0x08009f64:    d1fa2808    .(..    DCD    3522832392
        0x08009f68:    bd302001    . 0.    DCD    3174047745
        0x08009f6c:    4002100c    ...@    DCD    1073877004
        0x08009f70:    f8ff0000    ....    DCD    4177461248
        0x08009f74:    40021004    ...@    DCD    1073876996
        0x08009f78:    fef6ffff    ....    DCD    4277600255
        0x08009f7c:    40021008    ...@    DCD    1073877000
        0x08009f80:    40022000    . .@    DCD    1073881088
        0x08009f84:    42420060    `.BB    DCD    1111621728
        0x08009f88:    00014a04    .J..    DCD    84484
        0x08009f8c:    00187813    .x..    DCD    1603603
        0x08009f90:    d002428b    .B..    DCD    3489809035
        0x08009f94:    0101f093    ....    DCD    16904339
        0x08009f98:    47707011    .ppG    DCD    1198551057
        0x08009f9c:    20000feb    ...     DCD    536874987
        0x08009fa0:    e7f12000    . ..    DCD    3891339264
        0x08009fa4:    49034802    .H.I    DCD    1224951810
        0x08009fa8:    20016001    .`.     DCD    536961025
        0x08009fac:    bf00e7ec    ....    DCD    3204507628
        0x08009fb0:    e000ed08    ....    DCD    3758157064
        0x08009fb4:    08004000    .@..    DCD    134234112
        0x08009fb8:    00004770    pG..    DCD    18288
        0x08009fbc:    00004770    pG..    DCD    18288
        0x08009fc0:    00004770    pG..    DCD    18288
        0x08009fc4:    00004770    pG..    DCD    18288
        0x08009fc8:    00004770    pG..    DCD    18288
        0x08009fcc:    00004770    pG..    DCD    18288
        0x08009fd0:    00004770    pG..    DCD    18288
        0x08009fd4:    00004770    pG..    DCD    18288
        0x08009fd8:    00004770    pG..    DCD    18288
        0x08009fdc:    00004770    pG..    DCD    18288
        0x08009fe0:    00004770    pG..    DCD    18288
        0x08009fe4:    00004770    pG..    DCD    18288
        0x08009fe8:    00004770    pG..    DCD    18288
        0x08009fec:    00004770    pG..    DCD    18288
        0x08009ff0:    00004770    pG..    DCD    18288
        0x08009ff4:    00004770    pG..    DCD    18288
        0x08009ff8:    00004770    pG..    DCD    18288
        0x08009ffc:    00004770    pG..    DCD    18288
        0x0800a000:    00004770    pG..    DCD    18288
        0x0800a004:    00004770    pG..    DCD    18288
        0x0800a008:    00004770    pG..    DCD    18288
        0x0800a00c:    00004770    pG..    DCD    18288
        0x0800a010:    00004770    pG..    DCD    18288
        0x0800a014:    00004770    pG..    DCD    18288
        0x0800a018:    00004770    pG..    DCD    18288
        0x0800a01c:    00004770    pG..    DCD    18288
        0x0800a020:    00004770    pG..    DCD    18288
        0x0800a024:    00004770    pG..    DCD    18288
        0x0800a028:    00004770    pG..    DCD    18288
        0x0800a02c:    00004770    pG..    DCD    18288
        0x0800a030:    00004770    pG..    DCD    18288
        0x0800a034:    00004770    pG..    DCD    18288
        0x0800a038:    00004770    pG..    DCD    18288
        0x0800a03c:    00004770    pG..    DCD    18288
        0x0800a040:    00004770    pG..    DCD    18288
        0x0800a044:    00004770    pG..    DCD    18288
        0x0800a048:    00004770    pG..    DCD    18288
        0x0800a04c:    00004770    pG..    DCD    18288
        0x0800a050:    00004770    pG..    DCD    18288
        0x0800a054:    00004770    pG..    DCD    18288
        0x0800a058:    00004770    pG..    DCD    18288
        0x0800a05c:    00004770    pG..    DCD    18288
        0x0800a060:    00004770    pG..    DCD    18288
        0x0800a064:    00004770    pG..    DCD    18288
        0x0800a068:    00004770    pG..    DCD    18288
        0x0800a06c:    00004770    pG..    DCD    18288
        0x0800a070:    00004770    pG..    DCD    18288
        0x0800a074:    4c6cb510    ..lL    DCD    1282192656
        0x0800a078:    b1306820     h0.    DCD    2972739616
        0x0800a07c:    ff48f7fe    ..H.    DCD    4282972158
        0x0800a080:    f7fe6820     h..    DCD    4160645152
        0x0800a084:    2000fffb    ...     DCD    536936443
        0x0800a088:    20006020     `.     DCD    536895520
        0x0800a08c:    0000bd10    ....    DCD    48400
        0x0800a090:    0004b570    p...    DCD    308592
        0x0800a094:    4d0bd015    ...M    DCD    1292619797
        0x0800a098:    68a80021    !..h    DCD    1755840545
        0x0800a09c:    f87cf7ff    ..|.    DCD    4168939519
        0x0800a0a0:    f8d2f7ff    ....    DCD    4174575615
        0x0800a0a4:    d0fb1a26    &...    DCD    3506117158
        0x0800a0a8:    686968a8    .hih    DCD    1751738536
        0x0800a0ac:    60a81980    ...`    DCD    1621629312
        0x0800a0b0:    bf244288    .B$.    DCD    3206824584
        0x0800a0b4:    60a86828    (h.`    DCD    1621649448
        0x0800a0b8:    f7fe68a8    .h..    DCD    4160645288
        0x0800a0bc:    1ba4ff33    3...    DCD    463798067
        0x0800a0c0:    bd70d1ee    ..p.    DCD    3178287598
        0x0800a0c4:    20000020     ..     DCD    536870944
        0x0800a0c8:    4d57b5f0    ..WM    DCD    1297593840
        0x0800a0cc:    0004b085    ....    DCD    307333
        0x0800a0d0:    26006828    (h.&    DCD    637560872
        0x0800a0d4:    9602b930    0...    DCD    2516760880
        0x0800a0d8:    21089603    ...!    DCD    554210819
        0x0800a0dc:    f7ffa802    ....    DCD    4160727042
        0x0800a0e0:    e02cf839    9.,.    DCD    3761043513
        0x0800a0e4:    a801a904    ....    DCD    2818681092
        0x0800a0e8:    ff1af7fe    ....    DCD    4279957502
        0x0800a0ec:    980168a9    .h..    DCD    2550229161
        0x0800a0f0:    d1041a47    G...    DCD    3506707015
        0x0800a0f4:    b9289804    ..(.    DCD    3106445316
        0x0800a0f8:    260168ef    .h.&    DCD    637626607
        0x0800a0fc:    bf44e002    ..D.    DCD    3208962050
        0x0800a100:    183f68e8    .h?.    DCD    406808808
        0x0800a104:    bfb842a7    .B..    DCD    3216523943
        0x0800a108:    9602463c    <F..    DCD    2516731452
        0x0800a10c:    21089403    ...!    DCD    554210307
        0x0800a110:    f7ffa802    ....    DCD    4160727042
        0x0800a114:    b164f81f    ..d.    DCD    2976184351
        0x0800a118:    990168a8    .h..    DCD    2567006376
        0x0800a11c:    d3094288    .B..    DCD    3540599432
        0x0800a120:    1a0f6869    ih..    DCD    437217385
        0x0800a124:    bfa842a7    .B..    DCD    3215475367
        0x0800a128:    00384627    'F8.    DCD    3687975
        0x0800a12c:    ffb0f7ff    ....    DCD    4289787903
        0x0800a130:    b1141be4    ....    DCD    2970885092
        0x0800a134:    f7ff0020     ...    DCD    4160684064
        0x0800a138:    f7ffffab    ....    DCD    4160749483
        0x0800a13c:    b005f847    G...    DCD    2953181255
        0x0800a140:    0000bdf0    ....    DCD    48624
        0x0800a144:    e005b531    1...    DCD    3758470449
        0x0800a148:    1000f89d    ....    DCD    268499101
        0x0800a14c:    00203414    .4 .    DCD    2110484
        0x0800a150:    fa08f7ff    ....    DCD    4194891775
        0x0800a154:    4c342101    .!4L    DCD    1278484737
        0x0800a158:    f7ff4668    hF..    DCD    4160702056
        0x0800a15c:    f89dfa03    ....    DCD    4171102723
        0x0800a160:    bb500000    ..P.    DCD    3142582272
        0x0800a164:    f7fe6960    `i..    DCD    4160645472
        0x0800a168:    0005fedf    ....    DCD    392927
        0x0800a16c:    68286869    ih(h    DCD    1747478633
        0x0800a170:    fd38f001    ..8.    DCD    4248367105
        0x0800a174:    428869a1    .i.B    DCD    1116236193
        0x0800a178:    61a0bf38    8..a    DCD    1637924664
        0x0800a17c:    682868a9    .h(h    DCD    1747478697
        0x0800a180:    fd30f001    ..0.    DCD    4247842817
        0x0800a184:    428169a1    .i.B    DCD    1115777441
        0x0800a188:    61a0bf38    8..a    DCD    1637924664
        0x0800a18c:    25006820     h.%    DCD    620783648
        0x0800a190:    68e1b130    0..h    DCD    1759621424
        0x0800a194:    42916922    "i.B    DCD    1116825890
        0x0800a198:    f7fed035    5...    DCD    4160671797
        0x0800a19c:    6025ff6f    o.%`    DCD    1613102959
        0x0800a1a0:    bb306920     i0.    DCD    3140512032
        0x0800a1a4:    ff3af7fe    ..:.    DCD    4282054654
        0x0800a1a8:    1840491e    .I@.    DCD    406866206
        0x0800a1ac:    f5b14001    .@..    DCD    4122034177
        0x0800a1b0:    da1d7f00    ....    DCD    3659366144
        0x0800a1b4:    35fff05f    _..5    DCD    905965663
        0x0800a1b8:    2101e02f    /..!    DCD    553771055
        0x0800a1bc:    1c40a800    ..@.    DCD    473999360
        0x0800a1c0:    f9d0f7ff    ....    DCD    4191221759
        0x0800a1c4:    0001f89d    ....    DCD    129181
        0x0800a1c8:    d0bd2801    .(..    DCD    3502057473
        0x0800a1cc:    d0022802    .(..    DCD    3489802242
        0x0800a1d0:    d0042804    .(..    DCD    3489933316
        0x0800a1d4:    f89de007    ....    DCD    4171096071
        0x0800a1d8:    34181000    ...4    DCD    873992192
        0x0800a1dc:    f89de7b7    ....    DCD    4171098039
        0x0800a1e0:    34101000    ...4    DCD    873467904
        0x0800a1e4:    f89de7b3    ....    DCD    4171098035
        0x0800a1e8:    f7fe0000    ....    DCD    4160618496
        0x0800a1ec:    e7b1fffb    ....    DCD    3887202299
        0x0800a1f0:    69206121    !a i    DCD    1763729697
        0x0800a1f4:    ff20f7fe    .. .    DCD    4280350718
        0x0800a1f8:    69206020     ` i    DCD    1763729440
        0x0800a1fc:    60e06821    !h.`    DCD    1625319457
        0x0800a200:    60601808    ..``    DCD    1616910344
        0x0800a204:    f7feb149    I...    DCD    4160663881
        0x0800a208:    6923fe83    ..#i    DCD    1763966595
        0x0800a20c:    69a16822    "h.i    DCD    1772185634
        0x0800a210:    f7fe6960    `i..    DCD    4160645472
        0x0800a214:    6820fe37    7. h    DCD    1746992695
        0x0800a218:    002860a0    .`(.    DCD    2646176
        0x0800a21c:    ffcaf7fe    ....    DCD    4291491838
        0x0800a220:    bf00bd31    1...    DCD    3204496689
        0x0800a224:    fffffe00    ....    DCD    4294966784
        0x0800a228:    20000020     ..     DCD    536870944
        0x0800a22c:    2101b503    ...!    DCD    553760003
        0x0800a230:    1c80a800    ....    DCD    478193664
        0x0800a234:    f996f7ff    ....    DCD    4187420671
        0x0800a238:    1002f89d    ....    DCD    268630173
        0x0800a23c:    29662000    . f)    DCD    694558720
        0x0800a240:    9001d11f    ....    DCD    2416038175
        0x0800a244:    f89de004    ....    DCD    4171096068
        0x0800a248:    a8011000    ....    DCD    2818641920
        0x0800a24c:    f98af7ff    ....    DCD    4186634239
        0x0800a250:    46682101    .!hF    DCD    1181229313
        0x0800a254:    f986f7ff    ....    DCD    4186372095
        0x0800a258:    0000f89d    ....    DCD    63645
        0x0800a25c:    9801b918    ....    DCD    2550249752
        0x0800a260:    ff32f7ff    ..2.    DCD    4281530367
        0x0800a264:    2101bd03    ...!    DCD    553762051
        0x0800a268:    1c40a800    ..@.    DCD    473999360
        0x0800a26c:    f97af7ff    ..z.    DCD    4185585663
        0x0800a270:    0001f89d    ....    DCD    129181
        0x0800a274:    d0e62803    .(..    DCD    3504744451
        0x0800a278:    0000f89d    ....    DCD    63645
        0x0800a27c:    ffb2f7fe    ....    DCD    4289918974
        0x0800a280:    2964e7e6    ..d)    DCD    694478822
        0x0800a284:    2965d004    ..e)    DCD    694538244
        0x0800a288:    296ed00e    ..n)    DCD    695128078
        0x0800a28c:    bd03d017    ....    DCD    3171143703
        0x0800a290:    ff58f7ff    ..X.    DCD    4284020735
        0x0800a294:    2101bd03    ...!    DCD    553762051
        0x0800a298:    1c40a800    ..@.    DCD    473999360
        0x0800a29c:    f962f7ff    ..b.    DCD    4184012799
        0x0800a2a0:    0000f89d    ....    DCD    63645
        0x0800a2a4:    ff9ef7fe    ....    DCD    4288608254
        0x0800a2a8:    46682101    .!hF    DCD    1181229313
        0x0800a2ac:    f95af7ff    ..Z.    DCD    4183488511
        0x0800a2b0:    0000f89d    ....    DCD    63645
        0x0800a2b4:    d1ee2800    .(..    DCD    3522045952
        0x0800a2b8:    fedcf7ff    ....    DCD    4275894271
        0x0800a2bc:    9001e011    ....    DCD    2416042001
        0x0800a2c0:    f89de004    ....    DCD    4171096068
        0x0800a2c4:    a8011000    ....    DCD    2818641920
        0x0800a2c8:    f94cf7ff    ..L.    DCD    4182571007
        0x0800a2cc:    46682101    .!hF    DCD    1181229313
        0x0800a2d0:    f948f7ff    ..H.    DCD    4182308863
        0x0800a2d4:    0000f89d    ....    DCD    63645
        0x0800a2d8:    9801b930    0...    DCD    2550249776
        0x0800a2dc:    f05fb190    .._.    DCD    4032803216
        0x0800a2e0:    f7fe30ff    .0..    DCD    4160631039
        0x0800a2e4:    bd03ff67    g...    DCD    3171155815
        0x0800a2e8:    a8002101    .!..    DCD    2818580737
        0x0800a2ec:    f7ff1c40    @...    DCD    4160691264
        0x0800a2f0:    f89df939    9...    DCD    4171102521
        0x0800a2f4:    28010001    ...(    DCD    671154177
        0x0800a2f8:    f89dd0e3    ....    DCD    4171092195
        0x0800a2fc:    f7fe0000    ....    DCD    4160618496
        0x0800a300:    e7e3ff71    q...    DCD    3890478961
        0x0800a304:    f7fe201c    . ..    DCD    4160626716
        0x0800a308:    9801ff5d    ]...    DCD    2550267741
        0x0800a30c:    ff5af7fe    ..Z.    DCD    4284151806
        0x0800a310:    f7fe9801    ....    DCD    4160657409
        0x0800a314:    2114fe09    ...!    DCD    555023881
        0x0800a318:    ff1cf7fe    ....    DCD    4280088574
        0x0800a31c:    0000bd03    ....    DCD    48387
        0x0800a320:    0000e6a8    ....    DCD    59048
        0x0800a324:    0002b510    ....    DCD    177424
        0x0800a328:    23002000    . .#    DCD    587210752
        0x0800a32c:    7480f45f    _..t    DCD    1954608223
        0x0800a330:    d0111b12    ....    DCD    3490781970
        0x0800a334:    d0111e52    R...    DCD    3490782802
        0x0800a338:    1b124c0a    .L..    DCD    454183946
        0x0800a33c:    1e52d00c    ..R.    DCD    508743692
        0x0800a340:    4c09d00c    ...L    DCD    1275711500
        0x0800a344:    d0071b12    ....    DCD    3490126610
        0x0800a348:    d0071e52    R...    DCD    3490127442
        0x0800a34c:    1b124c07    .L..    DCD    454183943
        0x0800a350:    1e52d002    ..R.    DCD    508743682
        0x0800a354:    e002d002    ....    DCD    3758280706
        0x0800a358:    e0002301    .#..    DCD    3758105345
        0x0800a35c:    b1014804    .H..    DCD    2969651204
        0x0800a360:    bd10600b    .`..    DCD    3171966987
        0x0800a364:    000001ff    ....    DCD    511
        0x0800a368:    000002ff    ....    DCD    767
        0x0800a36c:    000007ff    ....    DCD    2047
        0x0800a370:    080098b4    ....    DCD    134256820
        0x0800a374:    0004b570    p...    DCD    308592
        0x0800a378:    fe50f7fe    ..P.    DCD    4266719230
        0x0800a37c:    f5b50005    ....    DCD    4122279941
        0x0800a380:    da025f80    ._..    DCD    3657588608
        0x0800a384:    fe4af7fe    ..J.    DCD    4266326014
        0x0800a388:    b1a50005    ....    DCD    2980380677
        0x0800a38c:    f7fe0028    (...    DCD    4160618536
        0x0800a390:    6963fe53    S.ci    DCD    1768160851
        0x0800a394:    002a0006    ..*.    DCD    2752518
        0x0800a398:    00316adb    .j1.    DCD    3238619
        0x0800a39c:    47980020     ..G    DCD    1201143840
        0x0800a3a0:    d4052800    .(..    DCD    3557107712
        0x0800a3a4:    00301a29    ).0.    DCD    3152425
        0x0800a3a8:    fe70f7fe    ..p.    DCD    4268816382
        0x0800a3ac:    bd706126    &ap.    DCD    3178258726
        0x0800a3b0:    f7fe0030    0...    DCD    4160618544
        0x0800a3b4:    bd70fe63    c.p.    DCD    3178298979
        0x0800a3b8:    21284a16    .J(!    DCD    556288534
        0x0800a3bc:    fb00b500    ....    DCD    4211127552
        0x0800a3c0:    69012001    . .i    DCD    1761681409
        0x0800a3c4:    3010b111    ...0    DCD    806400273
        0x0800a3c8:    fe6af7fe    ..j.    DCD    4268423166
        0x0800a3cc:    0000bd00    ....    DCD    48384
        0x0800a3d0:    000cb570    p...    DCD    832880
        0x0800a3d4:    da1b2804    .(..    DCD    3659212804
        0x0800a3d8:    0e096821    !h..    DCD    235497505
        0x0800a3dc:    bf0829ff    .)..    DCD    3204983295
        0x0800a3e0:    79222100    .!"y    DCD    2032279808
        0x0800a3e4:    2501ea52    R..%    DCD    620882514
        0x0800a3e8:    21284a0a    .J(!    DCD    556288522
        0x0800a3ec:    fb00b2ad    ....    DCD    4211126957
        0x0800a3f0:    f7ff2601    .&..    DCD    4160693761
        0x0800a3f4:    2100ffe1    ...!    DCD    553713633
        0x0800a3f8:    f7ff0028    (...    DCD    4160684072
        0x0800a3fc:    6160ff93    ..`a    DCD    1633746835
        0x0800a400:    00212228    ("!.    DCD    2171432
        0x0800a404:    f0010030    0...    DCD    4026597424
        0x0800a408:    0030fc3f    ?.0.    DCD    3210303
        0x0800a40c:    ffb2f7ff    ....    DCD    4289918975
        0x0800a410:    0000bd70    p...    DCD    48496
        0x0800a414:    200005a4    ...     DCD    536872356
        0x0800a418:    2308b501    ...#    DCD    587773185
        0x0800a41c:    f88d20ff    . ..    DCD    4169998591
        0x0800a420:    20000001    ...     DCD    536870913
        0x0800a424:    0002f88d    ....    DCD    194701
        0x0800a428:    a900466a    jF..    DCD    2835367530
        0x0800a42c:    a8001c49    I...    DCD    2818579529
        0x0800a430:    f7fe1c80    ....    DCD    4160625792
        0x0800a434:    bd01fcc9    ....    DCD    3171024073
        0x0800a438:    4908b503    ...I    DCD    1225307395
        0x0800a43c:    e0054800    .H..    DCD    3758442496
        0x0800a440:    08009b00    ....    DCD    134257408
        0x0800a444:    4905b503    ...I    DCD    1225110787
        0x0800a448:    bf004803    .H..    DCD    3204466691
        0x0800a44c:    466a2330    0#jF    DCD    1181360944
        0x0800a450:    fcbaf7fe    ....    DCD    4240111614
        0x0800a454:    bf00bd03    ....    DCD    3204496643
        0x0800a458:    08009b08    ....    DCD    134257416
        0x0800a45c:    2000004c    L..     DCD    536870988
        0x0800a460:    48064905    .I.H    DCD    1208371461
        0x0800a464:    b08ab500    ....    DCD    2961880320
        0x0800a468:    7384f45f    _..s    DCD    1938093151
        0x0800a46c:    f7fe466a    jF..    DCD    4160636522
        0x0800a470:    b00afcab    ....    DCD    2953510059
        0x0800a474:    bf00bd00    ....    DCD    3204496640
        0x0800a478:    08009b34    4...    DCD    134257460
        0x0800a47c:    08009b10    ....    DCD    134257424
        0x0800a480:    41ffe92d    -..A    DCD    1107290413
        0x0800a484:    4e224c49    IL"N    DCD    1310870601
        0x0800a488:    46809100    ...F    DCD    1182830848
        0x0800a48c:    4011ea91    ...@    DCD    1074915985
        0x0800a490:    ea902700    .'..    DCD    3935315712
        0x0800a494:    ea902010    . ..    DCD    3935313936
        0x0800a498:    ea901010    ....    DCD    3935309840
        0x0800a49c:    00010090    ....    DCD    65680
        0x0800a4a0:    40480840    @.H@    DCD    1078462528
        0x0800a4a4:    40012101    .!.@    DCD    1073815809
        0x0800a4a8:    1004f88d    ....    DCD    268761229
        0x0800a4ac:    35646825    %hd5    DCD    895772709
        0x0800a4b0:    f7ffe002    ....    DCD    4160741378
        0x0800a4b4:    1c7fffd5    ....    DCD    478150613
        0x0800a4b8:    230d4816    .H.#    DCD    588072982
        0x0800a4bc:    46b4aa02    ...F    DCD    1186245122
        0x0800a4c0:    18404641    AF@.    DCD    406865473
        0x0800a4c4:    f7fe4661    aF..    DCD    4160636513
        0x0800a4c8:    f89dfc7f    ....    DCD    4171103359
        0x0800a4cc:    07400009    ..@.    DCD    121634825
        0x0800a4d0:    28010f40    @..(    DCD    671158080
        0x0800a4d4:    2328d107    ..(#    DCD    589877511
        0x0800a4d8:    1cb1aa02    ....    DCD    481405442
        0x0800a4dc:    f7fe4668    hF..    DCD    4160636520
        0x0800a4e0:    2000fc73    s..     DCD    536935539
        0x0800a4e4:    2802e010    ...(    DCD    671277072
        0x0800a4e8:    2804d009    ...(    DCD    671404041
        0x0800a4ec:    f7ffd102    ....    DCD    4160737538
        0x0800a4f0:    e001ffa3    ....    DCD    3758227363
        0x0800a4f4:    dbdc2f02    ./..    DCD    3688640258
        0x0800a4f8:    30fff05f    _..0    DCD    822079583
        0x0800a4fc:    6820e004    .. h    DCD    1746984964
        0x0800a500:    d5d91a28    (...    DCD    3587775016
        0x0800a504:    0001f07f    ....    DCD    127103
        0x0800a508:    e8bdb004    ....    DCD    3904745476
        0x0800a50c:    000081f0    ....    DCD    33264
        0x0800a510:    20000044    D..     DCD    536870980
        0x0800a514:    2000005c    \..     DCD    536871004
        0x0800a518:    47f7e92d    -..G    DCD    1207429421
        0x0800a51c:    20004680    .F.     DCD    536888960
        0x0800a520:    0008f88d    ....    DCD    587917
        0x0800a524:    000c4821    !H..    DCD    804897
        0x0800a528:    46812600    .&.F    DCD    1182868992
        0x0800a52c:    f8d9481d    .H..    DCD    4174989341
        0x0800a530:    46825000    .P.F    DCD    1182945280
        0x0800a534:    e0023564    d5..    DCD    3758241124
        0x0800a538:    ff92f7ff    ....    DCD    4287821823
        0x0800a53c:    4f1a1c76    v..O    DCD    1327111286
        0x0800a540:    466a230d    .#jF    DCD    1181360909
        0x0800a544:    46404651    QF@F    DCD    1178617425
        0x0800a548:    f7fe1838    8...    DCD    4160624696
        0x0800a54c:    f89dfc3d    =...    DCD    4171103293
        0x0800a550:    07470001    ..G.    DCD    122093569
        0x0800a554:    2f010f7f    .../    DCD    788598655
        0x0800a558:    06c0d110    ....    DCD    113299728
        0x0800a55c:    23210f87    ..!#    DCD    589369223
        0x0800a560:    4651466a    jFQF    DCD    1179731562
        0x0800a564:    a8011c89    ....    DCD    2818645129
        0x0800a568:    fc2ef7fe    ....    DCD    4230936574
        0x0800a56c:    9800b11c    ....    DCD    2550182172
        0x0800a570:    0080ea57    W...    DCD    8448599
        0x0800a574:    20006020     `.     DCD    536895520
        0x0800a578:    87fee8bd    ....    DCD    2281629885
        0x0800a57c:    d0092f02    ./..    DCD    3490262786
        0x0800a580:    d1022f04    ./..    DCD    3506581252
        0x0800a584:    ff58f7ff    ..X.    DCD    4284020735
        0x0800a588:    2e02e001    ....    DCD    771940353
        0x0800a58c:    f05fdbd4    .._.    DCD    4032814036
        0x0800a590:    e7f130ff    .0..    DCD    3891343615
        0x0800a594:    0000f8d9    ....    DCD    63705
        0x0800a598:    d5d01a28    (...    DCD    3587185192
        0x0800a59c:    0001f07f    ....    DCD    127103
        0x0800a5a0:    bf00e7ea    ....    DCD    3204507626
        0x0800a5a4:    2000003c    <..     DCD    536870972
        0x0800a5a8:    20000054    T..     DCD    536870996
        0x0800a5ac:    20000174    t..     DCD    536871284
        0x0800a5b0:    20072100    .!.     DCD    537338112
        0x0800a5b4:    0000e7b0    ....    DCD    59312
        0x0800a5b8:    0001000a    ....    DCD    65546
        0x0800a5bc:    78004830    0H.x    DCD    2013284400
        0x0800a5c0:    bd2af000    ..*.    DCD    3173707776
        0x0800a5c4:    000a0013    ....    DCD    655379
        0x0800a5c8:    48310001    ..1H    DCD    1211170817
        0x0800a5cc:    f0007800    .x..    DCD    4026562560
        0x0800a5d0:    0000bd33    3...    DCD    48435
        0x0800a5d4:    7800482a    *H.x    DCD    2013284394
        0x0800a5d8:    bee8f000    ....    DCD    3202936832
        0x0800a5dc:    4a07482c    ,H.J    DCD    1241991212
        0x0800a5e0:    78002124    $!.x    DCD    2013274404
        0x0800a5e4:    2001fb00    ...     DCD    537000704
        0x0800a5e8:    477068c0    .hpG    DCD    1198549184
        0x0800a5ec:    4a034824    $H.J    DCD    1241729060
        0x0800a5f0:    78002124    $!.x    DCD    2013274404
        0x0800a5f4:    2001fb00    ...     DCD    537000704
        0x0800a5f8:    477068c0    .hpG    DCD    1198549184
        0x0800a5fc:    200002e8    ...     DCD    536871656
        0x0800a600:    23014823    #H.#    DCD    587286563
        0x0800a604:    22007800    .x."    DCD    570456064
        0x0800a608:    f0002101    .!..    DCD    4026540289
        0x0800a60c:    0000bd61    a...    DCD    48481
        0x0800a610:    b408b500    ....    DCD    3020469504
        0x0800a614:    bf000013    ....    DCD    3204448275
        0x0800a618:    0001000a    ....    DCD    65546
        0x0800a61c:    7800481c    .H.x    DCD    2013284380
        0x0800a620:    fd74f000    ..t.    DCD    4252299264
        0x0800a624:    0000bd02    ....    DCD    48386
        0x0800a628:    000a0013    ....    DCD    655379
        0x0800a62c:    48140001    ...H    DCD    1209270273
        0x0800a630:    f0007800    .x..    DCD    4026562560
        0x0800a634:    0000bcdf    ....    DCD    48351
        0x0800a638:    0004b510    ....    DCD    308496
        0x0800a63c:    fed6f000    ....    DCD    4275499008
        0x0800a640:    21144a0b    .J.!    DCD    554977803
        0x0800a644:    2001fb00    ...     DCD    537000704
        0x0800a648:    300c21ff    .!.0    DCD    806101503
        0x0800a64c:    70c17081    .p.p    DCD    1891725441
        0x0800a650:    78227101    .q"x    DCD    2015523073
        0x0800a654:    21017863    cx.!    DCD    553744483
        0x0800a658:    22014091    .@."    DCD    570507409
        0x0800a65c:    430a409a    .@.C    DCD    1124745370
        0x0800a660:    480b8002    ...H    DCD    1208713218
        0x0800a664:    70017821    !x.p    DCD    1879144481
        0x0800a668:    70417861    axAp    DCD    1883338849
        0x0800a66c:    bf00bd10    ....    DCD    3204496656
        0x0800a670:    20000378    x..     DCD    536871800
        0x0800a674:    48020001    ...H    DCD    1208090625
        0x0800a678:    f0007800    .x..    DCD    4026562560
        0x0800a67c:    0000bed7    ....    DCD    48855
        0x0800a680:    20000fed    ...     DCD    536874989
        0x0800a684:    bf004802    .H..    DCD    3204466690
        0x0800a688:    f0007800    .x..    DCD    4026562560
        0x0800a68c:    0000bd1d    ....    DCD    48413
        0x0800a690:    20000fec    ...     DCD    536874988
        0x0800a694:    0d414801    .HA.    DCD    222382081
        0x0800a698:    47706001    .`pG    DCD    1198546945
        0x0800a69c:    40010810    ...@    DCD    1073809424
        0x0800a6a0:    f0004801    .H..    DCD    4026550273
        0x0800a6a4:    bf00be15    ....    DCD    3204496917
        0x0800a6a8:    08009b58    X...    DCD    134257496
        0x0800a6ac:    4c0eb510    ...L    DCD    1276032272
        0x0800a6b0:    1c407820     x@.    DCD    473987104
        0x0800a6b4:    f7ff7020     p..    DCD    4160712736
        0x0800a6b8:    4817fb18    ...H    DCD    1209531160
        0x0800a6bc:    00016800    .h..    DCD    92160
        0x0800a6c0:    4780bf18    ...G    DCD    1199619864
        0x0800a6c4:    fb17f7ff    ....    DCD    4212652031
        0x0800a6c8:    28017820     x.(    DCD    671184928
        0x0800a6cc:    4807d104    ...H    DCD    1208471812
        0x0800a6d0:    b1087800    .x..    DCD    2970122240
        0x0800a6d4:    faf7f7ff    ....    DCD    4210554879
        0x0800a6d8:    1e407820     x@.    DCD    507541536
        0x0800a6dc:    e8bd7020     p..    DCD    3904729120
        0x0800a6e0:    f7ff4010    .@..    DCD    4160700432
        0x0800a6e4:    bf00bb02    ....    DCD    3204496130
        0x0800a6e8:    20000178    x..     DCD    536871288
        0x0800a6ec:    20000fe7    ...     DCD    536874983
        0x0800a6f0:    b5004909    .I..    DCD    3036694793
        0x0800a6f4:    21f06008    .`.!    DCD    569401352
        0x0800a6f8:    f7ff2023    # ..    DCD    4160692259
        0x0800a6fc:    21f0fb93    ...!    DCD    569441171
        0x0800a700:    f7ff2024    $ ..    DCD    4160692260
        0x0800a704:    2023fb8f    ..#     DCD    539229071
        0x0800a708:    fb56f7ff    ..V.    DCD    4216780799
        0x0800a70c:    f85d2024    $ ].    DCD    4166852644
        0x0800a710:    f7ffeb04    ....    DCD    4160744196
        0x0800a714:    0000bb51    Q...    DCD    47953
        0x0800a718:    20000190    ...     DCD    536871312
        0x0800a71c:    00014a6c    lJ..    DCD    84588
        0x0800a720:    68136810    .h.h    DCD    1746102288
        0x0800a724:    60111859    Y..`    DCD    1611733081
        0x0800a728:    00004770    pG..    DCD    18288
        0x0800a72c:    b5304b0d    .K0.    DCD    3039841037
        0x0800a730:    00c44d66    fM..    DCD    12864870
        0x0800a734:    682d2a00    .*-h    DCD    1747790336
        0x0800a738:    192cd003    ..,.    DCD    422367235
        0x0800a73c:    0444eb13    ..D.    DCD    71625491
        0x0800a740:    192ce003    ..,.    DCD    422371331
        0x0800a744:    eb154d08    .M..    DCD    3944041736
        0x0800a748:    00490444    D.I.    DCD    4785220
        0x0800a74c:    80210849    I.!.    DCD    2149648457
        0x0800a750:    eb124995    .I..    DCD    3943844245
        0x0800a754:    88220040    @.".    DCD    2283929664
        0x0800a758:    0242eb13    ..B.    DCD    37939987
        0x0800a75c:    2020f841    A.      DCD    539031617
        0x0800a760:    bf00bd30    0...    DCD    3204496688
        0x0800a764:    40006000    .`.@    DCD    1073766400
        0x0800a768:    40006008    .`.@    DCD    1073766408
        0x0800a76c:    4c57b530    0.WL    DCD    1280816432
        0x0800a770:    2a0000c3    ...*    DCD    704643267
        0x0800a774:    d0046824    $h..    DCD    3489949732
        0x0800a778:    4c1118e3    ...L    DCD    1276188899
        0x0800a77c:    0343eb14    ..C.    DCD    54782740
        0x0800a780:    2500e017    ...%    DCD    620814359
        0x0800a784:    4c0f18e3    ...L    DCD    1276057827
        0x0800a788:    0343eb14    ..C.    DCD    54782740
        0x0800a78c:    d206293f    ?)..    DCD    3523619135
        0x0800a790:    b2a4084c    L...    DCD    2997094476
        0x0800a794:    d50907c9    ....    DCD    3574138825
        0x0800a798:    b2a41c64    d...    DCD    2997099620
        0x0800a79c:    094ce006    ..L.    DCD    156033030
        0x0800a7a0:    2501b2a4    ...%    DCD    620868260
        0x0800a7a4:    bf1c06e1    ....    DCD    3206285025
        0x0800a7a8:    b2a41c64    d...    DCD    2997099620
        0x0800a7ac:    ea5102a1    ..Q.    DCD    3931177633
        0x0800a7b0:    601931c5    .1.`    DCD    1612263877
        0x0800a7b4:    eb12497b    {I..    DCD    3943844219
        0x0800a7b8:    f8410040    @.A.    DCD    4165009472
        0x0800a7bc:    bd303020     00.    DCD    3174051872
        0x0800a7c0:    40006004    .`.@    DCD    1073766404
        0x0800a7c4:    4000600c    .`.@    DCD    1073766412
        0x0800a7c8:    b5304aa8    .J0.    DCD    3039840936
        0x0800a7cc:    0080eb12    ....    DCD    8448786
        0x0800a7d0:    f4126802    .h..    DCD    4094846978
        0x0800a7d4:    428a5240    @R.B    DCD    1116361280
        0x0800a7d8:    4a17d00f    ...J    DCD    1243074575
        0x0800a7dc:    68044b07    .K.h    DCD    1745111815
        0x0800a7e0:    401c404c    L@.@    DCD    1075593292
        0x0800a7e4:    60044314    .C.`    DCD    1610892052
        0x0800a7e8:    f4156805    .h..    DCD    4095043589
        0x0800a7ec:    428d5540    @U.B    DCD    1116558656
        0x0800a7f0:    404cd003    ..L@    DCD    1078775811
        0x0800a7f4:    431a4023    #@.C    DCD    1125793827
        0x0800a7f8:    bd306002    .`0.    DCD    3174064130
        0x0800a7fc:    ffffbf8f    ....    DCD    4294950799
        0x0800a800:    b5304a9a    .J0.    DCD    3039840922
        0x0800a804:    0080eb12    ....    DCD    8448786
        0x0800a808:    f0126802    .h..    DCD    4027738114
        0x0800a80c:    428a0230    0..B    DCD    1116340784
        0x0800a810:    4a09d00f    ...J    DCD    1242157071
        0x0800a814:    68044b07    .K.h    DCD    1745111815
        0x0800a818:    401c404c    L@.@    DCD    1075593292
        0x0800a81c:    60044314    .C.`    DCD    1610892052
        0x0800a820:    f0156805    .h..    DCD    4027934725
        0x0800a824:    428d0530    0..B    DCD    1116538160
        0x0800a828:    404cd003    ..L@    DCD    1078775811
        0x0800a82c:    431a4023    #@.C    DCD    1125793827
        0x0800a830:    bd306002    .`0.    DCD    3174064130
        0x0800a834:    ffff8fbf    ....    DCD    4294938559
        0x0800a838:    00008080    ....    DCD    32896
        0x0800a83c:    d3062a02    .*..    DCD    3540396546
        0x0800a840:    3b04f851    Q..;    DCD    990181457
        0x0800a844:    2a021e92    ...*    DCD    704781970
        0x0800a848:    3b02f820     ..;    DCD    990050336
        0x0800a84c:    b10ad2f8    ....    DCD    2970276600
        0x0800a850:    70016809    .h.p    DCD    1879140361
        0x0800a854:    00004770    pG..    DCD    18288
        0x0800a858:    b50048b9    .H..    DCD    3036694713
        0x0800a85c:    411cf45f    _..A    DCD    1092416607
        0x0800a860:    60012240    @".`    DCD    1610687040
        0x0800a864:    20004919    .I.     DCD    536889625
        0x0800a868:    49196008    .`.I    DCD    1226399752
        0x0800a86c:    2100600a    .`.!    DCD    553672714
        0x0800a870:    f8424a4d    MJB.    DCD    4165093965
        0x0800a874:    4a4b0021    !.KJ    DCD    1246429217
        0x0800a878:    0021f842    B.!.    DCD    2226242
        0x0800a87c:    29201c49    I. )    DCD    689970249
        0x0800a880:    2008d3f6    ...     DCD    537449462
        0x0800a884:    ff4af7ff    ..J.    DCD    4283103231
        0x0800a888:    00012200    ."..    DCD    74240
        0x0800a88c:    f7ff2000    . ..    DCD    4160692224
        0x0800a890:    2200ff4d    M.."    DCD    570490701
        0x0800a894:    46102108    .!.F    DCD    1175462152
        0x0800a898:    ff68f7ff    ..h.    DCD    4285069311
        0x0800a89c:    f7ff2008    . ..    DCD    4160692232
        0x0800a8a0:    2201ff3d    =.."    DCD    570556221
        0x0800a8a4:    20000001    ...     DCD    536870913
        0x0800a8a8:    ff40f7ff    ..@.    DCD    4282447871
        0x0800a8ac:    21082201    .".!    DCD    554181121
        0x0800a8b0:    f7ff2000    . ..    DCD    4160692224
        0x0800a8b4:    486dff5b    [.mH    DCD    1215168347
        0x0800a8b8:    f8404903    .I@.    DCD    4164962563
        0x0800a8bc:    21801b4c    L..!    DCD    562043724
        0x0800a8c0:    f0006001    .`..    DCD    4026556417
        0x0800a8c4:    bd00fd23    #...    DCD    3170958627
        0x0800a8c8:    00003230    02..    DCD    12848
        0x0800a8cc:    40005c50    P\.@    DCD    1073765456
        0x0800a8d0:    20000294    ...     DCD    536871572
        0x0800a8d4:    f000b500    ....    DCD    4026578176
        0x0800a8d8:    4899fd39    9..H    DCD    1218051385
        0x0800a8dc:    f0516801    .hQ.    DCD    4031866881
        0x0800a8e0:    60010108    ...`    DCD    1610678536
        0x0800a8e4:    f0516801    .hQ.    DCD    4031866881
        0x0800a8e8:    60010104    ...`    DCD    1610678532
        0x0800a8ec:    0000bd00    ....    DCD    48384
        0x0800a8f0:    485eb51f    ..^H    DCD    1214166303
        0x0800a8f4:    68014a2a    *J.h    DCD    1744914986
        0x0800a8f8:    6002400a    .@.`    DCD    1610760202
        0x0800a8fc:    68004829    )H.h    DCD    1744848937
        0x0800a900:    05846800    .h..    DCD    92563456
        0x0800a904:    05080da4    ....    DCD    84413860
        0x0800a908:    4827d50e    ..'H    DCD    1210569998
        0x0800a90c:    68010022    "..h    DCD    1744896034
        0x0800a910:    f7ff4668    hF..    DCD    4160702056
        0x0800a914:    4668ff93    ..hF    DCD    1181286291
        0x0800a918:    ffccf000    ....    DCD    4291620864
        0x0800a91c:    5140f45f    _.@Q    DCD    1363211359
        0x0800a920:    f7ff2000    . ..    DCD    4160692224
        0x0800a924:    bd1fff51    Q...    DCD    3172990801
        0x0800a928:    481fb154    T..H    DCD    1210036564
        0x0800a92c:    68010022    "..h    DCD    1744896034
        0x0800a930:    f7ffa802    ....    DCD    4160727042
        0x0800a934:    0022ff83    ..".    DCD    2293635
        0x0800a938:    2000a902    ...     DCD    536914178
        0x0800a93c:    fc1af000    ....    DCD    4229623808
        0x0800a940:    0000bd1f    ....    DCD    48415
        0x0800a944:    b5f04a16    .J..    DCD    3052423702
        0x0800a948:    48480004    ..HH    DCD    1212678148
        0x0800a94c:    eb100025    %...    DCD    3943694373
        0x0800a950:    68010085    ...h    DCD    1744896133
        0x0800a954:    6002400a    .@.`    DCD    1610760202
        0x0800a958:    f8504812    .HP.    DCD    4166010898
        0x0800a95c:    68000035    5..h    DCD    1744830517
        0x0800a960:    0db60586    ....    DCD    230032774
        0x0800a964:    d3012e41    A...    DCD    3540069953
        0x0800a968:    e0002640    @&..    DCD    3758106176
        0x0800a96c:    480eb166    f..H    DCD    1208922470
        0x0800a970:    00324f0a    .O2.    DCD    3297034
        0x0800a974:    1035f850    P.5.    DCD    271972432
        0x0800a978:    f7ff0038    8...    DCD    4160684088
        0x0800a97c:    0032ff5f    _.2.    DCD    3342175
        0x0800a980:    00200039    9. .    DCD    2097209
        0x0800a984:    fbf6f000    ....    DCD    4227264512
        0x0800a988:    5d404856    VH@]    DCD    1564493910
        0x0800a98c:    f45fb120     ._.    DCD    4099911968
        0x0800a990:    00205140    @Q .    DCD    2117952
        0x0800a994:    ff18f7ff    ....    DCD    4279826431
        0x0800a998:    bf00bdf0    ....    DCD    3204496880
        0x0800a99c:    200002a8    ...     DCD    536871592
        0x0800a9a0:    00000f8f    ....    DCD    3983
        0x0800a9a4:    20000214    ...     DCD    536871444
        0x0800a9a8:    20000194    ...     DCD    536871316
        0x0800a9ac:    4c65b510    ..eL    DCD    1281733904
        0x0800a9b0:    f4106820     h..    DCD    4094715936
        0x0800a9b4:    0541401e    .@A.    DCD    88162334
        0x0800a9b8:    f47fd505    ....    DCD    4102018309
        0x0800a9bc:    60206080    .` `    DCD    1612734592
        0x0800a9c0:    ff4af7ff    ..J.    DCD    4283103231
        0x0800a9c4:    04c1bd10    ....    DCD    79805712
        0x0800a9c8:    f47fd519    ....    DCD    4102018329
        0x0800a9cc:    60205080    .P `    DCD    1612730496
        0x0800a9d0:    68004824    $H.h    DCD    1744848932
        0x0800a9d4:    4040f410    ..@@    DCD    1077998608
        0x0800a9d8:    4f00f5b0    ...O    DCD    1325462960
        0x0800a9dc:    f5b0d002    ....    DCD    4122005506
        0x0800a9e0:    d1025f40    @_..    DCD    3506593600
        0x0800a9e4:    ff76f7ff    ..v.    DCD    4285986815
        0x0800a9e8:    2800bd10    ...(    DCD    671137040
        0x0800a9ec:    4854d038    8.TH    DCD    1213517880
        0x0800a9f0:    6801220c    .".h    DCD    1744904716
        0x0800a9f4:    60014391    .C.`    DCD    1610695569
        0x0800a9f8:    fcaef000    ....    DCD    4239323136
        0x0800a9fc:    0501bd10    ....    DCD    84000016
        0x0800aa00:    f47fd503    ....    DCD    4102018307
        0x0800aa04:    60206000    .` `    DCD    1612734464
        0x0800aa08:    0401e7ec    ....    DCD    67233772
        0x0800aa0c:    0580d407    ....    DCD    92328967
        0x0800aa10:    f47fd523    #...    DCD    4102018339
        0x0800aa14:    60207000    .p `    DCD    1612738560
        0x0800aa18:    f7ffbd10    ....    DCD    4160732432
        0x0800aa1c:    6820ff69    i. h    DCD    1746993001
        0x0800aa20:    d51d0400    ....    DCD    3575448576
        0x0800aa24:    68216820     h!h    DCD    1747019808
        0x0800aa28:    07002201    ."..    DCD    117449217
        0x0800aa2c:    09090f00    ....    DCD    151588608
        0x0800aa30:    490d400a    .@.I    DCD    1225605130
        0x0800aa34:    d1080003    ....    DCD    3506962435
        0x0800aa38:    d1ee2a00    .*..    DCD    3522046464
        0x0800aa3c:    68134a0b    .J.h    DCD    1746094603
        0x0800aa40:    60114019    .@.`    DCD    1611743257
        0x0800aa44:    fc0cf000    ....    DCD    4228706304
        0x0800aa48:    b112e7e9    ....    DCD    2970806249
        0x0800aa4c:    ff7af7ff    ..z.    DCD    4286248959
        0x0800aa50:    4b06e7e5    ...K    DCD    1258743781
        0x0800aa54:    0280eb13    ....    DCD    42003219
        0x0800aa58:    f47fe7f1    ....    DCD    4102023153
        0x0800aa5c:    6020401e    .@ `    DCD    1612726302
        0x0800aa60:    bf00bd10    ....    DCD    3204496656
        0x0800aa64:    40005c48    H\.@    DCD    1073765448
        0x0800aa68:    00008f0f    ....    DCD    36623
        0x0800aa6c:    40005c00    .\.@    DCD    1073765376
        0x0800aa70:    0004b530    0...    DCD    308528
        0x0800aa74:    b1c4000d    ....    DCD    2982412301
        0x0800aa78:    fa10f000    ....    DCD    4195414016
        0x0800aa7c:    40012180    .!.@    DCD    1073815936
        0x0800aa80:    b10dd007    ....    DCD    2970472455
        0x0800aa84:    e0002110    .!..    DCD    3758104848
        0x0800aa88:    00202120     ! .    DCD    2105632
        0x0800aa8c:    4030e8bd    ..0@    DCD    1076947133
        0x0800aa90:    b12de6b6    ..-.    DCD    2972575414
        0x0800aa94:    5180f45f    _..Q    DCD    1367405663
        0x0800aa98:    e8bd0020     ...    DCD    3904700448
        0x0800aa9c:    e6934030    0@..    DCD    3868409904
        0x0800aaa0:    5100f45f    _..Q    DCD    1359017055
        0x0800aaa4:    f7ff0020     ...    DCD    4160684064
        0x0800aaa8:    bd30feab    ..0.    DCD    3174104747
        0x0800aaac:    20004901    .I.     DCD    536889601
        0x0800aab0:    bf00e6a6    ....    DCD    3204507302
        0x0800aab4:    00001010    ....    DCD    4112
        0x0800aab8:    f0504902    .IP.    DCD    4031793410
        0x0800aabc:    60080080    ...`    DCD    1611137152
        0x0800aac0:    bf004770    pG..    DCD    3204466544
        0x0800aac4:    40005c4c    L\.@    DCD    1073765452
        0x0800aac8:    22004906    .I."    DCD    570444038
        0x0800aacc:    4770540a    .TpG    DCD    1198543882
        0x0800aad0:    f45fb510    .._.    DCD    4099912976
        0x0800aad4:    00045140    @Q..    DCD    282944
        0x0800aad8:    fe76f7ff    ..v.    DCD    4269209599
        0x0800aadc:    21014801    .H.!    DCD    553732097
        0x0800aae0:    bd105501    .U..    DCD    3171964161
        0x0800aae4:    20000298    ...     DCD    536871576
        0x0800aae8:    f000b500    ....    DCD    4026578176
        0x0800aaec:    4812fcbd    ...H    DCD    1209203901
        0x0800aaf0:    0280f47f    ....    DCD    42005631
        0x0800aaf4:    400a6801    .h.@    DCD    1074423809
        0x0800aaf8:    2b0cf840    @..+    DCD    722270272
        0x0800aafc:    f47f6801    .h..    DCD    4101990401
        0x0800ab00:    400a0200    ...@    DCD    1074397696
        0x0800ab04:    2b0cf840    @..+    DCD    722270272
        0x0800ab08:    22006801    .h."    DCD    570451969
        0x0800ab0c:    0100f451    Q...    DCD    16839761
        0x0800ab10:    480b6001    .`.H    DCD    1208705025
        0x0800ab14:    60012103    .!.`    DCD    1610686723
        0x0800ab18:    60012101    .!.`    DCD    1610686721
        0x0800ab1c:    600a4909    .I.`    DCD    1611286793
        0x0800ab20:    60010d01    ...`    DCD    1610681601
        0x0800ab24:    f7ff4805    .H..    DCD    4160702469
        0x0800ab28:    f7fffde3    ....    DCD    4160749027
        0x0800ab2c:    f85dfe95    ..].    DCD    4166909589
        0x0800ab30:    f000eb04    ....    DCD    4026592004
        0x0800ab34:    bf00bc8f    ....    DCD    3204496527
        0x0800ab38:    40021004    ...@    DCD    1073876996
        0x0800ab3c:    08008325    %...    DCD    134251301
        0x0800ab40:    40005c40    @\.@    DCD    1073765440
        0x0800ab44:    40005c44    D\.@    DCD    1073765444
        0x0800ab48:    bda4f7ff    ....    DCD    3181705215
        0x0800ab4c:    78084902    .I.x    DCD    2013808898
        0x0800ab50:    70081c40    @..p    DCD    1879579712
        0x0800ab54:    4770b2c0    ..pG    DCD    1198568128
        0x0800ab58:    20000fee    ...     DCD    536874990
        0x0800ab5c:    7941b570    p.Ay    DCD    2034349424
        0x0800ab60:    064c8805    ..L.    DCD    105678853
        0x0800ab64:    06090e64    d...    DCD    101256804
        0x0800ab68:    2600bf54    T..&    DCD    637583188
        0x0800ab6c:    79002601    .&.y    DCD    2030052865
        0x0800ab70:    b1202100    .! .    DCD    2971672832
        0x0800ab74:    d0052801    .(..    DCD    3489998849
        0x0800ab78:    d0062803    .(..    DCD    3490064387
        0x0800ab7c:    f45fe007    .._.    DCD    4099923975
        0x0800ab80:    e0047100    .q..    DCD    3758387456
        0x0800ab84:    6180f45f    _..a    DCD    1635841119
        0x0800ab88:    f45fe001    .._.    DCD    4099923969
        0x0800ab8c:    b10e61c0    .a..    DCD    2970509760
        0x0800ab90:    e0012020      ..    DCD    3758170144
        0x0800ab94:    5000f45f    _..P    DCD    1342239839
        0x0800ab98:    43084a2b    +J.C    DCD    1124616747
        0x0800ab9c:    f8424320     CB.    DCD    4165092128
        0x0800aba0:    00280024    $.(.    DCD    2621476
        0x0800aba4:    fdbaf7ff    ....    DCD    4256888831
        0x0800aba8:    00010032    2...    DCD    65586
        0x0800abac:    f7ff0020     ...    DCD    4160684064
        0x0800abb0:    0032fdbd    ..2.    DCD    3341757
        0x0800abb4:    00200029    ). .    DCD    2097193
        0x0800abb8:    4070e8bd    ..p@    DCD    1081141437
        0x0800abbc:    0000e5d6    ....    DCD    58838
        0x0800abc0:    00004770    pG..    DCD    18288
        0x0800abc4:    2040b108    ..@     DCD    541110536
        0x0800abc8:    20084770    pG.     DCD    537413488
        0x0800abcc:    00004770    pG..    DCD    18288
        0x0800abd0:    4c0db570    p..L    DCD    1275966832
        0x0800abd4:    eb140015    ....    DCD    3943956501
        0x0800abd8:    686404c0    ..dh    DCD    1751385280
        0x0800abdc:    d3062d02    .-..    DCD    3540397314
        0x0800abe0:    6b02f831    1..k    DCD    1795356721
        0x0800abe4:    2d021ead    ...-    DCD    755113645
        0x0800abe8:    6b04f844    D..k    DCD    1795487812
        0x0800abec:    b10dd2f8    ....    DCD    2970473208
        0x0800abf0:    60217809    .x!`    DCD    1612806153
        0x0800abf4:    eb114905    .I..    DCD    3943778565
        0x0800abf8:    684901c0    ..Ih    DCD    1749615040
        0x0800abfc:    2130600a    .`0!    DCD    556818442
        0x0800ac00:    4070e8bd    ..p@    DCD    1081141437
        0x0800ac04:    0000e5fc    ....    DCD    58876
        0x0800ac08:    20000194    ...     DCD    536871316
        0x0800ac0c:    20000214    ...     DCD    536871444
        0x0800ac10:    baeef000    ....    DCD    3136221184
        0x0800ac14:    e5f32120     !..    DCD    3857916192
        0x0800ac18:    47702000    . pG    DCD    1198530560
        0x0800ac1c:    0004b510    ....    DCD    308496
        0x0800ac20:    f93cf000    ..<.    DCD    4181520384
        0x0800ac24:    eb114908    .I..    DCD    3943778568
        0x0800ac28:    680a0184    ...h    DCD    1745486212
        0x0800ac2c:    d5050600    ....    DCD    3573876224
        0x0800ac30:    d5080650    P...    DCD    3574072912
        0x0800ac34:    0040f052    R.@.    DCD    4255826
        0x0800ac38:    bd106008    .`..    DCD    3171966984
        0x0800ac3c:    d5020450    P...    DCD    3573679184
        0x0800ac40:    4080f452    R..@    DCD    1082192978
        0x0800ac44:    bd106008    .`..    DCD    3171966984
        0x0800ac48:    40005c00    .\.@    DCD    1073765376
        0x0800ac4c:    b5f04aaf    .J..    DCD    3052423855
        0x0800ac50:    481a0004    ...H    DCD    1209663492
        0x0800ac54:    6801000d    ...h    DCD    1744896013
        0x0800ac58:    fb042024    $ ..    DCD    4211351588
        0x0800ac5c:    b18c2600    .&..    DCD    2978752000
        0x0800ac60:    79702700    .'py    DCD    2037393152
        0x0800ac64:    d5040600    ....    DCD    3573810688
        0x0800ac68:    6b897437    7t.k    DCD    1804170295
        0x0800ac6c:    47880020     ..G    DCD    1200095264
        0x0800ac70:    6a89e002    ...j    DCD    1787420674
        0x0800ac74:    47880020     ..G    DCD    1200095264
        0x0800ac78:    60f760b7    .`.`    DCD    1626824887
        0x0800ac7c:    0020b115    .. .    DCD    2142485
        0x0800ac80:    fbfcf000    ....    DCD    4227657728
        0x0800ac84:    0000bdf0    ....    DCD    48624
        0x0800ac88:    b5104aa0    .J..    DCD    3037743776
        0x0800ac8c:    20240004    ..$     DCD    539230212
        0x0800ac90:    2000fb04    ...     DCD    536935172
        0x0800ac94:    18526882    .hR.    DCD    408053890
        0x0800ac98:    68c26082    .`.h    DCD    1757569154
        0x0800ac9c:    60c11a51    Q..`    DCD    1623267921
        0x0800aca0:    b10968c1    .h..    DCD    2970183873
        0x0800aca4:    b1387980    .y8.    DCD    2973268352
        0x0800aca8:    f0000020     ...    DCD    4026531872
        0x0800acac:    4903fbe7    ...I    DCD    1224997863
        0x0800acb0:    68090020     ..h    DCD    1745420320
        0x0800acb4:    47886a89    .j.G    DCD    1200122505
        0x0800acb8:    0000bd10    ....    DCD    48400
        0x0800acbc:    2000039c    ...     DCD    536871836
        0x0800acc0:    4ff0e92d    -..O    DCD    1341188397
        0x0800acc4:    00144680    .F..    DCD    1328768
        0x0800acc8:    f05f4a90    .J_.    DCD    4032776848
        0x0800accc:    468930ff    .0.F    DCD    1183396095
        0x0800acd0:    46822124    $!.F    DCD    1182933284
        0x0800acd4:    2701fb08    ...'    DCD    654441224
        0x0800acd8:    4656001d    ..VF    DCD    1180041245
        0x0800acdc:    280179f8    .y.(    DCD    671185400
        0x0800ace0:    4630d101    ..0F    DCD    1177604353
        0x0800ace4:    f000e042    B...    DCD    4026589250
        0x0800ace8:    4895fbbf    ...H    DCD    1217788863
        0x0800acec:    f89b4683    .F..    DCD    4170925699
        0x0800acf0:    07800007    ....    DCD    125829127
        0x0800acf4:    28020f80    ...(    DCD    671223680
        0x0800acf8:    b174d135    5.t.    DCD    2977222965
        0x0800acfc:    46490022    ".IF    DCD    1179189282
        0x0800ad00:    30140038    8..0    DCD    806617144
        0x0800ad04:    f91ef000    ....    DCD    4179554304
        0x0800ad08:    eb160006    ....    DCD    3944087558
        0x0800ad0c:    1ba00909    ....    DCD    463472905
        0x0800ad10:    79b8d029    )..y    DCD    2042155049
        0x0800ad14:    bb36b120     .6.    DCD    3140923680
        0x0800ad18:    69f8e002    ...i    DCD    1777917954
        0x0800ad1c:    2600bb18    ...&    DCD    637582104
        0x0800ad20:    9008f8c7    ....    DCD    2416507079
        0x0800ad24:    60f81ba0    ...`    DCD    1626872736
        0x0800ad28:    1024f8db    ..$.    DCD    270858459
        0x0800ad2c:    6ac94640    @F.j    DCD    1791575616
        0x0800ad30:    b1b54788    .G..    DCD    2981447560
        0x0800ad34:    46409909    ..@F    DCD    1178638601
        0x0800ad38:    f000b151    Q...    DCD    4026577233
        0x0800ad3c:    b148fbab    ..H.    DCD    2974350251
        0x0800ad40:    b10068f8    .h..    DCD    2969594104
        0x0800ad44:    21002400    .$.!    DCD    553657344
        0x0800ad48:    f7ff4640    @F..    DCD    4160702016
        0x0800ad4c:    e001ff7f    ....    DCD    3758227327
        0x0800ad50:    fb9af000    ....    DCD    4221235200
        0x0800ad54:    280079b8    .y.(    DCD    671119800
        0x0800ad58:    d10368f8    .h..    DCD    3506661624
        0x0800ad5c:    4656b108    ..VF    DCD    1180086536
        0x0800ad60:    68f8e001    ...h    DCD    1761140737
        0x0800ad64:    f0001a26    &...    DCD    4026538534
        0x0800ad68:    0030fb75    u.0.    DCD    3210101
        0x0800ad6c:    8ff0e8bd    ....    DCD    2414930109
        0x0800ad70:    43f0e92d    -..C    DCD    1139861805
        0x0800ad74:    4a654691    .FeJ    DCD    1248151185
        0x0800ad78:    000f001c    ....    DCD    983068
        0x0800ad7c:    46802124    $!.F    DCD    1182802212
        0x0800ad80:    2601fb00    ...&    DCD    637664000
        0x0800ad84:    fb70f000    ..p.    DCD    4218482688
        0x0800ad88:    25004813    .H.%    DCD    620775443
        0x0800ad8c:    b9087800    .x..    DCD    3104339968
        0x0800ad90:    b9087c30    0|..    DCD    3104341040
        0x0800ad94:    b1b068b0    .h..    DCD    2981128368
        0x0800ad98:    46494640    @FIF    DCD    1179207232
        0x0800ad9c:    f000b189    ....    DCD    4026577289
        0x0800ada0:    b180fb79    y...    DCD    2978020217
        0x0800ada4:    1a3f68f0    .h?.    DCD    440363248
        0x0800ada8:    8830d005    ..0.    DCD    2284900357
        0x0800adac:    428168f1    .h.B    DCD    1115777265
        0x0800adb0:    68f0bf38    8..h    DCD    1760608056
        0x0800adb4:    21001a3f    ?..!    DCD    553654847
        0x0800adb8:    f7ff4640    @F..    DCD    4160702016
        0x0800adbc:    2501ff47    G..%    DCD    620887879
        0x0800adc0:    f000e003    ....    DCD    4026589187
        0x0800adc4:    68f0fb61    a..h    DCD    1760623457
        0x0800adc8:    b1041a3f    ?...    DCD    2969836095
        0x0800adcc:    f0006027    '`..    DCD    4026556455
        0x0800add0:    0028fb41    A.(.    DCD    2685761
        0x0800add4:    83f0e8bd    ....    DCD    2213603517
        0x0800add8:    2000037d    }..     DCD    536871805
        0x0800addc:    4ff3e92d    -..O    DCD    1341385005
        0x0800ade0:    93014d57    WM..    DCD    2466336087
        0x0800ade4:    6a680004    ..hj    DCD    1785200644
        0x0800ade8:    46914688    .F.F    DCD    1183925896
        0x0800adec:    20004682    .F.     DCD    536888962
        0x0800adf0:    78284683    .F(x    DCD    2015905411
        0x0800adf4:    d2342804    .(4.    DCD    3526633476
        0x0800adf8:    21244a44    DJ$!    DCD    556026436
        0x0800adfc:    fb009000    ....    DCD    4211118080
        0x0800ae00:    f8da2601    .&..    DCD    4175046145
        0x0800ae04:    46412004    . AF    DCD    1178673156
        0x0800ae08:    47900020     ..G    DCD    1200619552
        0x0800ae0c:    d0280007    ..(.    DCD    3492282375
        0x0800ae10:    d02628ff    .(&.    DCD    3492161791
        0x0800ae14:    21002224    $".!    DCD    553656868
        0x0800ae18:    f0000030    0...    DCD    4026531888
        0x0800ae1c:    ea57ff41    A.W.    DCD    3931635521
        0x0800ae20:    717010c4    ..pq    DCD    1903169732
        0x0800ae24:    8004f886    ....    DCD    2147809414
        0x0800ae28:    f8da9800    ....    DCD    4175075328
        0x0800ae2c:    b2c01014    ....    DCD    2998931476
        0x0800ae30:    b91c4788    .G..    DCD    3105638280
        0x0800ae34:    4281990b    ...B    DCD    1115789579
        0x0800ae38:    4608bf38    8..F    DCD    1174978360
        0x0800ae3c:    f0004641    AF..    DCD    4026549825
        0x0800ae40:    0004fabb    ....    DCD    326331
        0x0800ae44:    2002bf04    ...     DCD    537050884
        0x0800ae48:    fb2cf000    ..,.    DCD    4214026240
        0x0800ae4c:    98018034    4...    DCD    2550235188
        0x0800ae50:    980b6170    pa..    DCD    2550882672
        0x0800ae54:    f8a661b0    .a..    DCD    4171653552
        0x0800ae58:    78289002    ..(x    DCD    2015924226
        0x0800ae5c:    1c404683    .F@.    DCD    473974403
        0x0800ae60:    46587028    (pXF    DCD    1180201000
        0x0800ae64:    8ff6e8bd    ....    DCD    2415323325
        0x0800ae68:    b5004b28    (K..    DCD    3036695336
        0x0800ae6c:    20000001    ...     DCD    536870913
        0x0800ae70:    1c40e000    ..@.    DCD    474013696
        0x0800ae74:    78124a08    .J.x    DCD    2014464520
        0x0800ae78:    da074290    .B..    DCD    3657908880
        0x0800ae7c:    fb002224    $"..    DCD    4211089956
        0x0800ae80:    79523202    .2Ry    DCD    2035429890
        0x0800ae84:    d1f4428a    .B..    DCD    3522445962
        0x0800ae88:    bd00b2c0    ....    DCD    3170939584
        0x0800ae8c:    f0002003    . ..    DCD    4026540035
        0x0800ae90:    20fffb09    ...     DCD    553646857
        0x0800ae94:    0000bd00    ....    DCD    48384
        0x0800ae98:    20000378    x..     DCD    536871800
        0x0800ae9c:    21244a1b    .J$!    DCD    556026395
        0x0800aea0:    2001fb00    ...     DCD    537000704
        0x0800aea4:    47707940    @ypG    DCD    1198553408
        0x0800aea8:    7800485a    ZH.x    DCD    2013284442
        0x0800aeac:    20010841    A..     DCD    536938561
        0x0800aeb0:    47704008    .@pG    DCD    1198538760
        0x0800aeb4:    4c22b570    p."L    DCD    1277343088
        0x0800aeb8:    6a652601    .&ej    DCD    1785013761
        0x0800aebc:    4913e008    ...I    DCD    1226039304
        0x0800aec0:    fb062024    $ ..    DCD    4211482660
        0x0800aec4:    68a91000    ...h    DCD    1755910144
        0x0800aec8:    47881c76    v..G    DCD    1200102518
        0x0800aecc:    478068e8    .h.G    DCD    1199597800
        0x0800aed0:    42867820     x.B    DCD    1116108832
        0x0800aed4:    bd70dbf3    ..p.    DCD    3178290163
        0x0800aed8:    4c19b530    0..L    DCD    1276753200
        0x0800aedc:    222c4d0b    .M,"    DCD    573328651
        0x0800aee0:    00202100    .! .    DCD    2105600
        0x0800aee4:    fedcf000    ....    DCD    4275892224
        0x0800aee8:    70202001    .  p    DCD    1881153537
        0x0800aeec:    21002290    .".!    DCD    553656976
        0x0800aef0:    f0000028    (...    DCD    4026531880
        0x0800aef4:    f7fffed5    ....    DCD    4160749269
        0x0800aef8:    6a61fbd3    ..aj    DCD    1784806355
        0x0800aefc:    69492000    . Ii    DCD    1766400000
        0x0800af00:    80284788    .G(.    DCD    2150123400
        0x0800af04:    4030e8bd    ..0@    DCD    1076947133
        0x0800af08:    ba98f000    ....    DCD    3130585088
        0x0800af0c:    200002e8    ...     DCD    536871656
        0x0800af10:    4c0bb530    0..L    DCD    1275835696
        0x0800af14:    68286a65    ej(h    DCD    1747479141
        0x0800af18:    f7ff4780    .G..    DCD    4160702336
        0x0800af1c:    6c2affcb    ..*l    DCD    1814757323
        0x0800af20:    d0060010    ....    DCD    3490054160
        0x0800af24:    20011d61    a..     DCD    536943969
        0x0800af28:    6c2a4790    .G*l    DCD    1814710160
        0x0800af2c:    20021da1    ...     DCD    537009569
        0x0800af30:    20104790    .G.     DCD    537937808
        0x0800af34:    692871e0    .q(i    DCD    1764258272
        0x0800af38:    4030e8bd    ..0@    DCD    1076947133
        0x0800af3c:    00004700    .G..    DCD    18176
        0x0800af40:    20000378    x..     DCD    536871800
        0x0800af44:    43f0e92d    -..C    DCD    1139861805
        0x0800af48:    00044688    .F..    DCD    280200
        0x0800af4c:    20000015    ...     DCD    536870933
        0x0800af50:    26004681    .F.&    DCD    637552257
        0x0800af54:    68e0e01e    ...h    DCD    1759567902
        0x0800af58:    18416862    bhA.    DCD    406939746
        0x0800af5c:    bf38428a    .B8.    DCD    3208135306
        0x0800af60:    1a0f4611    .F..    DCD    437208593
        0x0800af64:    bf2842af    .B(.    DCD    3207086767
        0x0800af68:    6821462f    /F!h    DCD    1747011119
        0x0800af6c:    1bed003a    :...    DCD    468516922
        0x0800af70:    46401809    ..@F    DCD    1178605577
        0x0800af74:    fe88f000    ....    DCD    4270387200
        0x0800af78:    19f668a0    .h..    DCD    435579040
        0x0800af7c:    0808eb17    ....    DCD    134802199
        0x0800af80:    60a01bc0    ...`    DCD    1621105600
        0x0800af84:    19c068e0    .h..    DCD    432040160
        0x0800af88:    686160e0    .`ah    DCD    1751212256
        0x0800af8c:    bf084288    .B..    DCD    3204989576
        0x0800af90:    900cf8c4    ....    DCD    2416769220
        0x0800af94:    b10d68a1    .h..    DCD    2970445985
        0x0800af98:    d1dc2900    .)..    DCD    3520866560
        0x0800af9c:    f8c4b909    ....    DCD    4173641993
        0x0800afa0:    0030900c    ..0.    DCD    3182604
        0x0800afa4:    83f0e8bd    ....    DCD    2213603517
        0x0800afa8:    0004b5f0    ....    DCD    308720
        0x0800afac:    0016000d    ....    DCD    1441805
        0x0800afb0:    68e2e017    ...h    DCD    1759698967
        0x0800afb4:    42881810    ...B    DCD    1116215312
        0x0800afb8:    1a40bf28    (.@.    DCD    440450856
        0x0800afbc:    42911982    ...B    DCD    1116805506
        0x0800afc0:    460abf38    8..F    DCD    1175109432
        0x0800afc4:    42b71a17    ...B    DCD    1119296023
        0x0800afc8:    4637bf28    (.7F    DCD    1178058536
        0x0800afcc:    003a6823    #h:.    DCD    3827747
        0x0800afd0:    18180029    )...    DCD    404226089
        0x0800afd4:    fe58f000    ..X.    DCD    4267241472
        0x0800afd8:    1bf668a0    .h..    DCD    469133472
        0x0800afdc:    19c019ed    ....    DCD    432019949
        0x0800afe0:    b13660a0    .`6.    DCD    2973130912
        0x0800afe4:    686168a0    .hah    DCD    1751214240
        0x0800afe8:    d1e21a0a    ....    DCD    3521255946
        0x0800afec:    f0002001    . ..    DCD    4026540033
        0x0800aff0:    bdf0fa59    Y...    DCD    3186686553
        0x0800aff4:    4d07b530    0..M    DCD    1292350768
        0x0800aff8:    20000004    ...     DCD    536870916
        0x0800affc:    07ad782d    -x..    DCD    128809005
        0x0800b000:    2d020fad    ...-    DCD    755109805
        0x0800b004:    b408d105    ....    DCD    3020476677
        0x0800b008:    23010020     ..#    DCD    587268128
        0x0800b00c:    fe58f7ff    ..X.    DCD    4267243519
        0x0800b010:    bd30b001    ..0.    DCD    3174084609
        0x0800b014:    2000037f    ...     DCD    536871807
        0x0800b018:    2300b500    ...#    DCD    587248896
        0x0800b01c:    f7ffb408    ....    DCD    4160730120
        0x0800b020:    bd02fe4f    O...    DCD    3171089999
        0x0800b024:    60984b71    qK.`    DCD    1620593521
        0x0800b028:    49ab60d9    .`.I    DCD    1235968217
        0x0800b02c:    2000749a    .t.     DCD    536900762
        0x0800b030:    6b096809    .h.k    DCD    1795778569
        0x0800b034:    00004708    .G..    DCD    18184
        0x0800b038:    43f0e92d    -..C    DCD    1139861805
        0x0800b03c:    489e4680    .F.H    DCD    1218332288
        0x0800b040:    000f0014    ....    DCD    983060
        0x0800b044:    4681001e    ...F    DCD    1182859294
        0x0800b048:    b1284640    @F(.    DCD    2972206656
        0x0800b04c:    0007f899    ....    DCD    522393
        0x0800b050:    d4010780    ....    DCD    3556837248
        0x0800b054:    e0352000    . 5.    DCD    3761577984
        0x0800b058:    21244a64    dJ$!    DCD    556026468
        0x0800b05c:    2501fb08    ...%    DCD    620886792
        0x0800b060:    280079e8    .y.(    DCD    671119848
        0x0800b064:    7928d1f6    ..(y    DCD    2032718326
        0x0800b068:    d1062802    .(..    DCD    3506841602
        0x0800b06c:    1e408828    (.@.    DCD    507545640
        0x0800b070:    d1014020     @..    DCD    3506520096
        0x0800b074:    d1000560    `...    DCD    3506439520
        0x0800b078:    b91f2600    .&..    DCD    3105826304
        0x0800b07c:    2e01b914    ....    DCD    771864852
        0x0800b080:    2701bf08    ...'    DCD    654425864
        0x0800b084:    f9f0f000    ....    DCD    4193316864
        0x0800b088:    b15868a8    .hX.    DCD    2975361192
        0x0800b08c:    184068e9    .h@.    DCD    406874345
        0x0800b090:    d10442b8    .B..    DCD    3506717368
        0x0800b094:    190068e8    .h..    DCD    419457256
        0x0800b098:    74ae60e8    .`.t    DCD    1957585128
        0x0800b09c:    4640e00a    ..@F    DCD    1178656778
        0x0800b0a0:    f9f2f000    ....    DCD    4193447936
        0x0800b0a4:    60ec60af    .`.`    DCD    1626103983
        0x0800b0a8:    f8d974ae    .t..    DCD    4175000750
        0x0800b0ac:    46401024    $.@F    DCD    1178603556
        0x0800b0b0:    47886b09    .k.G    DCD    1200122633
        0x0800b0b4:    f9cef000    ....    DCD    4191088640
        0x0800b0b8:    1a2068e8    .h .    DCD    438331624
        0x0800b0bc:    7ca9d102    ...|    DCD    2091503874
        0x0800b0c0:    2001b101    ...     DCD    536981761
        0x0800b0c4:    83f0e8bd    ....    DCD    2213603517
        0x0800b0c8:    22002300    .#."    DCD    570434304
        0x0800b0cc:    e64f4611    .FO.    DCD    3863954961
        0x0800b0d0:    4f79b5f1    ..yO    DCD    1333376497
        0x0800b0d4:    00150004    ....    DCD    1376260
        0x0800b0d8:    260079f8    .y.&    DCD    637565432
        0x0800b0dc:    0f800780    ....    DCD    260048768
        0x0800b0e0:    d1102802    .(..    DCD    3507496962
        0x0800b0e4:    f7ff0020     ...    DCD    4160684064
        0x0800b0e8:    0006ffa7    ....    DCD    458663
        0x0800b0ec:    1ba97978    xy..    DCD    464091512
        0x0800b0f0:    466bb938    8.kF    DCD    1181464888
        0x0800b0f4:    00202200    ." .    DCD    2105856
        0x0800b0f8:    fe3af7ff    ..:.    DCD    4265277439
        0x0800b0fc:    18369800    ..6.    DCD    406231040
        0x0800b100:    2901e001    ...)    DCD    687988737
        0x0800b104:    0030daf5    ..0.    DCD    3201781
        0x0800b108:    0000bdf2    ....    DCD    48626
        0x0800b10c:    43f1e92d    -..C    DCD    1139927341
        0x0800b110:    00049e08    ....    DCD    302600
        0x0800b114:    00154868    hH..    DCD    1394792
        0x0800b118:    46812700    .'.F    DCD    1182869248
        0x0800b11c:    0007f899    ....    DCD    522393
        0x0800b120:    0f800780    ....    DCD    260048768
        0x0800b124:    d11b2802    .(..    DCD    3508217858
        0x0800b128:    f7ff0020     ...    DCD    4160684064
        0x0800b12c:    0007ff85    ....    DCD    524165
        0x0800b130:    0005f899    ....    DCD    391321
        0x0800b134:    b9501be9    ..P.    DCD    3109034985
        0x0800b138:    0032466b    kF2.    DCD    3294827
        0x0800b13c:    f7ff0020     ...    DCD    4160684064
        0x0800b140:    b118fe17    ....    DCD    2971205143
        0x0800b144:    b9089800    ....    DCD    3104348160
        0x0800b148:    e0092700    .'..    DCD    3758696192
        0x0800b14c:    2901e006    ...)    DCD    687988742
        0x0800b150:    466bdb06    ..kF    DCD    1181473542
        0x0800b154:    00200032    2. .    DCD    2097202
        0x0800b158:    fe0af7ff    ....    DCD    4262131711
        0x0800b15c:    183f9800    ..?.    DCD    406820864
        0x0800b160:    e8bd0038    8...    DCD    3904700472
        0x0800b164:    000083f2    ....    DCD    33778
        0x0800b168:    22144b53    SK."    DCD    571755347
        0x0800b16c:    3002fb00    ...0    DCD    805501696
        0x0800b170:    477061c1    .apG    DCD    1198547393
        0x0800b174:    43f0e92d    -..C    DCD    1139861805
        0x0800b178:    2124000c    ..$!    DCD    556007436
        0x0800b17c:    4a1b0015    ...J    DCD    1243283477
        0x0800b180:    fb004680    .F..    DCD    4211099264
        0x0800b184:    484c2601    .&LH    DCD    1212950017
        0x0800b188:    46404681    .F@F    DCD    1178617473
        0x0800b18c:    f8d9b938    8...    DCD    4175018296
        0x0800b190:    00102020      ..    DCD    1056800
        0x0800b194:    0029d027    '.).    DCD    2740263
        0x0800b198:    47900020     ..G    DCD    1200619552
        0x0800b19c:    6932e023    #.2i    DCD    1764941859
        0x0800b1a0:    bf1e0010    ....    DCD    3206414352
        0x0800b1a4:    46204629    )F F    DCD    1176520233
        0x0800b1a8:    68b04790    .G.h    DCD    1756383120
        0x0800b1ac:    68f1b178    x..h    DCD    1760670072
        0x0800b1b0:    bf2c428d    .B,.    DCD    3207348877
        0x0800b1b4:    462f68f7    .h/F    DCD    1177512183
        0x0800b1b8:    003ab14f    O.:.    DCD    3846479
        0x0800b1bc:    f0000021    !...    DCD    4026531873
        0x0800b1c0:    0039fd63    c.9.    DCD    3800419
        0x0800b1c4:    f7ff4640    @F..    DCD    4160702016
        0x0800b1c8:    1bedfd5f    _...    DCD    468581727
        0x0800b1cc:    b15519e4    ..U.    DCD    2975144420
        0x0800b1d0:    0021002a    *.!.    DCD    2162730
        0x0800b1d4:    00303614    .60.    DCD    3159572
        0x0800b1d8:    fee6f7ff    ....    DCD    4276549631
        0x0800b1dc:    1024f8d9    ..$.    DCD    270858457
        0x0800b1e0:    6a894640    @F.j    DCD    1787381312
        0x0800b1e4:    e8bd4788    .G..    DCD    3904718728
        0x0800b1e8:    000083f0    ....    DCD    33776
        0x0800b1ec:    200002e8    ...     DCD    536871656
        0x0800b1f0:    b5f04991    .I..    DCD    3052423569
        0x0800b1f4:    00064f30    0O..    DCD    413488
        0x0800b1f8:    fb062024    $ ..    DCD    4211482660
        0x0800b1fc:    b19e1400    ....    DCD    2979927040
        0x0800b200:    06007960    `y..    DCD    100694368
        0x0800b204:    20ffbf5c    \..     DCD    553631580
        0x0800b208:    f94cf000    ..L.    DCD    4182568960
        0x0800b20c:    b9187978    xy..    DCD    3105388920
        0x0800b210:    bb187c20     |..    DCD    3138944032
        0x0800b214:    74202001    .  t    DCD    1948262401
        0x0800b218:    b1f868a0    .h..    DCD    2985846944
        0x0800b21c:    68e08825    %..h    DCD    1759545381
        0x0800b220:    d20542a8    .B..    DCD    3523560104
        0x0800b224:    e00368e5    .h..    DCD    3758319845
        0x0800b228:    280068a0    .h.(    DCD    671115424
        0x0800b22c:    bdf0d1f6    ....    DCD    3186676214
        0x0800b230:    68a16a7b    {j.h    DCD    1755409019
        0x0800b234:    6b5b002a    *.[k    DCD    1801125930
        0x0800b238:    47980030    0..G    DCD    1201143856
        0x0800b23c:    1b4068e0    .h@.    DCD    457205984
        0x0800b240:    68a060e0    .`.h    DCD    1755341024
        0x0800b244:    60a01940    @..`    DCD    1621104960
        0x0800b248:    b93868e0    .h8.    DCD    3107481824
        0x0800b24c:    428d8821    !..B    DCD    1116571681
        0x0800b250:    7ca1d103    ...|    DCD    2090979587
        0x0800b254:    74a0b109    ...t    DCD    1956688137
        0x0800b258:    60a0bdf0    ...`    DCD    1621147120
        0x0800b25c:    0000bdf0    ....    DCD    48624
        0x0800b260:    b5f04975    uI..    DCD    3052423541
        0x0800b264:    00044f14    .O..    DCD    282388
        0x0800b268:    26002024    $ .&    DCD    637542436
        0x0800b26c:    1500fb04    ....    DCD    352385796
        0x0800b270:    7978b114    ..xy    DCD    2037952788
        0x0800b274:    742eb900    ...t    DCD    1949219072
        0x0800b278:    b12068a8    .h .    DCD    2971691176
        0x0800b27c:    f7ff0020     ...    DCD    4160684064
        0x0800b280:    7978ffb7    ..xy    DCD    2037972919
        0x0800b284:    7978b1b0    ..xy    DCD    2037952944
        0x0800b288:    68e8b910    ...h    DCD    1760082192
        0x0800b28c:    74aeb900    ...t    DCD    1957607680
        0x0800b290:    b91868a8    .h..    DCD    3105384616
        0x0800b294:    00206a79    yj .    DCD    2124409
        0x0800b298:    47886b89    .k.G    DCD    1200122761
        0x0800b29c:    68a8b144    D..h    DCD    1755885892
        0x0800b2a0:    7ca8b940    @..|    DCD    2091432256
        0x0800b2a4:    0020b930    0. .    DCD    2144560
        0x0800b2a8:    40f0e8bd    ...@    DCD    1089530045
        0x0800b2ac:    b8e6f000    ....    DCD    3102142464
        0x0800b2b0:    fae2f000    ....    DCD    4209176576
        0x0800b2b4:    0000bdf0    ....    DCD    48624
        0x0800b2b8:    20000378    x..     DCD    536871800
        0x0800b2bc:    22244b5e    ^K$"    DCD    572803934
        0x0800b2c0:    3202fb00    ...2    DCD    839056128
        0x0800b2c4:    4a0471d1    .q.J    DCD    1241805265
        0x0800b2c8:    6a126812    .h.j    DCD    1779591186
        0x0800b2cc:    00004710    .G..    DCD    18192
        0x0800b2d0:    60084901    .I.`    DCD    1611155713
        0x0800b2d4:    00004770    pG..    DCD    18288
        0x0800b2d8:    2000039c    ...     DCD    536871836
        0x0800b2dc:    0004b570    p...    DCD    308592
        0x0800b2e0:    0016000d    ....    DCD    1441805
        0x0800b2e4:    2100220c    .".!    DCD    553656844
        0x0800b2e8:    fcdaf000    ....    DCD    4242206720
        0x0800b2ec:    6065482e    .He`    DCD    1617250350
        0x0800b2f0:    680160a6    .`.h    DCD    1744920742
        0x0800b2f4:    e000000a    ....    DCD    3758096394
        0x0800b2f8:    b11a6812    .h..    DCD    2971297810
        0x0800b2fc:    d1fb42a2    .B..    DCD    3522904738
        0x0800b300:    bd702001    . p.    DCD    3178242049
        0x0800b304:    60046021    !`.`    DCD    1610899489
        0x0800b308:    bd702000    . p.    DCD    3178242048
        0x0800b30c:    4c0cb530    0..L    DCD    1275901232
        0x0800b310:    79e02500    .%.y    DCD    2044732672
        0x0800b314:    f7ff7265    er..    DCD    4160713317
        0x0800b318:    4a47fdcd    ..GJ    DCD    1246232013
        0x0800b31c:    e0042001    . ..    DCD    3758366721
        0x0800b320:    fb002124    $!..    DCD    4211089700
        0x0800b324:    1c402101    .!@.    DCD    473964801
        0x0800b328:    782171cd    .q!x    DCD    2015457741
        0x0800b32c:    dbf74288    .B..    DCD    3690414728
        0x0800b330:    211079e0    .y.!    DCD    554727904
        0x0800b334:    f0514001    .@Q.    DCD    4031856641
        0x0800b338:    e8bd0008    ....    DCD    3904700424
        0x0800b33c:    e00f4030    0@..    DCD    3759095856
        0x0800b340:    20000378    x..     DCD    536871800
        0x0800b344:    78004817    .H.x    DCD    2013284375
        0x0800b348:    00004770    pG..    DCD    18288
        0x0800b34c:    78004815    .H.x    DCD    2013284373
        0x0800b350:    0001f050    P...    DCD    127056
        0x0800b354:    0000e004    ....    DCD    57348
        0x0800b358:    78004812    .H.x    DCD    2013284370
        0x0800b35c:    00fef010    ....    DCD    16707600
        0x0800b360:    4c29b570    p.)L    DCD    1277801840
        0x0800b364:    79e00005    ...y    DCD    2044723205
        0x0800b368:    d01942a8    .B..    DCD    3491316392
        0x0800b36c:    6806480e    .H.h    DCD    1745242126
        0x0800b370:    6872e006    ..rh    DCD    1752358918
        0x0800b374:    bf1e0010    ....    DCD    3206414352
        0x0800b378:    68b04629    )F.h    DCD    1756382761
        0x0800b37c:    68364790    .G6h    DCD    1748387728
        0x0800b380:    d1f62e00    ....    DCD    3522571776
        0x0800b384:    79e071e5    .q.y    DCD    2044752357
        0x0800b388:    d5090780    ....    DCD    3574138752
        0x0800b38c:    e0032501    .%..    DCD    3758302465
        0x0800b390:    f83cf000    ..<.    DCD    4164743168
        0x0800b394:    b2ed1c6d    m...    DCD    3001883757
        0x0800b398:    00287821    !x(.    DCD    2652193
        0x0800b39c:    d3f74288    .B..    DCD    3556197000
        0x0800b3a0:    0000bd70    p...    DCD    48496
        0x0800b3a4:    2000037f    ...     DCD    536871807
        0x0800b3a8:    200003a4    ...     DCD    536871844
        0x0800b3ac:    21244a22    "J$!    DCD    556026402
        0x0800b3b0:    2001fb00    ...     DCD    537000704
        0x0800b3b4:    477069c0    .ipG    DCD    1198549440
        0x0800b3b8:    20400002    ..@     DCD    541065218
        0x0800b3bc:    d1042903    .)..    DCD    3506710787
        0x0800b3c0:    d2114282    .B..    DCD    3524346498
        0x0800b3c4:    d1fb0840    @...    DCD    3522889792
        0x0800b3c8:    2a404770    pG@*    DCD    708855664
        0x0800b3cc:    2a20d20c    .. *    DCD    706793996
        0x0800b3d0:    2020bf24    $.      DCD    539016996
        0x0800b3d4:    2a104770    pG.*    DCD    705709936
        0x0800b3d8:    2010bf24    $..     DCD    537968420
        0x0800b3dc:    2a084770    pG.*    DCD    705185648
        0x0800b3e0:    2008bf24    $..     DCD    537444132
        0x0800b3e4:    20004770    pG.     DCD    536889200
        0x0800b3e8:    00004770    pG..    DCD    18288
        0x0800b3ec:    b5104806    .H..    DCD    3037743110
        0x0800b3f0:    1c617844    Dxa.    DCD    476149828
        0x0800b3f4:    b2c97041    Ap..    DCD    2999545921
        0x0800b3f8:    bf242902    .)$.    DCD    3206818050
        0x0800b3fc:    f0002007    . ..    DCD    4026540039
        0x0800b400:    0020f851    Q. .    DCD    2160721
        0x0800b404:    0000bd10    ....    DCD    48400
        0x0800b408:    20000378    x..     DCD    536871800
        0x0800b40c:    21244a0a    .J$!    DCD    556026378
        0x0800b410:    2101fb00    ...!    DCD    553777920
        0x0800b414:    71ca2200    .".q    DCD    1909072384
        0x0800b418:    61ca608a    .`.a    DCD    1640652938
        0x0800b41c:    794b620a    .bKy    DCD    2034983434
        0x0800b420:    bf48061b    ..H.    DCD    3209168411
        0x0800b424:    f000740a    .t..    DCD    4026561546
        0x0800b428:    0000b829    )...    DCD    47145
        0x0800b42c:    22244b02    .K$"    DCD    572803842
        0x0800b430:    3002fb00    ...0    DCD    805501696
        0x0800b434:    47706101    .apG    DCD    1198547201
        0x0800b438:    200002e8    ...     DCD    536871656
        0x0800b43c:    2400b510    ...$    DCD    604026128
        0x0800b440:    eb104817    .H..    DCD    3943712791
        0x0800b444:    f7fe00c4    ....    DCD    4160618692
        0x0800b448:    1c64fb4d    M.d.    DCD    476379981
        0x0800b44c:    d3f72c04    .,..    DCD    3556191236
        0x0800b450:    0000bd10    ....    DCD    48400
        0x0800b454:    b5004808    .H..    DCD    3036694536
        0x0800b458:    1e497841    AxI.    DCD    508131393
        0x0800b45c:    06097041    Ap..    DCD    101281857
        0x0800b460:    f7febf08    ....    DCD    4160667400
        0x0800b464:    bd00fc42    B...    DCD    3170958402
        0x0800b468:    f7feb500    ....    DCD    4160664832
        0x0800b46c:    4802fc44    D..H    DCD    1208155204
        0x0800b470:    1c497841    AxI.    DCD    474576961
        0x0800b474:    bd007041    Ap..    DCD    3170922561
        0x0800b478:    20000178    x..     DCD    536871288
        0x0800b47c:    eb114908    .I..    DCD    3943778568
        0x0800b480:    f7fe00c0    ....    DCD    4160618688
        0x0800b484:    0000bb33    3...    DCD    47923
        0x0800b488:    eb114905    .I..    DCD    3943778565
        0x0800b48c:    f7fe00c0    ....    DCD    4160618688
        0x0800b490:    0000bb7b    {...    DCD    47995
        0x0800b494:    1c494a02    .JI.    DCD    474565122
        0x0800b498:    00c0eb12    ....    DCD    12643090
        0x0800b49c:    bb8af7fe    ....    DCD    3146446846
        0x0800b4a0:    200003a8    ...     DCD    536871848
        0x0800b4a4:    d1fd2800    .(..    DCD    3523028992
        0x0800b4a8:    00004770    pG..    DCD    18288
        0x0800b4ac:    60032300    .#.`    DCD    1610818304
        0x0800b4b0:    60426081    .`B`    DCD    1614962817
        0x0800b4b4:    00004770    pG..    DCD    18288
        0x0800b4b8:    68436802    .hCh    DCD    1749248002
        0x0800b4bc:    d205429a    .B..    DCD    3523560090
        0x0800b4c0:    54996883    .h.T    DCD    1419339907
        0x0800b4c4:    1c496801    .hI.    DCD    474572801
        0x0800b4c8:    47706001    .`pG    DCD    1198546945
        0x0800b4cc:    f7ff2004    . ..    DCD    4160692228
        0x0800b4d0:    0000bfe9    ....    DCD    49129
        0x0800b4d4:    0004b530    0...    DCD    308528
        0x0800b4d8:    b2c9000d    ....    DCD    2999517197
        0x0800b4dc:    ffecf7ff    ....    DCD    4293720063
        0x0800b4e0:    00200a29    ). .    DCD    2099753
        0x0800b4e4:    4030e8bd    ..0@    DCD    1076947133
        0x0800b4e8:    0000e7e6    ....    DCD    59366
        0x0800b4ec:    4cb8b5f7    ...L    DCD    1287173623
        0x0800b4f0:    f45fb990    .._.    DCD    4099914128
        0x0800b4f4:    46687280    .rhF    DCD    1181250176
        0x0800b4f8:    f7ff0021    !...    DCD    4160684065
        0x0800b4fc:    2104ffd7    ...!    DCD    553975767
        0x0800b500:    f7ff4668    hF..    DCD    4160702056
        0x0800b504:    2103ffd9    ...!    DCD    553910233
        0x0800b508:    f7ff4668    hF..    DCD    4160702056
        0x0800b50c:    4920ffd5    .. I    DCD    1226899413
        0x0800b510:    f7ff4668    hF..    DCD    4160702056
        0x0800b514:    e039ffdf    ..9.    DCD    3761897439
        0x0800b518:    d0062801    .(..    DCD    3490064385
        0x0800b51c:    d0082802    .(..    DCD    3490195458
        0x0800b520:    d0092803    .(..    DCD    3490260995
        0x0800b524:    d00b28ed    .(..    DCD    3490392301
        0x0800b528:    f7fde00c    ....    DCD    4160610316
        0x0800b52c:    0005ff23    #...    DCD    392995
        0x0800b530:    f7fde007    ....    DCD    4160610311
        0x0800b534:    e7faff23    #...    DCD    3891986211
        0x0800b538:    ff24f7fd    ..$.    DCD    4280612861
        0x0800b53c:    e0000005    ....    DCD    3758096389
        0x0800b540:    b90da514    ....    DCD    3104679188
        0x0800b544:    bdfe2000    . ..    DCD    3187548160
        0x0800b548:    26000028    (..&    DCD    637534248
        0x0800b54c:    e0002700    .'..    DCD    3758106368
        0x0800b550:    00011c7f    ....    DCD    72831
        0x0800b554:    1c407809    .x@.    DCD    473987081
        0x0800b558:    d1f92900    .)..    DCD    3522767104
        0x0800b55c:    7280f45f    _..r    DCD    1921053791
        0x0800b560:    46680021    !.hF    DCD    1181220897
        0x0800b564:    ffa2f7ff    ....    DCD    4288870399
        0x0800b568:    1c890079    y...    DCD    478740601
        0x0800b56c:    4668b2c9    ..hF    DCD    1181266633
        0x0800b570:    ffa2f7ff    ....    DCD    4288870399
        0x0800b574:    46682103    .!hF    DCD    1181229315
        0x0800b578:    ff9ef7ff    ....    DCD    4288608255
        0x0800b57c:    5da9e004    ...]    DCD    1571414020
        0x0800b580:    1c764668    hFv.    DCD    477513320
        0x0800b584:    ffa6f7ff    ....    DCD    4289132543
        0x0800b588:    d3f842be    .B..    DCD    3556262590
        0x0800b58c:    bdfe0020     ...    DCD    3187540000
        0x0800b590:    00000409    ....    DCD    1033
        0x0800b594:    00000000    ....    DCD    0
        0x0800b598:    b5004903    .I..    DCD    3036694787
        0x0800b59c:    6bc96809    .h.k    DCD    1808361481
        0x0800b5a0:    bf18000a    ....    DCD    3206021130
        0x0800b5a4:    bd004788    .G..    DCD    3170912136
        0x0800b5a8:    2000039c    ...     DCD    536871836
        0x0800b5ac:    21002201    .".!    DCD    553656833
        0x0800b5b0:    f7ff2001    . ..    DCD    4160692225
        0x0800b5b4:    0000bd37    7...    DCD    48439
        0x0800b5b8:    0002b5f0    ....    DCD    177648
        0x0800b5bc:    78d37890    .x.x    DCD    2027124880
        0x0800b5c0:    49bb000c    ...I    DCD    1236992012
        0x0800b5c4:    ea50b2e6    ..P.    DCD    3931157222
        0x0800b5c8:    6a4d2003    . Mj    DCD    1783439363
        0x0800b5cc:    79d3d104    ...y    DCD    2043924740
        0x0800b5d0:    ea507990    .yP.    DCD    3931142544
        0x0800b5d4:    d0022003    . ..    DCD    3489800195
        0x0800b5d8:    47806a68    hj.G    DCD    1199598184
        0x0800b5dc:    79c8bdf0    ...y    DCD    2043198960
        0x0800b5e0:    d5f90740    @...    DCD    3589867328
        0x0800b5e4:    78127910    .y.x    DCD    2014476560
        0x0800b5e8:    079279c9    .y..    DCD    127039945
        0x0800b5ec:    07890f92    ....    DCD    126422930
        0x0800b5f0:    b122d414    ..".    DCD    2971849748
        0x0800b5f4:    d0ef2a01    .*..    DCD    3505334785
        0x0800b5f8:    d0032a02    .*..    DCD    3489868290
        0x0800b5fc:    f7ffbdf0    ....    DCD    4160732656
        0x0800b600:    bdf0ffd5    ....    DCD    3186687957
        0x0800b604:    fc30f7ff    ..0.    DCD    4231067647
        0x0800b608:    d1e50007    ....    DCD    3521445895
        0x0800b60c:    2c004899    .H.,    DCD    738216089
        0x0800b610:    2100bf07    ...!    DCD    553697031
        0x0800b614:    210171c1    .q.!    DCD    553742785
        0x0800b618:    e7f071c1    .q..    DCD    3891294657
        0x0800b61c:    d0ee2a00    .*..    DCD    3505269248
        0x0800b620:    d1d92a02    .*..    DCD    3520670210
        0x0800b624:    fc20f7ff    .. .    DCD    4230019071
        0x0800b628:    2fff0007    .../    DCD    805240839
        0x0800b62c:    0031d0d4    ..1.    DCD    3264724
        0x0800b630:    fe44f7ff    ..D.    DCD    4265932799
        0x0800b634:    d1e22e00    ....    DCD    3521261056
        0x0800b638:    f7ff0038    8...    DCD    4160684088
        0x0800b63c:    0038ffad    ..8.    DCD    3735469
        0x0800b640:    fee4f7ff    ....    DCD    4276418559
        0x0800b644:    0000e7db    ....    DCD    59355
        0x0800b648:    43f7e92d    -..C    DCD    1140320557
        0x0800b64c:    f45f4860    `H_.    DCD    4099885152
        0x0800b650:    24007280    .r.$    DCD    604009088
        0x0800b654:    46414680    .FAF    DCD    1178683008
        0x0800b658:    f7ff4668    hF..    DCD    4160702056
        0x0800b65c:    2109ff27    '..!    DCD    554303271
        0x0800b660:    f7ff4668    hF..    DCD    4160702056
        0x0800b664:    2102ff29    )..!    DCD    553844521
        0x0800b668:    f7ff4668    hF..    DCD    4160702056
        0x0800b66c:    2100ff25    %..!    DCD    553713445
        0x0800b670:    f7ff4668    hF..    DCD    4160702056
        0x0800b674:    488eff2f    /..H    DCD    1217330991
        0x0800b678:    f8994681    .F..    DCD    4170794625
        0x0800b67c:    46681001    ..hF    DCD    1181224961
        0x0800b680:    ff1af7ff    ....    DCD    4279957503
        0x0800b684:    46682101    .!hF    DCD    1181229313
        0x0800b688:    ff16f7ff    ....    DCD    4279695359
        0x0800b68c:    46682100    .!hF    DCD    1181229312
        0x0800b690:    ff12f7ff    ....    DCD    4279433215
        0x0800b694:    466821c0    .!hF    DCD    1181229504
        0x0800b698:    ff0ef7ff    ....    DCD    4279171071
        0x0800b69c:    7801484d    MH.x    DCD    2013349965
        0x0800b6a0:    f7ff4668    hF..    DCD    4160702056
        0x0800b6a4:    e000ff09    ....    DCD    3758161673
        0x0800b6a8:    f8991c64    d...    DCD    4170783844
        0x0800b6ac:    42840001    ...B    DCD    1115947009
        0x0800b6b0:    8087f280    ....    DCD    2156393088
        0x0800b6b4:    2028f8d9    ..(     DCD    539556057
        0x0800b6b8:    4669b11a    ..iF    DCD    1181331738
        0x0800b6bc:    68520020     .Rh    DCD    1750204448
        0x0800b6c0:    20144790    .G.     DCD    538199952
        0x0800b6c4:    fb042600    .&..    DCD    4211353088
        0x0800b6c8:    f8359500    ..5.    DCD    4164261120
        0x0800b6cc:    e0020f0c    ....    DCD    3758231308
        0x0800b6d0:    bf4807c1    ..H.    DCD    3209168833
        0x0800b6d4:    08401c76    v.@.    DCD    138419318
        0x0800b6d8:    d1f92800    .(..    DCD    3522766848
        0x0800b6dc:    46682109    .!hF    DCD    1181229321
        0x0800b6e0:    feeaf7ff    ....    DCD    4276811775
        0x0800b6e4:    46682104    .!hF    DCD    1181229316
        0x0800b6e8:    fee6f7ff    ....    DCD    4276549631
        0x0800b6ec:    4668b2e1    ..hF    DCD    1181266657
        0x0800b6f0:    fee2f7ff    ....    DCD    4276287487
        0x0800b6f4:    46682100    .!hF    DCD    1181229312
        0x0800b6f8:    fedef7ff    ....    DCD    4276025343
        0x0800b6fc:    4668b2f1    ..hF    DCD    1181266673
        0x0800b700:    fedaf7ff    ....    DCD    4275763199
        0x0800b704:    466878a9    .xhF    DCD    1181251753
        0x0800b708:    fed6f7ff    ....    DCD    4275501055
        0x0800b70c:    466878e9    .xhF    DCD    1181251817
        0x0800b710:    fed2f7ff    ....    DCD    4275238911
        0x0800b714:    46687929    )yhF    DCD    1181251881
        0x0800b718:    fecef7ff    ....    DCD    4274976767
        0x0800b71c:    46682100    .!hF    DCD    1181229312
        0x0800b720:    fecaf7ff    ....    DCD    4274714623
        0x0800b724:    000868a9    .h..    DCD    551081
        0x0800b728:    4668bf1c    ..hF    DCD    1181269788
        0x0800b72c:    26014788    .G.&    DCD    637618056
        0x0800b730:    2101e005    ...!    DCD    553771013
        0x0800b734:    4668b2c9    ..hF    DCD    1181266633
        0x0800b738:    febef7ff    ....    DCD    4273928191
        0x0800b73c:    f8991c76    v...    DCD    4170783862
        0x0800b740:    42860000    ...B    DCD    1116078080
        0x0800b744:    8828dab0    ..(.    DCD    2284378800
        0x0800b748:    40b12101    .!.@    DCD    1085350145
        0x0800b74c:    d0f54208    .B..    DCD    3505734152
        0x0800b750:    46682107    .!hF    DCD    1181229319
        0x0800b754:    feb0f7ff    ....    DCD    4273010687
        0x0800b758:    46682105    .!hF    DCD    1181229317
        0x0800b75c:    feacf7ff    ....    DCD    4272748543
        0x0800b760:    20244944    DI$     DCD    539248964
        0x0800b764:    1700fb06    ....    DCD    385940230
        0x0800b768:    79794668    hFyy    DCD    2037991016
        0x0800b76c:    fea4f7ff    ....    DCD    4272224255
        0x0800b770:    46687939    9yhF    DCD    1181251897
        0x0800b774:    fea0f7ff    ....    DCD    4271962111
        0x0800b778:    28418838    8.A(    DCD    675383352
        0x0800b77c:    2040bf24    $.@     DCD    541114148
        0x0800b780:    88398038    8.9.    DCD    2285469752
        0x0800b784:    f7ff4668    hF..    DCD    4160702056
        0x0800b788:    493afea5    ..:I    DCD    1228603045
        0x0800b78c:    fb062024    $ ..    DCD    4211482660
        0x0800b790:    79011000    ...y    DCD    2030112768
        0x0800b794:    d00c2901    .)..    DCD    3490457857
        0x0800b798:    d1ca2903    .)..    DCD    3519686915
        0x0800b79c:    f45f8841    A._.    DCD    4099901505
        0x0800b7a0:    42817080    .p.B    DCD    1115779200
        0x0800b7a4:    21ffd301    ...!    DCD    570413825
        0x0800b7a8:    2900e7c4    ...)    DCD    687925188
        0x0800b7ac:    2108d1c2    ...!    DCD    554226114
        0x0800b7b0:    8841e7c0    ..A.    DCD    2286020544
        0x0800b7b4:    d3012911    .)..    DCD    3540068625
        0x0800b7b8:    e7bb2110    .!..    DCD    3887800592
        0x0800b7bc:    d1b92900    .)..    DCD    3518572800
        0x0800b7c0:    9800e7b7    ....    DCD    2550196151
        0x0800b7c4:    0002f888    ....    DCD    194696
        0x0800b7c8:    e8bd4640    @F..    DCD    3904718400
        0x0800b7cc:    000083fe    ....    DCD    33790
        0x0800b7d0:    200003c8    ...     DCD    536871880
        0x0800b7d4:    20000068    h..     DCD    536871016
        0x0800b7d8:    4d35b537    7.5M    DCD    1295365431
        0x0800b7dc:    f45f4c24    $L_.    DCD    4099886116
        0x0800b7e0:    46687280    .rhF    DCD    1181250176
        0x0800b7e4:    f7ff0021    !...    DCD    4160684065
        0x0800b7e8:    2112fe61    a..!    DCD    554892897
        0x0800b7ec:    f7ff4668    hF..    DCD    4160702056
        0x0800b7f0:    2101fe63    c..!    DCD    553778787
        0x0800b7f4:    f7ff4668    hF..    DCD    4160702056
        0x0800b7f8:    f45ffe5f    _._.    DCD    4099931743
        0x0800b7fc:    46687100    .qhF    DCD    1181249792
        0x0800b800:    fe68f7ff    ..h.    DCD    4268292095
        0x0800b804:    466878a9    .xhF    DCD    1181251753
        0x0800b808:    fe56f7ff    ..V.    DCD    4267112447
        0x0800b80c:    466878e9    .xhF    DCD    1181251817
        0x0800b810:    fe52f7ff    ..R.    DCD    4266850303
        0x0800b814:    46687929    )yhF    DCD    1181251881
        0x0800b818:    fe4ef7ff    ..N.    DCD    4266588159
        0x0800b81c:    88014815    .H..    DCD    2281785365
        0x0800b820:    b2c94668    hF..    DCD    2999535208
        0x0800b824:    fe48f7ff    ..H.    DCD    4266194943
        0x0800b828:    fd9cf7fd    ....    DCD    4254922749
        0x0800b82c:    46680001    ..hF    DCD    1181220865
        0x0800b830:    fe50f7ff    ..P.    DCD    4266719231
        0x0800b834:    fd9af7fd    ....    DCD    4254791677
        0x0800b838:    46680001    ..hF    DCD    1181220865
        0x0800b83c:    fe4af7ff    ..J.    DCD    4266326015
        0x0800b840:    7180f45f    _..q    DCD    1904276575
        0x0800b844:    f7ff4668    hF..    DCD    4160702056
        0x0800b848:    2101fe45    E..!    DCD    553778757
        0x0800b84c:    f7ff4668    hF..    DCD    4160702056
        0x0800b850:    2102fe33    3..!    DCD    553844275
        0x0800b854:    f7ff4668    hF..    DCD    4160702056
        0x0800b858:    2103fe2f    /..!    DCD    553909807
        0x0800b85c:    f7ff4668    hF..    DCD    4160702056
        0x0800b860:    2101fe2b    +..!    DCD    553778731
        0x0800b864:    f7ff4668    hF..    DCD    4160702056
        0x0800b868:    0020fe27    '. .    DCD    2162215
        0x0800b86c:    0000bd3e    >...    DCD    48446
        0x0800b870:    200003c8    ...     DCD    536871880
        0x0800b874:    200002e8    ...     DCD    536871656
        0x0800b878:    4c0db530    0..L    DCD    1275966768
        0x0800b87c:    06007a60    `z..    DCD    100694624
        0x0800b880:    7a60d515    ..`z    DCD    2053166357
        0x0800b884:    0e400640    @.@.    DCD    239076928
        0x0800b888:    7a657260    `rez    DCD    2053468768
        0x0800b88c:    00286a61    aj(.    DCD    2648673
        0x0800b890:    478869c9    .i.G    DCD    1200122313
        0x0800b894:    2d0079e0    .y.-    DCD    755005920
        0x0800b898:    f050d005    ..P.    DCD    4031827973
        0x0800b89c:    e8bd0004    ....    DCD    3904700420
        0x0800b8a0:    f7ff4030    0@..    DCD    4160700464
        0x0800b8a4:    f010bd5d    ]...    DCD    4027628893
        0x0800b8a8:    f7ff00fb    ....    DCD    4160684283
        0x0800b8ac:    bd30fd59    Y.0.    DCD    3174104409
        0x0800b8b0:    20000378    x..     DCD    536871800
        0x0800b8b4:    46f7e92d    -..F    DCD    1190652205
        0x0800b8b8:    00064d9f    .M..    DCD    413087
        0x0800b8bc:    786f2400    .$ox    DCD    2020549632
        0x0800b8c0:    2014e00b    ...     DCD    538238987
        0x0800b8c4:    5000fb04    ...P    DCD    1342241540
        0x0800b8c8:    6901300c    .0.i    DCD    1761685516
        0x0800b8cc:    d0030008    ....    DCD    3489857544
        0x0800b8d0:    47880030    0..G    DCD    1200095280
        0x0800b8d4:    d0332800    .(3.    DCD    3493013504
        0x0800b8d8:    42bc1c64    d..B    DCD    1119624292
        0x0800b8dc:    6a6cd3f1    ..lj    DCD    1785517041
        0x0800b8e0:    78309402    ..0x    DCD    2016449538
        0x0800b8e4:    f0194681    .F..    DCD    4028188289
        0x0800b8e8:    d0030060    `...    DCD    3489857632
        0x0800b8ec:    f0002820     (..    DCD    4026542112
        0x0800b8f0:    e10c8111    ....    DCD    3775693073
        0x0800b8f4:    78b078f1    .x.x    DCD    2024831217
        0x0800b8f8:    1001f88d    ....    DCD    268564621
        0x0800b8fc:    79f17933    3y.y    DCD    2045868339
        0x0800b900:    f88d79b2    .y..    DCD    4170021298
        0x0800b904:    78733004    .0sx    DCD    2020814852
        0x0800b908:    2b0b4682    .F.+    DCD    722159234
        0x0800b90c:    e8dfd8f1    ....    DCD    3906984177
        0x0800b910:    000cf013    ....    DCD    847891
        0x0800b914:    00fe004e    N...    DCD    16646222
        0x0800b918:    00fe0053    S...    DCD    16646227
        0x0800b91c:    006e0055    U.n.    DCD    7209045
        0x0800b920:    008f00fe    ....    DCD    9371902
        0x0800b924:    00ca009a    ....    DCD    13238426
        0x0800b928:    f89d00de    ....    DCD    4171038942
        0x0800b92c:    ea503001    .0P.    DCD    3931123713
        0x0800b930:    d1032003    . ..    DCD    3506642947
        0x0800b934:    2001ea52    R..     DCD    536996434
        0x0800b938:    d0022802    .(..    DCD    3489802242
        0x0800b93c:    47806a60    `j.G    DCD    1199598176
        0x0800b940:    79e8e0f8    ...y    DCD    2045305080
        0x0800b944:    d5f90740    @...    DCD    3589867328
        0x0800b948:    0004f89d    ....    DCD    325789
        0x0800b94c:    464979ea    .yIF    DCD    1179220458
        0x0800b950:    0f890789    ....    DCD    260638601
        0x0800b954:    d40b0792    ....    DCD    3557492626
        0x0800b958:    d9022901    .)..    DCD    3640797441
        0x0800b95c:    d0041e89    ....    DCD    3489930889
        0x0800b960:    2000e0e8    ...     DCD    536928488
        0x0800b964:    0002f88d    ....    DCD    194701
        0x0800b968:    2800e017    ...(    DCD    671146007
        0x0800b96c:    e7e5d0f9    ....    DCD    3890598137
        0x0800b970:    2901b121    !..)    DCD    687976737
        0x0800b974:    2902d0f5    ...)    DCD    688050421
        0x0800b978:    e00ed004    ....    DCD    3759067140
        0x0800b97c:    f88d2001    . ..    DCD    4169998337
        0x0800b980:    e00a0002    ....    DCD    3758751746
        0x0800b984:    fa70f7ff    ..p.    DCD    4201707519
        0x0800b988:    d0d728ff    .(..    DCD    3503761663
        0x0800b98c:    21244a6b    kJ$!    DCD    556026475
        0x0800b990:    2001fb00    ...     DCD    537000704
        0x0800b994:    f88d79c0    .y..    DCD    4170021312
        0x0800b998:    20000002    ...     DCD    536870914
        0x0800b99c:    0003f88d    ....    DCD    260237
        0x0800b9a0:    21022200    .".!    DCD    553787904
        0x0800b9a4:    1c80a800    ....    DCD    478193664
        0x0800b9a8:    fb3cf7ff    ..<.    DCD    4215076863
        0x0800b9ac:    2100e0c2    ...!    DCD    553705666
        0x0800b9b0:    f7ff0030    0...    DCD    4160684080
        0x0800b9b4:    e0bdfe01    ....    DCD    3770547713
        0x0800b9b8:    e7f92101    .!..    DCD    3891863809
        0x0800b9bc:    79a80006    ...y    DCD    2041053190
        0x0800b9c0:    69e1b178    x..i    DCD    1776398712
        0x0800b9c4:    47880030    0..G    DCD    1200095280
        0x0800b9c8:    2e0079e8    .y..    DCD    771783144
        0x0800b9cc:    f050d002    ..P.    DCD    4031827970
        0x0800b9d0:    e0010004    ....    DCD    3758161924
        0x0800b9d4:    00fbf010    ....    DCD    16510992
        0x0800b9d8:    fcc2f7ff    ....    DCD    4240635903
        0x0800b9dc:    fde6f7ff    ....    DCD    4259772415
        0x0800b9e0:    f7ffe0a8    ....    DCD    4160741544
        0x0800b9e4:    f056fde3    ..V.    DCD    4032232931
        0x0800b9e8:    72680080    ..hr    DCD    1919418496
        0x0800b9ec:    ea52e0a2    ..R.    DCD    3931300002
        0x0800b9f0:    f89d2401    .$..    DCD    4171047937
        0x0800b9f4:    26001001    ...&    DCD    637538305
        0x0800b9f8:    29012000    . .)    DCD    687939584
        0x0800b9fc:    2902d004    ...)    DCD    688050180
        0x0800ba00:    2903d005    ...)    DCD    688115717
        0x0800ba04:    e009d007    ....    DCD    3758739463
        0x0800ba08:    fee6f7ff    ....    DCD    4276549631
        0x0800ba0c:    f7ffe006    ....    DCD    4160741382
        0x0800ba10:    7886fe1b    ...x    DCD    2022112795
        0x0800ba14:    4650e002    ..PF    DCD    1179705346
        0x0800ba18:    fd68f7ff    ..h.    DCD    4251514879
        0x0800ba1c:    d03f2800    .(?.    DCD    3493799936
        0x0800ba20:    7806b906    ...x    DCD    2013706502
        0x0800ba24:    bf2842a6    .B(.    DCD    3207086758
        0x0800ba28:    22014626    &F."    DCD    570508838
        0x0800ba2c:    e7bb0031    1...    DCD    3887792177
        0x0800ba30:    fa3af7ff    ..:.    DCD    4198168575
        0x0800ba34:    f88d2200    ."..    DCD    4169998848
        0x0800ba38:    21010001    ...!    DCD    553713665
        0x0800ba3c:    1c40a800    ..@.    DCD    473999360
        0x0800ba40:    faf0f7ff    ....    DCD    4210096127
        0x0800ba44:    f88de076    v...    DCD    4170047606
        0x0800ba48:    6a6c0000    ..lj    DCD    1785462784
        0x0800ba4c:    d11e2801    .(..    DCD    3508414465
        0x0800ba50:    fdacf7ff    ....    DCD    4255971327
        0x0800ba54:    260179e8    .y.&    DCD    637630952
        0x0800ba58:    0002f050    P...    DCD    192592
        0x0800ba5c:    fc80f7ff    ....    DCD    4236310527
        0x0800ba60:    2100e00a    ...!    DCD    553705482
        0x0800ba64:    fc2af7ff    ..*.    DCD    4230674431
        0x0800ba68:    f7ff0030    0...    DCD    4160684080
        0x0800ba6c:    0030fd95    ..0.    DCD    3210645
        0x0800ba70:    fcccf7ff    ....    DCD    4241291263
        0x0800ba74:    b2f61c76    v...    DCD    3002473590
        0x0800ba78:    00307829    )x0.    DCD    3176489
        0x0800ba7c:    d3f04288    .B..    DCD    3555738248
        0x0800ba80:    00106c22    "l..    DCD    1076258
        0x0800ba84:    4669d056    V.iF    DCD    1181339734
        0x0800ba88:    47902000    . .G    DCD    1200627712
        0x0800ba8c:    b938e052    R.8.    DCD    3107512402
        0x0800ba90:    fd8cf7ff    ....    DCD    4253874175
        0x0800ba94:    f01079e8    .y..    DCD    4027611624
        0x0800ba98:    f7ff00fd    ....    DCD    4160684285
        0x0800ba9c:    e7effc61    a...    DCD    3891264609
        0x0800baa0:    6a406a68    hj@j    DCD    1782606440
        0x0800baa4:    b908e74b    K...    DCD    3104368459
        0x0800baa8:    d0022a01    .*..    DCD    3489802753
        0x0800baac:    47806a60    `j.G    DCD    1199598176
        0x0800bab0:    79e8e040    @..y    DCD    2045304896
        0x0800bab4:    0006f010    ....    DCD    454672
        0x0800bab8:    d0012806    .(..    DCD    3489736710
        0x0800babc:    e73e6a60    `j>.    DCD    3879627360
        0x0800bac0:    f88d2000    . ..    DCD    4169998336
        0x0800bac4:    22000000    ..."    DCD    570425344
        0x0800bac8:    46682101    .!hF    DCD    1181229313
        0x0800bacc:    79e9e76c    l..y    DCD    2045372268
        0x0800bad0:    0106f011    ....    DCD    17231889
        0x0800bad4:    d0012906    .)..    DCD    3489736966
        0x0800bad8:    e7306a60    `j0.    DCD    3878709856
        0x0800badc:    f89d7869    ix..    DCD    4171069545
        0x0800bae0:    42912004    . .B    DCD    1116807172
        0x0800bae4:    2802d3f8    ...(    DCD    671273976
        0x0800bae8:    f7ffd2f6    ....    DCD    4160738038
        0x0800baec:    2401fd5f    _..$    DCD    604110175
        0x0800baf0:    42847828    (x.B    DCD    1115977768
        0x0800baf4:    2100da1e    ...!    DCD    553703966
        0x0800baf8:    f7ffb2e0    ....    DCD    4160729824
        0x0800bafc:    b2e0fbdf    ....    DCD    3001088991
        0x0800bb00:    fd4af7ff    ..J.    DCD    4249548799
        0x0800bb04:    f7ffb2e0    ....    DCD    4160729824
        0x0800bb08:    1c64fc81    ..d.    DCD    476380289
        0x0800bb0c:    9802e7f0    ....    DCD    2550327280
        0x0800bb10:    e7146a40    @j..    DCD    3876874816
        0x0800bb14:    e0002400    .$..    DCD    3758105600
        0x0800bb18:    42bc1c64    d..B    DCD    1119624292
        0x0800bb1c:    2014d2f7    ...     DCD    538235639
        0x0800bb20:    5000fb04    ...P    DCD    1342241540
        0x0800bb24:    68c1300c    .0.h    DCD    1757491212
        0x0800bb28:    d0f50008    ....    DCD    3505717256
        0x0800bb2c:    47880030    0..G    DCD    1200095280
        0x0800bb30:    d1f12800    .(..    DCD    3522242560
        0x0800bb34:    86f7e8bd    ....    DCD    2264393917
        0x0800bb38:    20000378    x..     DCD    536871800
        0x0800bb3c:    200002e8    ...     DCD    536871656
        0x0800bb40:    70116802    .h.p    DCD    1880188930
        0x0800bb44:    70510a09    ..Qp    DCD    1884359177
        0x0800bb48:    60021c92    ...`    DCD    1610751122
        0x0800bb4c:    00004770    pG..    DCD    18288
        0x0800bb50:    70116802    .h.p    DCD    1880188930
        0x0800bb54:    70510a09    ..Qp    DCD    1884359177
        0x0800bb58:    70910a09    ...p    DCD    1888553481
        0x0800bb5c:    70d10a09    ...p    DCD    1892747785
        0x0800bb60:    60021d12    ...`    DCD    1610751250
        0x0800bb64:    00004770    pG..    DCD    18288
        0x0800bb68:    0a097001    .p..    DCD    168390657
        0x0800bb6c:    0a097041    Ap..    DCD    168390721
        0x0800bb70:    0a097081    .p..    DCD    168390785
        0x0800bb74:    1f03f800    ....    DCD    520353792
        0x0800bb78:    00004770    pG..    DCD    18288
        0x0800bb7c:    78017842    Bx.x    DCD    2013362242
        0x0800bb80:    2102ea51    Q..!    DCD    553839185
        0x0800bb84:    78c07882    .x.x    DCD    2025879682
        0x0800bb88:    4102ea51    Q..A    DCD    1090710097
        0x0800bb8c:    6000ea51    Q..`    DCD    1610672721
        0x0800bb90:    00004770    pG..    DCD    18288
        0x0800bb94:    db032a01    .*..    DCD    3674417665
        0x0800bb98:    1b01f800    ....    DCD    453113856
        0x0800bb9c:    d1fb1e52    R...    DCD    3522895442
        0x0800bba0:    00004770    pG..    DCD    18288
        0x0800bba4:    0003b530    0...    DCD    242992
        0x0800bba8:    24002000    . .$    DCD    603987968
        0x0800bbac:    0029e001    ..).    DCD    2744321
        0x0800bbb0:    000d1c64    d...    DCD    859236
        0x0800bbb4:    004dd40b    ..M.    DCD    5100555
        0x0800bbb8:    d2f842ab    .B..    DCD    3539485355
        0x0800bbbc:    0040e007    ..@.    DCD    4251655
        0x0800bbc0:    bf24428b    .B$.    DCD    3206824587
        0x0800bbc4:    f0501a5b    [.P.    DCD    4031781467
        0x0800bbc8:    08490001    ..I.    DCD    139001857
        0x0800bbcc:    2c001e64    d..,    DCD    738205284
        0x0800bbd0:    b102d5f5    ....    DCD    2969753077
        0x0800bbd4:    bd306013    .`0.    DCD    3174064147
        0x0800bbd8:    466ab501    ..jF    DCD    1181398273
        0x0800bbdc:    ffe2f7ff    ....    DCD    4293064703
        0x0800bbe0:    bd029800    ....    DCD    3171063808
        0x0800bbe4:    e7dd2200    ."..    DCD    3890029056
        0x0800bbe8:    2800b500    ...(    DCD    671134976
        0x0800bbec:    4242d506    ..BB    DCD    1111676166
        0x0800bbf0:    f7ff0010    ....    DCD    4160684048
        0x0800bbf4:    0001fff7    ....    DCD    131063
        0x0800bbf8:    bd004248    HB..    DCD    3170910792
        0x0800bbfc:    eb04f85d    ]...    DCD    3942971485
        0x0800bc00:    0000e7f0    ....    DCD    59376
        0x0800bc04:    f7feb500    ....    DCD    4160664832
        0x0800bc08:    480df876    v..H    DCD    1208875126
        0x0800bc0c:    1c497841    AxI.    DCD    474576961
        0x0800bc10:    f0007041    Ap..    DCD    4026560577
        0x0800bc14:    f7fef81f    ....    DCD    4160682015
        0x0800bc18:    f7fdf9c5    ....    DCD    4160616901
        0x0800bc1c:    f7fefeaf    ....    DCD    4160683695
        0x0800bc20:    4808f8af    ...H    DCD    1208547503
        0x0800bc24:    4b094908    .I.K    DCD    1258899720
        0x0800bc28:    b4072202    ."..    DCD    3020366338
        0x0800bc2c:    f6004908    .I..    DCD    4127213832
        0x0800bc30:    22641068    h.d"    DCD    576983144
        0x0800bc34:    fedef7fd    ....    DCD    4276025341
        0x0800bc38:    f840f7fe    ..@.    DCD    4165007358
        0x0800bc3c:    bf00bd07    ....    DCD    3204496647
        0x0800bc40:    20000178    x..     DCD    536871288
        0x0800bc44:    20000644    D..     DCD    536872516
        0x0800bc48:    00000968    h...    DCD    2408
        0x0800bc4c:    08006a31    1j..    DCD    134244913
        0x0800bc50:    08009b9c    ....    DCD    134257564
        0x0800bc54:    47184b00    .K.G    DCD    1192774400
        0x0800bc58:    2000110d    ...     DCD    536875277
        0x0800bc5c:    0000e7fe    ....    DCD    59390
        0x0800bc60:    b828f000    ..(.    DCD    3089690624
        0x0800bc64:    e002b510    ....    DCD    3758273808
        0x0800bc68:    1c491c40    @.I.    DCD    474553408
        0x0800bc6c:    b14a1e52    R.J.    DCD    2974424658
        0x0800bc70:    780c7803    .x.x    DCD    2014083075
        0x0800bc74:    d0f742a3    .B..    DCD    3505865379
        0x0800bc78:    f05fd202    .._.    DCD    4032811522
        0x0800bc7c:    bd1030ff    .0..    DCD    3171954943
        0x0800bc80:    bd102001    . ..    DCD    3171950593
        0x0800bc84:    bd102000    . ..    DCD    3171950592
        0x0800bc88:    0003b510    ....    DCD    242960
        0x0800bc8c:    e0042a00    .*..    DCD    3758369280
        0x0800bc90:    4b01f811    ...K    DCD    1258420241
        0x0800bc94:    f8031e52    R...    DCD    4160953938
        0x0800bc98:    d1f94b01    .K..    DCD    3522775809
        0x0800bc9c:    0000bd10    ....    DCD    48400
        0x0800bca0:    0003b2c9    ....    DCD    242377
        0x0800bca4:    e0022a00    .*..    DCD    3758238208
        0x0800bca8:    1b01f803    ....    DCD    453113859
        0x0800bcac:    d1fb1e52    R...    DCD    3522895442
        0x0800bcb0:    00004770    pG..    DCD    18288
        0x0800bcb4:    46a64c01    .L.F    DCD    1185303553
        0x0800bcb8:    00004720     G..    DCD    18208
        0x0800bcbc:    080095d5    ....    DCD    134256085
        0x0800bcc0:    68014844    DH.h    DCD    1744914500
        0x0800bcc4:    d5040609    ....    DCD    3573810697
        0x0800bcc8:    4a63490a    .IcJ    DCD    1248020746
        0x0800bccc:    4a64600a    .`dJ    DCD    1248092170
        0x0800bcd0:    2100600a    .`.!    DCD    553672714
        0x0800bcd4:    1b0cf840    @...    DCD    453834816
        0x0800bcd8:    07406800    .h@.    DCD    121661440
        0x0800bcdc:    4861d408    ..aH    DCD    1214370824
        0x0800bce0:    f8404905    .I@.    DCD    4164962565
        0x0800bce4:    21061b04    ...!    DCD    554048260
        0x0800bce8:    1b04f840    @...    DCD    453310528
        0x0800bcec:    60014903    .I.`    DCD    1610696963
        0x0800bcf0:    bf004770    pG..    DCD    3204466544
        0x0800bcf4:    40022004    . .@    DCD    1073881092
        0x0800bcf8:    00005555    UU..    DCD    21845
        0x0800bcfc:    00000fff    ....    DCD    4095
        0x0800bd00:    4e16b5f0    ...N    DCD    1310111216
        0x0800bd04:    000d0004    ....    DCD    851972
        0x0800bd08:    f8b0f000    ....    DCD    4172345344
        0x0800bd0c:    1e406830    0h@.    DCD    507537456
        0x0800bd10:    d1214020     @!.    DCD    3508617248
        0x0800bd14:    ffd4f7ff    ....    DCD    4292147199
        0x0800bd18:    e0022702    .'..    DCD    3758237442
        0x0800bd1c:    1a2d6830    0h-.    DCD    439183408
        0x0800bd20:    2d011824    $..-    DCD    755046436
        0x0800bd24:    482bdb18    ..+H    DCD    1210833688
        0x0800bd28:    6007490d    .I.`    DCD    1611090189
        0x0800bd2c:    6801600c    .`.h    DCD    1744920588
        0x0800bd30:    0140f051    Q.@.    DCD    21033041
        0x0800bd34:    494c6001    .`LI    DCD    1229742081
        0x0800bd38:    4b484a4a    JJHK    DCD    1263028810
        0x0800bd3c:    680a6013    .`.h    DCD    1745510419
        0x0800bd40:    d4f907d3    ....    DCD    3573090259
        0x0800bd44:    43bb6803    .h.C    DCD    1136355331
        0x0800bd48:    f0126003    .`..    DCD    4027736067
        0x0800bd4c:    d0e50f14    ....    DCD    3504672532
        0x0800bd50:    60082014    . .`    DCD    1611145236
        0x0800bd54:    bdf02007    . ..    DCD    3186630663
        0x0800bd58:    bdf02000    . ..    DCD    3186630656
        0x0800bd5c:    2000008c    ...     DCD    536871052
        0x0800bd60:    40022014    . .@    DCD    1073881108
        0x0800bd64:    41f0e92d    -..A    DCD    1106307373
        0x0800bd68:    00140006    ....    DCD    1310726
        0x0800bd6c:    000f1c64    d...    DCD    990308
        0x0800bd70:    f880f000    ....    DCD    4169199616
        0x0800bd74:    f882f000    ....    DCD    4169330688
        0x0800bd78:    20000005    ...     DCD    536870917
        0x0800bd7c:    08644680    .Fd.    DCD    140789376
        0x0800bd80:    ff9ef7ff    ....    DCD    4288608255
        0x0800bd84:    49134838    8H.I    DCD    1226000440
        0x0800bd88:    22014b34    4K."    DCD    570510132
        0x0800bd8c:    f837600a    .`7.    DCD    4164378634
        0x0800bd90:    f8262b02    .+&.    DCD    4163250946
        0x0800bd94:    e0012b02    .+..    DCD    3758172930
        0x0800bd98:    60134a32    2J.`    DCD    1611876914
        0x0800bd9c:    07d26802    .h..    DCD    131229698
        0x0800bda0:    680ad4fa    ...h    DCD    1745540346
        0x0800bda4:    439a2301    .#.C    DCD    1134174977
        0x0800bda8:    6802600a    .`.h    DCD    1744986122
        0x0800bdac:    0f14f012    ....    DCD    253030418
        0x0800bdb0:    6802d005    ...h    DCD    1745014789
        0x0800bdb4:    0214f052    R...    DCD    34926674
        0x0800bdb8:    22046002    .`."    DCD    570712066
        0x0800bdbc:    1e644690    .Fd.    DCD    509888144
        0x0800bdc0:    0028d1e2    ..(.    DCD    2675170
        0x0800bdc4:    f85ef000    ..^.    DCD    4166971392
        0x0800bdc8:    f860f000    ..`.    DCD    4167102464
        0x0800bdcc:    e8bd4640    @F..    DCD    3904718400
        0x0800bdd0:    000081f0    ....    DCD    33264
        0x0800bdd4:    40022010    . .@    DCD    1073881104
        0x0800bdd8:    f000b500    ....    DCD    4026578176
        0x0800bddc:    481af84b    K..H    DCD    1209727051
        0x0800bde0:    6800491a    .I.h    DCD    1744849178
        0x0800bde4:    4288b280    ...B    DCD    1116254848
        0x0800bde8:    f7ffd127    '...    DCD    4160737575
        0x0800bdec:    4818ff69    i..H    DCD    1209597801
        0x0800bdf0:    4a1a4919    .I.J    DCD    1243236633
        0x0800bdf4:    491a6001    .`.I    DCD    1226465281
        0x0800bdf8:    1b08f840    @...    DCD    453572672
        0x0800bdfc:    f4516801    .hQ.    DCD    4098975745
        0x0800be00:    60017100    .q.`    DCD    1610707200
        0x0800be04:    f0516801    .hQ.    DCD    4031866881
        0x0800be08:    60010120     ..`    DCD    1610678560
        0x0800be0c:    f0516801    .hQ.    DCD    4031866881
        0x0800be10:    60010140    @..`    DCD    1610678592
        0x0800be14:    600a4913    .I.`    DCD    1611286803
        0x0800be18:    68094913    .I.h    DCD    1745438995
        0x0800be1c:    d4f907c9    ....    DCD    3573090249
        0x0800be20:    f47f6801    .h..    DCD    4101990401
        0x0800be24:    400a7200    .r.@    DCD    1074426368
        0x0800be28:    68016002    .`.h    DCD    1744920578
        0x0800be2c:    43912210    .".C    DCD    1133584912
        0x0800be30:    68016001    .`.h    DCD    1744920577
        0x0800be34:    0180f051    Q...    DCD    25227345
        0x0800be38:    48066001    .`.H    DCD    1208377345
        0x0800be3c:    b9087800    .x..    DCD    3104339968
        0x0800be40:    f828f000    ..(.    DCD    4163432448
        0x0800be44:    bf00bd00    ....    DCD    3204496640
        0x0800be48:    1ffff800    ....    DCD    536868864
        0x0800be4c:    00005aa5    .Z..    DCD    23205
        0x0800be50:    40022008    . .@    DCD    1073881096
        0x0800be54:    20000179    y..     DCD    536871289
        0x0800be58:    45670123    #.gE    DCD    1164378403
        0x0800be5c:    0000aaaa    ....    DCD    43690
        0x0800be60:    cdef89ab    ....    DCD    3455027627
        0x0800be64:    40003000    .0.@    DCD    1073754112
        0x0800be68:    4002200c    . .@    DCD    1073881100
        0x0800be6c:    47184b00    .K.G    DCD    1192774400
        0x0800be70:    08006189    .a..    DCD    134242697
        0x0800be74:    47184b00    .K.G    DCD    1192774400
        0x0800be78:    0800766f    ov..    DCD    134248047
        0x0800be7c:    47184b00    .K.G    DCD    1192774400
        0x0800be80:    08007919    .y..    DCD    134248729
        0x0800be84:    47184b00    .K.G    DCD    1192774400
        0x0800be88:    08007901    .y..    DCD    134248705
        0x0800be8c:    47184b00    .K.G    DCD    1192774400
        0x0800be90:    08006f69    io..    DCD    134246249
        0x0800be94:    47184b00    .K.G    DCD    1192774400
        0x0800be98:    08007663    cv..    DCD    134248035
        0x0800be9c:    0112f04f    O...    DCD    18018383
        0x0800bea0:    f001fb00    ....    DCD    4026661632
        0x0800bea4:    d1fd1e40    @...    DCD    3523026496
        0x0800bea8:    ffff4770    pG..    DCD    4294920048
        0x0800beac:    00000f85    ....    DCD    3973
        0x0800beb0:    2000006c    l..     DCD    536871020
        0x0800beb4:    2000006c    l..     DCD    536871020
        0x0800beb8:    00000069    i...    DCD    105
        0x0800bebc:    20000000    ...     DCD    536870912
        0x0800bec0:    08009848    H...    DCD    134256712
        0x0800bec4:    000001ea    ....    DCD    490
        0x0800bec8:    20000ff4    ...     DCD    536874996
        0x0800becc:    08009638    8...    DCD    134256184
        0x0800bed0:    00000bb8    ....    DCD    3000
        0x0800bed4:    30303030    0000    DCD    808464432
        0x0800bed8:    32313030    0012    DCD    842084400
        0x0800bedc:    36353433    3456    DCD    909456435
        0x0800bee0:    00000000    ....    DCD    0
        0x0800bee4:    08009acc    ....    DCD    134257356
        0x0800bee8:    08009ad4    ....    DCD    134257364
        0x0800beec:    00004000    .@..    DCD    16384
        0x0800bef0:    00000000    ....    DCD    0
        0x0800bef4:    00000000    ....    DCD    0
        0x0800bef8:    00000000    ....    DCD    0
        0x0800befc:    00000000    ....    DCD    0
        0x0800bf00:    00001000    ....    DCD    4096
        0x0800bf04:    00000000    ....    DCD    0
        0x0800bf08:    00002580    .%..    DCD    9600
        0x0800bf0c:    000000ff    ....    DCD    255
        0x0800bf10:    00010000    ....    DCD    65536
        0x0800bf14:    ffffe0ff    ....    DCD    4294959359
        0x0800bf18:    00ffffff    ....    DCD    16777215
        0x0800bf1c:    ffffe0ff    ....    DCD    4294959359
        0x0800bf20:    0000ffff    ....    DCD    65535
        0x0800bf24:    bd958da5    ....    DCD    3180694949
        0x0800bf28:    9fb7af87    ....    DCD    2679615367
        0x0800bf2c:    99b1a981    ....    DCD    2578557313
        0x0800bf30:    bb938ba3    ....    DCD    3147008931
        0x0800bf34:    01011366    f...    DCD    16847718
        0x0800bf38:    ffffff32    2...    DCD    4294967090
        0x0800bf3c:    00000000    ....    DCD    0
        0x0800bf40:    08005c29    )\..    DCD    134241321
        0x0800bf44:    08005d3d    =]..    DCD    134241597
        0x0800bf48:    08004679    yF..    DCD    134235769
        0x0800bf4c:    080046c5    .F..    DCD    134235845
        0x0800bf50:    0800477d    }G..    DCD    134236029
        0x0800bf54:    080047d5    .G..    DCD    134236117
        0x0800bf58:    08004765    eG..    DCD    134236005
        0x0800bf5c:    08004715    .G..    DCD    134235925
        0x0800bf60:    00000000    ....    DCD    0
        0x0800bf64:    08004815    .H..    DCD    134236181
        0x0800bf68:    08004879    yH..    DCD    134236281
        0x0800bf6c:    08004409    .D..    DCD    134235145
        0x0800bf70:    0800461d    .F..    DCD    134235677
        0x0800bf74:    00000000    ....    DCD    0
        0x0800bf78:    08004899    .H..    DCD    134236313
        0x0800bf7c:    00000000    ....    DCD    0
        0x0800bf80:    00000000    ....    DCD    0
        0x0800bf84:    00000000    ....    DCD    0
        0x0800bf88:    08004829    )H..    DCD    134236201
        0x0800bf8c:    88ea5833    3X..    DCD    2297059379
        0x0800bf90:    08005329    )S..    DCD    134239017
        0x0800bf94:    08004995    .I..    DCD    134236565
        0x0800bf98:    0800532d    -S..    DCD    134239021
        0x0800bf9c:    08005341    AS..    DCD    134239041
        0x0800bfa0:    08004d01    .M..    DCD    134237441
        0x0800bfa4:    08004f7d    }O..    DCD    134238077
        0x0800bfa8:    08005fd9    ._..    DCD    134242265
        0x0800bfac:    08004cc1    .L..    DCD    134237377
        0x0800bfb0:    08005329    )S..    DCD    134239017
        0x0800bfb4:    080050ad    .P..    DCD    134238381
        0x0800bfb8:    08005329    )S..    DCD    134239017
        0x0800bfbc:    08005355    US..    DCD    134239061
        0x0800bfc0:    08005329    )S..    DCD    134239017
        0x0800bfc4:    08005385    .S..    DCD    134239109
        0x0800bfc8:    08005329    )S..    DCD    134239017
        0x0800bfcc:    08005329    )S..    DCD    134239017
        0x0800bfd0:    08005329    )S..    DCD    134239017
        0x0800bfd4:    08005329    )S..    DCD    134239017
        0x0800bfd8:    08005329    )S..    DCD    134239017
        0x0800bfdc:    08005329    )S..    DCD    134239017
        0x0800bfe0:    08005329    )S..    DCD    134239017
        0x0800bfe4:    08004df1    .M..    DCD    134237681
        0x0800bfe8:    08004e15    .N..    DCD    134237717
        0x0800bfec:    08004e91    .N..    DCD    134237841
        0x0800bff0:    08005329    )S..    DCD    134239017
        0x0800bff4:    08005b05    .[..    DCD    134241029
        0x0800bff8:    08005ba5    .[..    DCD    134241189
        0x0800bffc:    08005a95    .Z..    DCD    134240917
        0x0800c000:    08004f45    EO..    DCD    134238021
        0x0800c004:    08005359    YS..    DCD    134239065
        0x0800c008:    08006409    .d..    DCD    134243337
        0x0800c00c:    0800640d    .d..    DCD    134243341
        0x0800c010:    08006419    .d..    DCD    134243353
        0x0800c014:    08006429    )d..    DCD    134243369
        0x0800c018:    0000536d    mS..    DCD    21357
    .constdata
    flash_code
        0x0800c01c:    e00abe00    ....    DCD    3758800384
        0x0800c020:    062d780d    .x-.    DCD    103643149
        0x0800c024:    24084068    h@.$    DCD    604520552
        0x0800c028:    d3000040    @...    DCD    3539992640
        0x0800c02c:    1e644058    X@d.    DCD    509886552
        0x0800c030:    1c49d1fa    ..I.    DCD    474599930
        0x0800c034:    2a001e52    R..*    DCD    704650834
        0x0800c038:    4770d1f2    ..pG    DCD    1198576114
        0x0800c03c:    4603b510    ...F    DCD    1174648080
        0x0800c040:    4c442000    . DL    DCD    1279533056
        0x0800c044:    48446020     `DH    DCD    1212440608
        0x0800c048:    48446060    ``DH    DCD    1212440672
        0x0800c04c:    46206060    `` F    DCD    1176526944
        0x0800c050:    f01069c0    .i..    DCD    4027607488
        0x0800c054:    d1080f04    ....    DCD    3506966276
        0x0800c058:    5055f245    E.UP    DCD    1347809861
        0x0800c05c:    60204c40    @L `    DCD    1612729408
        0x0800c060:    60602006    . ``    DCD    1616912390
        0x0800c064:    70fff640    @..p    DCD    1895822912
        0x0800c068:    200060a0    .`.     DCD    536895648
        0x0800c06c:    4601bd10    ...F    DCD    1174519056
        0x0800c070:    69004838    8H.i    DCD    1761626168
        0x0800c074:    0080f040    @...    DCD    8450112
        0x0800c078:    61104a36    6J.a    DCD    1628457526
        0x0800c07c:    47702000    . pG    DCD    1198530560
        0x0800c080:    69004834    4H.i    DCD    1761626164
        0x0800c084:    0004f040    @...    DCD    323648
        0x0800c088:    61084932    2I.a    DCD    1627932978
        0x0800c08c:    69004608    .F.i    DCD    1761625608
        0x0800c090:    0040f040    @.@.    DCD    4255808
        0x0800c094:    e0036108    .a..    DCD    3758317832
        0x0800c098:    20aaf64a    J..     DCD    548075082
        0x0800c09c:    60084930    0I.`    DCD    1611155760
        0x0800c0a0:    68c0482c    ,H.h    DCD    1757431852
        0x0800c0a4:    0f01f010    ....    DCD    251785232
        0x0800c0a8:    482ad1f6    ..*H    DCD    1210765814
        0x0800c0ac:    f0206900    .i .    DCD    4028655872
        0x0800c0b0:    49280004    ..(I    DCD    1227358212
        0x0800c0b4:    20006108    .a.     DCD    536895752
        0x0800c0b8:    46014770    pG.F    DCD    1174488944
        0x0800c0bc:    69004825    %H.i    DCD    1761626149
        0x0800c0c0:    0002f040    @...    DCD    192576
        0x0800c0c4:    61104a23    #J.a    DCD    1628457507
        0x0800c0c8:    61414610    .FAa    DCD    1631667728
        0x0800c0cc:    f0406900    .i@.    DCD    4030753024
        0x0800c0d0:    61100040    @..a    DCD    1628438592
        0x0800c0d4:    f64ae003    ..J.    DCD    4132102147
        0x0800c0d8:    4a2120aa    . !J    DCD    1243685034
        0x0800c0dc:    481d6010    .`.H    DCD    1209884688
        0x0800c0e0:    f01068c0    .h..    DCD    4027607232
        0x0800c0e4:    d1f60f01    ....    DCD    3522563841
        0x0800c0e8:    6900481a    .H.i    DCD    1761626138
        0x0800c0ec:    0002f020     ...    DCD    192544
        0x0800c0f0:    61104a18    .J.a    DCD    1628457496
        0x0800c0f4:    47702000    . pG    DCD    1198530560
        0x0800c0f8:    4603b510    ...F    DCD    1174648080
        0x0800c0fc:    f0201c48    H. .    DCD    4028636232
        0x0800c100:    e0220101    ..".    DCD    3760324865
        0x0800c104:    69004813    .H.i    DCD    1761626131
        0x0800c108:    0001f040    @...    DCD    127040
        0x0800c10c:    61204c11    .L a    DCD    1629506577
        0x0800c110:    80188810    ....    DCD    2149091344
        0x0800c114:    480fbf00    ...H    DCD    1208991488
        0x0800c118:    f01068c0    .h..    DCD    4027607232
        0x0800c11c:    d1fa0f01    ....    DCD    3522825985
        0x0800c120:    6900480c    .H.i    DCD    1761626124
        0x0800c124:    0001f020     ...    DCD    127008
        0x0800c128:    61204c0a    .L a    DCD    1629506570
        0x0800c12c:    68c04620     F.h    DCD    1757431328
        0x0800c130:    0f14f010    ....    DCD    253030416
        0x0800c134:    4620d006    .. F    DCD    1176555526
        0x0800c138:    f04068c0    .h@.    DCD    4030752960
        0x0800c13c:    60e00014    ...`    DCD    1625292820
        0x0800c140:    bd102001    . ..    DCD    3171950593
        0x0800c144:    1c921c9b    ....    DCD    479337627
        0x0800c148:    29001e89    ...)    DCD    687873673
        0x0800c14c:    2000d1da    ...     DCD    536924634
        0x0800c150:    0000e7f7    ....    DCD    59383
        0x0800c154:    40022000    . .@    DCD    1073881088
        0x0800c158:    45670123    #.gE    DCD    1164378403
        0x0800c15c:    cdef89ab    ....    DCD    3455027627
        0x0800c160:    40003000    .0.@    DCD    1073754112
        0x0800c164:    00000000    ....    DCD    0
    .constdata
    flash_algo
        0x0800c168:    20000021    !..     DCD    536870945
        0x0800c16c:    20000053    S..     DCD    536870995
        0x0800c170:    20000065    e..     DCD    536871013
        0x0800c174:    2000009f    ...     DCD    536871071
        0x0800c178:    200000dd    ...     DCD    536871133
        0x0800c17c:    20000001    ...     DCD    536870913
        0x0800c180:    20000c00    ...     DCD    536873984
        0x0800c184:    20001000    ...     DCD    536875008
        0x0800c188:    20000400    ...     DCD    536871936
        0x0800c18c:    20000000    ...     DCD    536870912
        0x0800c190:    0000014c    L...    DCD    332
        0x0800c194:    0800c01c    ....    DCD    134266908
        0x0800c198:    00000400    ....    DCD    1024
    .constdata
    DAP_FW_Ver
        0x0800c19c:    30312e31    1.10    DCD    808529457
        0x0800c1a0:    00000000    ....    DCD    0
    Region$$Table$$Base
        0x0800c1a4:    0800c1c4    ....    DCD    134267332
        0x0800c1a8:    20000000    ...     DCD    536870912
        0x0800c1ac:    0000003c    <...    DCD    60
        0x0800c1b0:    08002660    `&..    DCD    134227552
        0x0800c1b4:    0800c200    ....    DCD    134267392
        0x0800c1b8:    2000003c    <..     DCD    536870972
        0x0800c1bc:    0000081c    ....    DCD    2076
        0x0800c1c0:    08002670    p&..    DCD    134227568
    Region$$Table$$Limit

** Section #2 'RW_IRAM1' (SHT_PROGBITS) [SHF_ALLOC + SHF_WRITE]
    Size   : 60 bytes (alignment 4)
    Address: 0x20000000


** Section #3 'RW_IRAM1' (SHT_NOBITS) [SHF_ALLOC + SHF_WRITE]
    Size   : 2076 bytes (alignment 8)
    Address: 0x2000003c


** Section #4 '.debug_abbrev' (SHT_PROGBITS)
    Size   : 1476 bytes


** Section #5 '.debug_frame' (SHT_PROGBITS)
    Size   : 3724 bytes


** Section #6 '.debug_info' (SHT_PROGBITS)
    Size   : 44792 bytes


** Section #7 '.debug_line' (SHT_PROGBITS)
    Size   : 14876 bytes


** Section #8 '.debug_loc' (SHT_PROGBITS)
    Size   : 13400 bytes


** Section #9 '.debug_macinfo' (SHT_PROGBITS)
    Size   : 252192 bytes


** Section #10 '.debug_pubnames' (SHT_PROGBITS)
    Size   : 3057 bytes


** Section #11 '.symtab' (SHT_SYMTAB)
    Size   : 5712 bytes (alignment 4)
    String table #12 '.strtab'
    Last local symbol no. 151


** Section #12 '.strtab' (SHT_STRTAB)
    Size   : 5296 bytes


** Section #13 '.note' (SHT_NOTE)
    Size   : 28 bytes (alignment 4)


** Section #14 '.comment' (SHT_PROGBITS)
    Size   : 15976 bytes


** Section #15 '.shstrtab' (SHT_STRTAB)
    Size   : 156 bytes


address     size       variable name                            type
0x20000028  0x4        ADCPrescTable                            array[4] of volatile const uint8_t

address     size       variable name                            type
0x2000002c  0x10       APBAHBPrescTable                         array[16] of volatile const uint8_t

address     size       variable name                            type
0x20000018  0x10       AHBPrescTable                            array[16] of volatile const uint8_t

address     size       variable name                            type
0x20000014  0x4        SystemCoreClock                          uint32_t

address     size       variable name                            type
0x2000043c  0x18       DAP_Data                                 DAP_Data_t
0x2000043c  0x1        DAP_Data.debug_port                      uint8_t
0x2000043d  0x1      * DAP_Data.fast_clock                      uint8_t
0x20000440  0x4        DAP_Data.clock_delay                     uint32_t
0x20000444  0xc        DAP_Data.transfer                        anonymous
0x20000444  0x1      * DAP_Data.transfer.idle_cycles            uint8_t
0x20000446  0x2        DAP_Data.transfer.retry_count            uint16_t
0x20000448  0x2      * DAP_Data.transfer.match_retry            uint16_t
0x2000044c  0x4        DAP_Data.transfer.match_mask             uint32_t
0x20000450  0x2        DAP_Data.swd_conf                        anonymous
0x20000450  0x1        DAP_Data.swd_conf.turnaround             uint8_t
0x20000451  0x1        DAP_Data.swd_conf.data_phase             uint8_t

address     size       variable name                            type
0x0800c19c  0x5        DAP_FW_Ver                               array[5] of const char

address     size       variable name                            type
0x20000010  0x1        DAP_TransferAbort                        volatile uint8_t

address     size       variable name                            type
0x0800c168  0x34       flash_algo                               const program_target_t
0x0800c168  0x4        flash_algo.init                          const uint32_t
0x0800c16c  0x4        flash_algo.uninit                        const uint32_t
0x0800c170  0x4        flash_algo.erase_chip                    const uint32_t
0x0800c174  0x4        flash_algo.erase_sector                  const uint32_t
0x0800c178  0x4        flash_algo.program_page                  const uint32_t
0x0800c17c  0xc        flash_algo.sys_call_s                    const program_syscall_t
0x0800c17c  0x4        flash_algo.sys_call_s.breakpoint         uint32_t
0x0800c180  0x4        flash_algo.sys_call_s.static_base        uint32_t
0x0800c184  0x4        flash_algo.sys_call_s.stack_pointer      uint32_t
0x0800c188  0x4        flash_algo.program_buffer                const uint32_t
0x0800c18c  0x4        flash_algo.algo_start                    const uint32_t
0x0800c190  0x4        flash_algo.algo_size                     const uint32_t
0x0800c194  0x4        flash_algo.algo_blob                     pointer to const uint32_t
0x0800c198  0x4        flash_algo.program_buffer_size           const uint32_t

address     size       variable name                            type
0x0800c01c  0x14c      flash_code                               array[83] of const uint32_t

address     size       variable name                            type
0x20000008  0x8        dap_state                                DAP_STATE
0x20000008  0x4        dap_state.select                         uint32_t
0x2000000c  0x4        dap_state.csw                            uint32_t

address     size       variable name                            type
0x20000000  0x4        Flash_Page_Size                          uint32_t

address     size       variable name                            type
0x20000004  0x4        Flash_Start_Addr                         uint32_t

address     size       variable name                            type
0x08002688  0x9993     STM32F1_demo_code                        array[39315] of const uint8_t

address     size       variable name                            type
0x2000003c  0x400      buff                                     array[1024] of uint8_t

